first: 8000
last: f000
entries:
  - 0x8000
  - 0x8003
  - 0x800b
  - 0x8013
  - 0x801b
  - 0x8023
  - 0x8100
  - 0x8102
  - 0x8104
  - 0x8106
  - 0x8108
  - 0x810a
  - 0x810c
  - 0x810e
  - 0x8110
  - 0x8112
  - 0x8114
  - 0x8116
  - 0x8118
  - 0x811a
  - 0x811c
  - 0x811e
  - 0x8120
  - 0x8122
  - 0x8124
  - 0x8126
  - 0x8128
  - 0x812a
format: .txt
 * start
 -> entries: ["8000", "8003", "800b", "8013", "801b", "8023", "8100", "8102", "8104", "8106", "8108", "810a", "810c", "810e", "8110", "8112", "8114", "8116", "8118", "811a", "811c", "811e", "8120", "8122", "8124", "8126", "8128", "812a"]
8000	02 86 5e			ljmp $ 865eh
8003	02 80 a4			ljmp $ 80a4h
8006	ff	(unknown)  '.'
8007	ff	(unknown)  '.'
8008	ff	(unknown)  '.'
8009	ff	(unknown)  '.'
800a	ff	(unknown)  '.'
800b	02 80 a4			ljmp $ 80a4h
800e	ff	(unknown)  '.'
800f	ff	(unknown)  '.'
8010	ff	(unknown)  '.'
8011	ff	(unknown)  '.'
8012	ff	(unknown)  '.'
8013	02 80 a4			ljmp $ 80a4h
8016	ff	(unknown)  '.'
8017	ff	(unknown)  '.'
8018	ff	(unknown)  '.'
8019	ff	(unknown)  '.'
801a	ff	(unknown)  '.'
801b	02 80 a4			ljmp $ 80a4h
801e	ff	(unknown)  '.'
801f	ff	(unknown)  '.'
8020	ff	(unknown)  '.'
8021	ff	(unknown)  '.'
8022	ff	(unknown)  '.'
8023	c0 d0   			push PSW
8025	c0 e0   			push ACC
8027	10 98 50			jbc 0x98, $ 50h (807a)
802a	c2 99   			clr 0x99
802c	20 04 21			jb 0x04, $ 21h (8050)
802f	20 02 12			jb 0x02, $ 12h (8044)
8032	30 03 26			jnb 0x03, $ 26h (805b)
8035	ef      			mov A, R7
8036	11 60   			acall $ 60h (8060)
8038	f5 99   			mov SBUF, A
803a	2e      			add A, R6
803b	fe      			mov R6, A
803c	0f      			inc R7
803d	bf 19 1b			cjne R7, # 19h, $ 1bh (805b)
8040	d2 04   			setb 0x04
8042	80 17   			sjmp $ 17h (805b)
8044	e0      			movx A, @DPTR
8045	f5 99   			mov SBUF, A
8047	2e      			add A, R6
8048	fe      			mov R6, A
8049	a3      			inc DPTR
804a	df 0f   			djnz R7, $ 0fh (805b)
804c	d2 04   			setb 0x04
804e	80 0b   			sjmp $ 0bh (805b)
8050	ee      			mov A, R6
8051	f4      			cpl A
8052	04      			inc A
8053	f5 99   			mov SBUF, A
8055	c2 04   			clr 0x04
8057	c2 02   			clr 0x02
8059	c2 03   			clr 0x03
805b	d0 e0   			pop ACC
805d	d0 d0   			pop PSW
805f	32      			reti
8060	83      			movc A, @A+PC
8061	22      			ret
8062	4d	(unknown)  'M'
8063	69	(unknown)  'i'
8064	63	(unknown)  'c'
8065	72	(unknown)  'r'
8066	6f	(unknown)  'o'
8067	4d	(unknown)  'M'
8068	61	(unknown)  'a'
8069	64	(unknown)  'd'
806a	65	(unknown)  'e'
806b	20	(unknown)  ' '
806c	44	(unknown)  'D'
806d	53	(unknown)  'S'
806e	4d	(unknown)  'M'
806f	2d	(unknown)  '-'
8070	35	(unknown)  '5'
8071	31	(unknown)  '1'
8072	20	(unknown)  ' '
8073	76	(unknown)  'v'
8074	32	(unknown)  '2'
8075	20	(unknown)  ' '
8076	73	(unknown)  's'
8077	32	(unknown)  '2'
8078	2e	(unknown)  '.'
8079	32	(unknown)  '2'
807a	20 01 0e			jb 0x01, $ 0eh (808b)
807d	e5 99   			mov A, SBUF
807f	f7      			mov @R1, A
8080	2e      			add A, R6
8081	fe      			mov R6, A
8082	09      			inc R1
8083	d2 00   			setb 0x00
8085	b9 40 13			cjne R1, # 40h, $ 13h (809b)
8088	19      			dec R1
8089	80 10   			sjmp $ 10h (809b)
808b	e5 99   			mov A, SBUF
808d	f0      			movx @DPTR, A
808e	e0      			movx A, @DPTR
808f	b5 99 0e			cjne SBUF, $ 0eh (80a0)
8092	2e      			add A, R6
8093	fe      			mov R6, A
8094	a3      			inc DPTR
8095	df 04   			djnz R7, $ 04h (809b)
8097	c2 01   			clr 0x01
8099	c2 00   			clr 0x00
809b	d0 e0   			pop ACC
809d	d0 d0   			pop PSW
809f	32      			reti
80a0	d2 05   			setb 0x05
80a2	80 ee   			sjmp $ -12h (8092)
80a4	32      			reti
80a5	ff	(unknown)  '.'
80a6	ff	(unknown)  '.'
80a7	ff	(unknown)  '.'
80a8	ff	(unknown)  '.'
80a9	ff	(unknown)  '.'
80aa	ff	(unknown)  '.'
80ab	ff	(unknown)  '.'
80ac	ff	(unknown)  '.'
80ad	ff	(unknown)  '.'
80ae	ff	(unknown)  '.'
80af	ff	(unknown)  '.'
80b0	ff	(unknown)  '.'
80b1	ff	(unknown)  '.'
80b2	ff	(unknown)  '.'
80b3	ff	(unknown)  '.'
80b4	ff	(unknown)  '.'
80b5	ff	(unknown)  '.'
80b6	ff	(unknown)  '.'
80b7	ff	(unknown)  '.'
80b8	ff	(unknown)  '.'
80b9	ff	(unknown)  '.'
80ba	ff	(unknown)  '.'
80bb	ff	(unknown)  '.'
80bc	ff	(unknown)  '.'
80bd	ff	(unknown)  '.'
80be	ff	(unknown)  '.'
80bf	ff	(unknown)  '.'
80c0	ff	(unknown)  '.'
80c1	ff	(unknown)  '.'
80c2	ff	(unknown)  '.'
80c3	ff	(unknown)  '.'
80c4	ff	(unknown)  '.'
80c5	ff	(unknown)  '.'
80c6	ff	(unknown)  '.'
80c7	ff	(unknown)  '.'
80c8	ff	(unknown)  '.'
80c9	ff	(unknown)  '.'
80ca	ff	(unknown)  '.'
80cb	ff	(unknown)  '.'
80cc	ff	(unknown)  '.'
80cd	ff	(unknown)  '.'
80ce	ff	(unknown)  '.'
80cf	ff	(unknown)  '.'
80d0	ff	(unknown)  '.'
80d1	ff	(unknown)  '.'
80d2	ff	(unknown)  '.'
80d3	ff	(unknown)  '.'
80d4	ff	(unknown)  '.'
80d5	ff	(unknown)  '.'
80d6	ff	(unknown)  '.'
80d7	ff	(unknown)  '.'
80d8	ff	(unknown)  '.'
80d9	ff	(unknown)  '.'
80da	ff	(unknown)  '.'
80db	ff	(unknown)  '.'
80dc	ff	(unknown)  '.'
80dd	ff	(unknown)  '.'
80de	ff	(unknown)  '.'
80df	ff	(unknown)  '.'
80e0	ff	(unknown)  '.'
80e1	ff	(unknown)  '.'
80e2	ff	(unknown)  '.'
80e3	ff	(unknown)  '.'
80e4	ff	(unknown)  '.'
80e5	ff	(unknown)  '.'
80e6	ff	(unknown)  '.'
80e7	ff	(unknown)  '.'
80e8	ff	(unknown)  '.'
80e9	ff	(unknown)  '.'
80ea	ff	(unknown)  '.'
80eb	ff	(unknown)  '.'
80ec	ff	(unknown)  '.'
80ed	ff	(unknown)  '.'
80ee	ff	(unknown)  '.'
80ef	ff	(unknown)  '.'
80f0	ff	(unknown)  '.'
80f1	ff	(unknown)  '.'
80f2	ff	(unknown)  '.'
80f3	ff	(unknown)  '.'
80f4	ff	(unknown)  '.'
80f5	ff	(unknown)  '.'
80f6	ff	(unknown)  '.'
80f7	ff	(unknown)  '.'
80f8	ff	(unknown)  '.'
80f9	ff	(unknown)  '.'
80fa	ff	(unknown)  '.'
80fb	ff	(unknown)  '.'
80fc	ff	(unknown)  '.'
80fd	ff	(unknown)  '.'
80fe	ff	(unknown)  '.'
80ff	ff	(unknown)  '.'
8100	21 2c   			ajmp $ 012ch (812c)
8102	21 6e   			ajmp $ 016eh (816e)
8104	21 aa   			ajmp $ 01aah (81aa)
8106	41 33   			ajmp $ 0233h (8233)
8108	41 4a   			ajmp $ 024ah (824a)
810a	41 d8   			ajmp $ 02d8h (82d8)
810c	41 b9   			ajmp $ 02b9h (82b9)
810e	61 00   			ajmp $ 0300h (8300)
8110	61 04   			ajmp $ 0304h (8304)
8112	61 16   			ajmp $ 0316h (8316)
8114	61 31   			ajmp $ 0331h (8331)
8116	61 7c   			ajmp $ 037ch (837c)
8118	81 21   			ajmp $ 0421h (8421)
811a	61 bb   			ajmp $ 03bbh (83bb)
811c	81 2c   			ajmp $ 042ch (842c)
811e	81 b3   			ajmp $ 04b3h (84b3)
8120	a1 1a   			ajmp $ 051ah (851a)
8122	a1 3c   			ajmp $ 053ch (853c)
8124	a1 61   			ajmp $ 0561h (8561)
8126	a1 a6   			ajmp $ 05a6h (85a6)
8128	a1 cc   			ajmp $ 05cch (85cc)
812a	a1 f4   			ajmp $ 05f4h (85f4)
812c	e8      			mov A, R0
812d	c0 e0   			push ACC
812f	78 81   			mov R0, # 81h
8131	e4      			clr A
8132	93      			movc A, @A+DPTR
8133	60 35   			jz $ 35h (816a)
8135	c0 e0   			push ACC
8137	08      			inc R0
8138	e2      			movx A, @R0
8139	20 e7 fc			jb 0xe7, $ -04h (8138)
813c	18      			dec R0
813d	d0 e0   			pop ACC
813f	f2      			movx @R0, A
8140	08      			inc R0
8141	e2      			movx A, @R0
8142	54 7f   			anl A, # 7fh
8144	18      			dec R0
8145	b4 4f 00			cjne a, # 4fh, $ 00h (8148)
8148	40 04   			jc $ 04h (814e)
814a	74 80   			mov A, # 80h
814c	80 0c   			sjmp $ 0ch (815a)
814e	b4 0f 00			cjne a, # 0fh, $ 00h (8151)
8151	40 14   			jc $ 14h (8167)
8153	b4 40 00			cjne a, # 40h, $ 00h (8156)
8156	50 0f   			jnc $ 0fh (8167)
8158	74 c0   			mov A, # c0h
815a	c0 e0   			push ACC
815c	08      			inc R0
815d	e2      			movx A, @R0
815e	20 e7 fc			jb 0xe7, $ -04h (815d)
8161	18      			dec R0
8162	d0 e0   			pop ACC
8164	18      			dec R0
8165	f2      			movx @R0, A
8166	08      			inc R0
8167	a3      			inc DPTR
8168	80 c5   			sjmp $ -3bh (812f)
816a	d0 e0   			pop ACC
816c	f8      			mov R0, A
816d	22      			ret
816e	c8      			xch A, @0
816f	c0 e0   			push ACC
8171	e8      			mov A, R0
8172	78 81   			mov R0, # 81h
8174	c0 e0   			push ACC
8176	08      			inc R0
8177	e2      			movx A, @R0
8178	20 e7 fc			jb 0xe7, $ -04h (8177)
817b	18      			dec R0
817c	d0 e0   			pop ACC
817e	f2      			movx @R0, A
817f	08      			inc R0
8180	e2      			movx A, @R0
8181	54 7f   			anl A, # 7fh
8183	18      			dec R0
8184	b4 4f 00			cjne a, # 4fh, $ 00h (8187)
8187	40 04   			jc $ 04h (818d)
8189	74 80   			mov A, # 80h
818b	80 0c   			sjmp $ 0ch (8199)
818d	b4 0f 00			cjne a, # 0fh, $ 00h (8190)
8190	40 14   			jc $ 14h (81a6)
8192	b4 40 00			cjne a, # 40h, $ 00h (8195)
8195	50 0f   			jnc $ 0fh (81a6)
8197	74 c0   			mov A, # c0h
8199	c0 e0   			push ACC
819b	08      			inc R0
819c	e2      			movx A, @R0
819d	20 e7 fc			jb 0xe7, $ -04h (819c)
81a0	18      			dec R0
81a1	d0 e0   			pop ACC
81a3	18      			dec R0
81a4	f2      			movx @R0, A
81a5	08      			inc R0
81a6	d0 e0   			pop ACC
81a8	f8      			mov R0, A
81a9	22      			ret
81aa	c8      			xch A, @0
81ab	c0 e0   			push ACC
81ad	e8      			mov A, R0
81ae	78 81   			mov R0, # 81h
81b0	c0 e0   			push ACC
81b2	c4      			swap A
81b3	54 0f   			anl A, # 0fh
81b5	b4 0a 00			cjne a, # 0ah, $ 00h (81b8)
81b8	40 02   			jc $ 02h (81bc)
81ba	24 07   			add A, # 07h
81bc	24 30   			add A, # 30h
81be	c0 e0   			push ACC
81c0	08      			inc R0
81c1	e2      			movx A, @R0
81c2	20 e7 fc			jb 0xe7, $ -04h (81c1)
81c5	18      			dec R0
81c6	d0 e0   			pop ACC
81c8	f2      			movx @R0, A
81c9	08      			inc R0
81ca	e2      			movx A, @R0
81cb	54 7f   			anl A, # 7fh
81cd	18      			dec R0
81ce	b4 4f 00			cjne a, # 4fh, $ 00h (81d1)
81d1	40 04   			jc $ 04h (81d7)
81d3	74 80   			mov A, # 80h
81d5	80 0c   			sjmp $ 0ch (81e3)
81d7	b4 0f 00			cjne a, # 0fh, $ 00h (81da)
81da	40 14   			jc $ 14h (81f0)
81dc	b4 40 00			cjne a, # 40h, $ 00h (81df)
81df	50 0f   			jnc $ 0fh (81f0)
81e1	74 c0   			mov A, # c0h
81e3	c0 e0   			push ACC
81e5	08      			inc R0
81e6	e2      			movx A, @R0
81e7	20 e7 fc			jb 0xe7, $ -04h (81e6)
81ea	18      			dec R0
81eb	d0 e0   			pop ACC
81ed	18      			dec R0
81ee	f2      			movx @R0, A
81ef	08      			inc R0
81f0	d0 e0   			pop ACC
81f2	54 0f   			anl A, # 0fh
81f4	b4 0a 00			cjne a, # 0ah, $ 00h (81f7)
81f7	40 02   			jc $ 02h (81fb)
81f9	24 07   			add A, # 07h
81fb	24 30   			add A, # 30h
81fd	c0 e0   			push ACC
81ff	08      			inc R0
8200	e2      			movx A, @R0
8201	20 e7 fc			jb 0xe7, $ -04h (8200)
8204	18      			dec R0
8205	d0 e0   			pop ACC
8207	f2      			movx @R0, A
8208	08      			inc R0
8209	e2      			movx A, @R0
820a	54 7f   			anl A, # 7fh
820c	18      			dec R0
820d	b4 4f 00			cjne a, # 4fh, $ 00h (8210)
8210	40 04   			jc $ 04h (8216)
8212	74 80   			mov A, # 80h
8214	80 0c   			sjmp $ 0ch (8222)
8216	b4 0f 00			cjne a, # 0fh, $ 00h (8219)
8219	40 14   			jc $ 14h (822f)
821b	b4 40 00			cjne a, # 40h, $ 00h (821e)
821e	50 0f   			jnc $ 0fh (822f)
8220	74 c0   			mov A, # c0h
8222	c0 e0   			push ACC
8224	08      			inc R0
8225	e2      			movx A, @R0
8226	20 e7 fc			jb 0xe7, $ -04h (8225)
8229	18      			dec R0
822a	d0 e0   			pop ACC
822c	18      			dec R0
822d	f2      			movx @R0, A
822e	08      			inc R0
822f	d0 e0   			pop ACC
8231	f8      			mov R0, A
8232	22      			ret
8233	c8      			xch A, @0
8234	c0 e0   			push ACC
8236	e8      			mov A, R0
8237	78 81   			mov R0, # 81h
8239	c0 e0   			push ACC
823b	08      			inc R0
823c	e2      			movx A, @R0
823d	20 e7 fc			jb 0xe7, $ -04h (823c)
8240	18      			dec R0
8241	d0 e0   			pop ACC
8243	18      			dec R0
8244	f2      			movx @R0, A
8245	08      			inc R0
8246	d0 e0   			pop ACC
8248	f8      			mov R0, A
8249	22      			ret
824a	e8      			mov A, R0
824b	c0 e0   			push ACC
824d	78 81   			mov R0, # 81h
824f	74 10   			mov A, # 10h
8251	c0 e0   			push ACC
8253	74 e6   			mov A, # e6h
8255	d5 e0 fd			djnz ACC, $ -03h (8255)
8258	74 e3   			mov A, # e3h
825a	d5 e0 fd			djnz ACC, $ -03h (825a)
825d	d0 e0   			pop ACC
825f	d5 e0 ef			djnz ACC, $ -11h (8251)
8262	74 38   			mov A, # 38h
8264	18      			dec R0
8265	f2      			movx @R0, A
8266	08      			inc R0
8267	74 05   			mov A, # 05h
8269	c0 e0   			push ACC
826b	74 e6   			mov A, # e6h
826d	d5 e0 fd			djnz ACC, $ -03h (826d)
8270	74 e3   			mov A, # e3h
8272	d5 e0 fd			djnz ACC, $ -03h (8272)
8275	d0 e0   			pop ACC
8277	d5 e0 ef			djnz ACC, $ -11h (8269)
827a	74 38   			mov A, # 38h
827c	18      			dec R0
827d	f2      			movx @R0, A
827e	08      			inc R0
827f	74 32   			mov A, # 32h
8281	d5 e0 fd			djnz ACC, $ -03h (8281)
8284	74 38   			mov A, # 38h
8286	18      			dec R0
8287	f2      			movx @R0, A
8288	08      			inc R0
8289	08      			inc R0
828a	e2      			movx A, @R0
828b	20 e7 fc			jb 0xe7, $ -04h (828a)
828e	18      			dec R0
828f	74 38   			mov A, # 38h
8291	18      			dec R0
8292	f2      			movx @R0, A
8293	08      			inc R0
8294	08      			inc R0
8295	e2      			movx A, @R0
8296	20 e7 fc			jb 0xe7, $ -04h (8295)
8299	18      			dec R0
829a	74 0f   			mov A, # 0fh
829c	18      			dec R0
829d	f2      			movx @R0, A
829e	08      			inc R0
829f	08      			inc R0
82a0	e2      			movx A, @R0
82a1	20 e7 fc			jb 0xe7, $ -04h (82a0)
82a4	18      			dec R0
82a5	74 01   			mov A, # 01h
82a7	18      			dec R0
82a8	f2      			movx @R0, A
82a9	08      			inc R0
82aa	08      			inc R0
82ab	e2      			movx A, @R0
82ac	20 e7 fc			jb 0xe7, $ -04h (82ab)
82af	18      			dec R0
82b0	74 06   			mov A, # 06h
82b2	18      			dec R0
82b3	f2      			movx @R0, A
82b4	08      			inc R0
82b5	d0 e0   			pop ACC
82b7	f8      			mov R0, A
82b8	22      			ret
82b9	e8      			mov A, R0
82ba	c0 e0   			push ACC
82bc	78 81   			mov R0, # 81h
82be	08      			inc R0
82bf	e2      			movx A, @R0
82c0	20 e7 fc			jb 0xe7, $ -04h (82bf)
82c3	18      			dec R0
82c4	74 01   			mov A, # 01h
82c6	18      			dec R0
82c7	f2      			movx @R0, A
82c8	08      			inc R0
82c9	08      			inc R0
82ca	e2      			movx A, @R0
82cb	20 e7 fc			jb 0xe7, $ -04h (82ca)
82ce	18      			dec R0
82cf	74 0f   			mov A, # 0fh
82d1	18      			dec R0
82d2	f2      			movx @R0, A
82d3	08      			inc R0
82d4	d0 e0   			pop ACC
82d6	f8      			mov R0, A
82d7	22      			ret
82d8	e8      			mov A, R0
82d9	c0 e0   			push ACC
82db	78 81   			mov R0, # 81h
82dd	08      			inc R0
82de	e2      			movx A, @R0
82df	20 e7 fc			jb 0xe7, $ -04h (82de)
82e2	18      			dec R0
82e3	74 08   			mov A, # 08h
82e5	18      			dec R0
82e6	f2      			movx @R0, A
82e7	08      			inc R0
82e8	d0 e0   			pop ACC
82ea	f8      			mov R0, A
82eb	22      			ret
82ec	e8      			mov A, R0
82ed	c0 e0   			push ACC
82ef	78 81   			mov R0, # 81h
82f1	08      			inc R0
82f2	e2      			movx A, @R0
82f3	20 e7 fc			jb 0xe7, $ -04h (82f2)
82f6	18      			dec R0
82f7	74 0c   			mov A, # 0ch
82f9	18      			dec R0
82fa	f2      			movx @R0, A
82fb	08      			inc R0
82fc	d0 e0   			pop ACC
82fe	f8      			mov R0, A
82ff	22      			ret
8300	d5 e0 fd			djnz ACC, $ -03h (8300)
8303	22      			ret
8304	c0 e0   			push ACC
8306	74 e6   			mov A, # e6h
8308	d5 e0 fd			djnz ACC, $ -03h (8308)
830b	74 e3   			mov A, # e3h
830d	d5 e0 fd			djnz ACC, $ -03h (830d)
8310	d0 e0   			pop ACC
8312	d5 e0 ef			djnz ACC, $ -11h (8304)
8315	22      			ret
8316	c0 e0   			push ACC
8318	74 64   			mov A, # 64h
831a	c0 e0   			push ACC
831c	74 e6   			mov A, # e6h
831e	d5 e0 fd			djnz ACC, $ -03h (831e)
8321	74 e3   			mov A, # e3h
8323	d5 e0 fd			djnz ACC, $ -03h (8323)
8326	d0 e0   			pop ACC
8328	d5 e0 ef			djnz ACC, $ -11h (831a)
832b	d0 e0   			pop ACC
832d	d5 e0 e6			djnz ACC, $ -1ah (8316)
8330	22      			ret
8331	e8      			mov A, R0
8332	c0 e0   			push ACC
8334	c0 83   			push DPH
8336	c0 82   			push DPL
8338	90 89 fa			mov DPTR, # 89fa (35322)
833b	78 81   			mov R0, # 81h
833d	e4      			clr A
833e	93      			movc A, @A+DPTR
833f	60 35   			jz $ 35h (8376)
8341	c0 e0   			push ACC
8343	08      			inc R0
8344	e2      			movx A, @R0
8345	20 e7 fc			jb 0xe7, $ -04h (8344)
8348	18      			dec R0
8349	d0 e0   			pop ACC
834b	f2      			movx @R0, A
834c	08      			inc R0
834d	e2      			movx A, @R0
834e	54 7f   			anl A, # 7fh
8350	18      			dec R0
8351	b4 4f 00			cjne a, # 4fh, $ 00h (8354)
8354	40 04   			jc $ 04h (835a)
8356	74 80   			mov A, # 80h
8358	80 0c   			sjmp $ 0ch (8366)
835a	b4 0f 00			cjne a, # 0fh, $ 00h (835d)
835d	40 14   			jc $ 14h (8373)
835f	b4 40 00			cjne a, # 40h, $ 00h (8362)
8362	50 0f   			jnc $ 0fh (8373)
8364	74 c0   			mov A, # c0h
8366	c0 e0   			push ACC
8368	08      			inc R0
8369	e2      			movx A, @R0
836a	20 e7 fc			jb 0xe7, $ -04h (8369)
836d	18      			dec R0
836e	d0 e0   			pop ACC
8370	18      			dec R0
8371	f2      			movx @R0, A
8372	08      			inc R0
8373	a3      			inc DPTR
8374	80 c7   			sjmp $ -39h (833d)
8376	d0 82   			pop DPL
8378	d0 83   			pop DPH
837a	80 03   			sjmp $ 03h (837f)
837c	e8      			mov A, R0
837d	c0 e0   			push ACC
837f	78 22   			mov R0, # 22h
8381	e2      			movx A, @R0
8382	30 e7 fc			jnb 0xe7, $ -04h (8381)
8385	74 0a   			mov A, # 0ah
8387	c0 e0   			push ACC
8389	74 e6   			mov A, # e6h
838b	d5 e0 fd			djnz ACC, $ -03h (838b)
838e	74 e3   			mov A, # e3h
8390	d5 e0 fd			djnz ACC, $ -03h (8390)
8393	d0 e0   			pop ACC
8395	d5 e0 ef			djnz ACC, $ -11h (8387)
8398	e2      			movx A, @R0
8399	30 e7 e5			jnb 0xe7, $ -1bh (8381)
839c	e2      			movx A, @R0
839d	20 e7 fc			jb 0xe7, $ -04h (839c)
83a0	74 0a   			mov A, # 0ah
83a2	c0 e0   			push ACC
83a4	74 e6   			mov A, # e6h
83a6	d5 e0 fd			djnz ACC, $ -03h (83a6)
83a9	74 e3   			mov A, # e3h
83ab	d5 e0 fd			djnz ACC, $ -03h (83ab)
83ae	d0 e0   			pop ACC
83b0	d5 e0 ef			djnz ACC, $ -11h (83a2)
83b3	e2      			movx A, @R0
83b4	20 e7 e5			jb 0xe7, $ -1bh (839c)
83b7	d0 e0   			pop ACC
83b9	f8      			mov R0, A
83ba	22      			ret
83bb	e8      			mov A, R0
83bc	c0 e0   			push ACC
83be	78 22   			mov R0, # 22h
83c0	e2      			movx A, @R0
83c1	30 e7 fc			jnb 0xe7, $ -04h (83c0)
83c4	30 e6 f9			jnb 0xe6, $ -07h (83c0)
83c7	74 0a   			mov A, # 0ah
83c9	c0 e0   			push ACC
83cb	74 e6   			mov A, # e6h
83cd	d5 e0 fd			djnz ACC, $ -03h (83cd)
83d0	74 e3   			mov A, # e3h
83d2	d5 e0 fd			djnz ACC, $ -03h (83d2)
83d5	d0 e0   			pop ACC
83d7	d5 e0 ef			djnz ACC, $ -11h (83c9)
83da	e2      			movx A, @R0
83db	30 e7 e2			jnb 0xe7, $ -1eh (83c0)
83de	30 e6 df			jnb 0xe6, $ -21h (83c0)
83e1	e2      			movx A, @R0
83e2	30 e7 20			jnb 0xe7, $ 20h (8405)
83e5	20 e6 f9			jb 0xe6, $ -07h (83e1)
83e8	74 0a   			mov A, # 0ah
83ea	c0 e0   			push ACC
83ec	74 e6   			mov A, # e6h
83ee	d5 e0 fd			djnz ACC, $ -03h (83ee)
83f1	74 e3   			mov A, # e3h
83f3	d5 e0 fd			djnz ACC, $ -03h (83f3)
83f6	d0 e0   			pop ACC
83f8	d5 e0 ef			djnz ACC, $ -11h (83ea)
83fb	e2      			movx A, @R0
83fc	20 e6 e2			jb 0xe6, $ -1eh (83e1)
83ff	c3      			clr C
8400	b3      			cpl C
8401	d0 e0   			pop ACC
8403	f8      			mov R0, A
8404	22      			ret
8405	74 0a   			mov A, # 0ah
8407	c0 e0   			push ACC
8409	74 e6   			mov A, # e6h
840b	d5 e0 fd			djnz ACC, $ -03h (840b)
840e	74 e3   			mov A, # e3h
8410	d5 e0 fd			djnz ACC, $ -03h (8410)
8413	d0 e0   			pop ACC
8415	d5 e0 ef			djnz ACC, $ -11h (8407)
8418	e2      			movx A, @R0
8419	20 e7 c5			jb 0xe7, $ -3bh (83e1)
841c	c3      			clr C
841d	d0 e0   			pop ACC
841f	f8      			mov R0, A
8420	22      			ret
8421	e8      			mov A, R0
8422	c0 e0   			push ACC
8424	78 22   			mov R0, # 22h
8426	e2      			movx A, @R0
8427	33      			rlc A
8428	d0 e0   			pop ACC
842a	f8      			mov R0, A
842b	22      			ret
842c	e8      			mov A, R0
842d	c0 e0   			push ACC
842f	78 21   			mov R0, # 21h
8431	e2      			movx A, @R0
8432	f4      			cpl A
8433	70 fa   			jnz $ -06h (842f)
8435	08      			inc R0
8436	e2      			movx A, @R0
8437	f4      			cpl A
8438	70 f5   			jnz $ -0bh (842f)
843a	74 0a   			mov A, # 0ah
843c	c0 e0   			push ACC
843e	74 e6   			mov A, # e6h
8440	d5 e0 fd			djnz ACC, $ -03h (8440)
8443	74 e3   			mov A, # e3h
8445	d5 e0 fd			djnz ACC, $ -03h (8445)
8448	d0 e0   			pop ACC
844a	d5 e0 ef			djnz ACC, $ -11h (843c)
844d	18      			dec R0
844e	e2      			movx A, @R0
844f	f4      			cpl A
8450	70 dd   			jnz $ -23h (842f)
8452	08      			inc R0
8453	e2      			movx A, @R0
8454	f4      			cpl A
8455	70 d8   			jnz $ -28h (842f)
8457	74 0a   			mov A, # 0ah
8459	c0 e0   			push ACC
845b	74 e6   			mov A, # e6h
845d	d5 e0 fd			djnz ACC, $ -03h (845d)
8460	74 e3   			mov A, # e3h
8462	d5 e0 fd			djnz ACC, $ -03h (8462)
8465	d0 e0   			pop ACC
8467	d5 e0 ef			djnz ACC, $ -11h (8459)
846a	18      			dec R0
846b	e2      			movx A, @R0
846c	f4      			cpl A
846d	60 17   			jz $ 17h (8486)
846f	74 0a   			mov A, # 0ah
8471	c0 e0   			push ACC
8473	74 e6   			mov A, # e6h
8475	d5 e0 fd			djnz ACC, $ -03h (8475)
8478	74 e3   			mov A, # e3h
847a	d5 e0 fd			djnz ACC, $ -03h (847a)
847d	d0 e0   			pop ACC
847f	d5 e0 ef			djnz ACC, $ -11h (8471)
8482	e2      			movx A, @R0
8483	f4      			cpl A
8484	70 1c   			jnz $ 1ch (84a2)
8486	08      			inc R0
8487	e2      			movx A, @R0
8488	f4      			cpl A
8489	60 cc   			jz $ -34h (8457)
848b	74 0a   			mov A, # 0ah
848d	c0 e0   			push ACC
848f	74 e6   			mov A, # e6h
8491	d5 e0 fd			djnz ACC, $ -03h (8491)
8494	74 e3   			mov A, # e3h
8496	d5 e0 fd			djnz ACC, $ -03h (8496)
8499	d0 e0   			pop ACC
849b	d5 e0 ef			djnz ACC, $ -11h (848d)
849e	e2      			movx A, @R0
849f	f4      			cpl A
84a0	60 b5   			jz $ -4bh (8457)
84a2	c8      			xch A, @0
84a3	54 03   			anl A, # 03h
84a5	14      			dec A
84a6	23      			rl A
84a7	23      			rl A
84a8	23      			rl A
84a9	14      			dec A
84aa	c8      			xch A, @0
84ab	13      			rrc A
84ac	08      			inc R0
84ad	50 fc   			jnc $ -04h (84ab)
84af	d0 e0   			pop ACC
84b1	c8      			xch A, @0
84b2	22      			ret
84b3	08      			inc R0
84b4	91 2c   			acall $ 042ch (842c)
84b6	b4 0f 06			cjne a, # 0fh, $ 06h (84bf)
84b9	e4      			clr A
84ba	f6      			mov @R0, A
84bb	18      			dec R0
84bc	f6      			mov @R0, A
84bd	c3      			clr C
84be	22      			ret
84bf	b4 0a 00			cjne a, # 0ah, $ 00h (84c2)
84c2	50 f0   			jnc $ -10h (84b4)
84c4	f6      			mov @R0, A
84c5	24 30   			add A, # 30h
84c7	31 6e   			acall $ 016eh (816e)
84c9	91 2c   			acall $ 042ch (842c)
84cb	b4 0f 06			cjne a, # 0fh, $ 06h (84d4)
84ce	e4      			clr A
84cf	c6      			xch A, @R0
84d0	18      			dec R0
84d1	f6      			mov @R0, A
84d2	c3      			clr C
84d3	22      			ret
84d4	b4 0a 00			cjne a, # 0ah, $ 00h (84d7)
84d7	50 f0   			jnc $ -10h (84c9)
84d9	c4      			swap A
84da	d6      			xchd A, @R0
84db	c4      			swap A
84dc	f6      			mov @R0, A
84dd	54 0f   			anl A, # 0fh
84df	24 30   			add A, # 30h
84e1	31 6e   			acall $ 016eh (816e)
84e3	91 2c   			acall $ 042ch (842c)
84e5	b4 0f 06			cjne a, # 0fh, $ 06h (84ee)
84e8	e4      			clr A
84e9	c6      			xch A, @R0
84ea	18      			dec R0
84eb	f6      			mov @R0, A
84ec	c3      			clr C
84ed	22      			ret
84ee	b4 0a 00			cjne a, # 0ah, $ 00h (84f1)
84f1	50 f0   			jnc $ -10h (84e3)
84f3	18      			dec R0
84f4	f6      			mov @R0, A
84f5	24 30   			add A, # 30h
84f7	31 6e   			acall $ 016eh (816e)
84f9	91 2c   			acall $ 042ch (842c)
84fb	b4 0f 0a			cjne a, # 0fh, $ 0ah (8508)
84fe	e4      			clr A
84ff	08      			inc R0
8500	c6      			xch A, @R0
8501	c4      			swap A
8502	d6      			xchd A, @R0
8503	18      			dec R0
8504	d6      			xchd A, @R0
8505	f6      			mov @R0, A
8506	c3      			clr C
8507	22      			ret
8508	b4 0a 00			cjne a, # 0ah, $ 00h (850b)
850b	50 ec   			jnc $ -14h (84f9)
850d	c4      			swap A
850e	d6      			xchd A, @R0
850f	c4      			swap A
8510	f6      			mov @R0, A
8511	54 0f   			anl A, # 0fh
8513	24 30   			add A, # 30h
8515	31 6e   			acall $ 016eh (816e)
8517	71 bb   			acall $ 03bbh (83bb)
8519	22      			ret
851a	e4      			clr A
851b	d6      			xchd A, @R0
851c	c6      			xch A, @R0
851d	c4      			swap A
851e	75 f0 0a			mov $ f0, # 0ah
8521	a4      			mul AB
8522	26      			add A, @R0
8523	f6      			mov @R0, A
8524	08      			inc R0
8525	e4      			clr A
8526	d6      			xchd A, @R0
8527	c6      			xch A, @R0
8528	c4      			swap A
8529	75 f0 0a			mov $ f0, # 0ah
852c	a4      			mul AB
852d	26      			add A, @R0
852e	75 f0 64			mov $ f0, # 64h
8531	a4      			mul AB
8532	18      			dec R0
8533	26      			add A, @R0
8534	f6      			mov @R0, A
8535	08      			inc R0
8536	e4      			clr A
8537	35 f0   			addc A, $ f0
8539	f6      			mov @R0, A
853a	18      			dec R0
853b	22      			ret
853c	75 f0 64			mov $ f0, # 64h
853f	b1 cc   			acall $ 05cch (85cc)
8541	c0 e0   			push ACC
8543	b1 cc   			acall $ 05cch (85cc)
8545	c6      			xch A, @R0
8546	08      			inc R0
8547	08      			inc R0
8548	f6      			mov @R0, A
8549	18      			dec R0
854a	18      			dec R0
854b	e6      			mov A, @R0
854c	75 f0 0a			mov $ f0, # 0ah
854f	84      			div ab
8550	c4      			swap A
8551	25 f0   			add A, $ f0
8553	08      			inc R0
8554	f6      			mov @R0, A
8555	d0 e0   			pop ACC
8557	75 f0 0a			mov $ f0, # 0ah
855a	84      			div ab
855b	c4      			swap A
855c	25 f0   			add A, $ f0
855e	18      			dec R0
855f	f6      			mov @R0, A
8560	22      			ret
8561	ca      			xch A, @2
8562	c0 e0   			push ACC
8564	ea      			mov A, R2
8565	08      			inc R0
8566	08      			inc R0
8567	f6      			mov @R0, A
8568	08      			inc R0
8569	a6 f0   			mov @R0, $ f0
856b	18      			dec R0
856c	18      			dec R0
856d	18      			dec R0
856e	86 f0   			mov $ f0, @R0
8570	a4      			mul AB
8571	c6      			xch A, @R0
8572	aa f0   			mov R2, $ f0
8574	08      			inc R0
8575	08      			inc R0
8576	08      			inc R0
8577	86 f0   			mov $ f0, @R0
8579	a4      			mul AB
857a	2a      			add A, R2
857b	fa      			mov R2, A
857c	50 02   			jnc $ 02h (8580)
857e	05 f0   			inc $ f0
8580	18      			dec R0
8581	e5 f0   			mov A, $ f0
8583	c6      			xch A, @R0
8584	18      			dec R0
8585	86 f0   			mov $ f0, @R0
8587	a4      			mul AB
8588	2a      			add A, R2
8589	c6      			xch A, @R0
858a	c5 f0   			xch A, $ f0
858c	08      			inc R0
858d	36      			addc A, @R0
858e	f6      			mov @R0, A
858f	e4      			clr A
8590	50 01   			jnc $ 01h (8593)
8592	04      			inc A
8593	08      			inc R0
8594	c6      			xch A, @R0
8595	a4      			mul AB
8596	18      			dec R0
8597	26      			add A, @R0
8598	f6      			mov @R0, A
8599	c5 f0   			xch A, $ f0
859b	08      			inc R0
859c	26      			add A, @R0
859d	f6      			mov @R0, A
859e	18      			dec R0
859f	18      			dec R0
85a0	18      			dec R0
85a1	fa      			mov R2, A
85a2	d0 e0   			pop ACC
85a4	ca      			xch A, @2
85a5	22      			ret
85a6	f5 f0   			mov $ f0, A
85a8	c6      			xch A, @R0
85a9	a4      			mul AB
85aa	c6      			xch A, @R0
85ab	c5 f0   			xch A, $ f0
85ad	08      			inc R0
85ae	c6      			xch A, @R0
85af	c0 f0   			push $ f0
85b1	a4      			mul AB
85b2	26      			add A, @R0
85b3	f6      			mov @R0, A
85b4	50 02   			jnc $ 02h (85b8)
85b6	05 f0   			inc $ f0
85b8	e5 f0   			mov A, $ f0
85ba	08      			inc R0
85bb	c6      			xch A, @R0
85bc	d0 f0   			pop $ f0
85be	a4      			mul AB
85bf	26      			add A, @R0
85c0	f6      			mov @R0, A
85c1	50 02   			jnc $ 02h (85c5)
85c3	05 f0   			inc $ f0
85c5	08      			inc R0
85c6	a6 f0   			mov @R0, $ f0
85c8	18      			dec R0
85c9	18      			dec R0
85ca	18      			dec R0
85cb	22      			ret
85cc	ea      			mov A, R2
85cd	c0 e0   			push ACC
85cf	e4      			clr A
85d0	7a 11   			mov R2, # 11h
85d2	c3      			clr C
85d3	80 10   			sjmp $ 10h (85e5)
85d5	c3      			clr C
85d6	95 f0   			subb A, $ f0
85d8	80 0b   			sjmp $ 0bh (85e5)
85da	33      			rlc A
85db	40 f8   			jc $ -08h (85d5)
85dd	95 f0   			subb A, $ f0
85df	b3      			cpl C
85e0	40 03   			jc $ 03h (85e5)
85e2	25 f0   			add A, $ f0
85e4	c3      			clr C
85e5	c6      			xch A, @R0
85e6	33      			rlc A
85e7	c6      			xch A, @R0
85e8	08      			inc R0
85e9	c6      			xch A, @R0
85ea	33      			rlc A
85eb	c6      			xch A, @R0
85ec	18      			dec R0
85ed	da eb   			djnz R2, $ -15h (85da)
85ef	fa      			mov R2, A
85f0	d0 e0   			pop ACC
85f2	ca      			xch A, @2
85f3	22      			ret
85f4	ca      			xch A, @2
85f5	c0 e0   			push ACC
85f7	ea      			mov A, R2
85f8	08      			inc R0
85f9	08      			inc R0
85fa	08      			inc R0
85fb	08      			inc R0
85fc	08      			inc R0
85fd	76 00   			mov @R0, # 00h
85ff	18      			dec R0
8600	76 00   			mov @R0, # 00h
8602	18      			dec R0
8603	18      			dec R0
8604	18      			dec R0
8605	18      			dec R0
8606	7a 21   			mov R2, # 21h
8608	c3      			clr C
8609	80 3a   			sjmp $ 3ah (8645)
860b	c3      			clr C
860c	c6      			xch A, @R0
860d	96      			subb A, @R0
860e	c6      			xch A, @R0
860f	08      			inc R0
8610	c5 f0   			xch A, $ f0
8612	c6      			xch A, @R0
8613	96      			subb A, @R0
8614	c6      			xch A, @R0
8615	18      			dec R0
8616	c5 f0   			xch A, $ f0
8618	80 27   			sjmp $ 27h (8641)
861a	08      			inc R0
861b	c6      			xch A, @R0
861c	33      			rlc A
861d	c6      			xch A, @R0
861e	08      			inc R0
861f	c6      			xch A, @R0
8620	33      			rlc A
8621	c6      			xch A, @R0
8622	18      			dec R0
8623	40 e6   			jc $ -1ah (860b)
8625	c6      			xch A, @R0
8626	96      			subb A, @R0
8627	c6      			xch A, @R0
8628	08      			inc R0
8629	c5 f0   			xch A, $ f0
862b	c6      			xch A, @R0
862c	96      			subb A, @R0
862d	c6      			xch A, @R0
862e	18      			dec R0
862f	c5 f0   			xch A, $ f0
8631	b3      			cpl C
8632	40 0d   			jc $ 0dh (8641)
8634	c6      			xch A, @R0
8635	26      			add A, @R0
8636	c6      			xch A, @R0
8637	08      			inc R0
8638	c5 f0   			xch A, $ f0
863a	c6      			xch A, @R0
863b	36      			addc A, @R0
863c	c6      			xch A, @R0
863d	18      			dec R0
863e	c5 f0   			xch A, $ f0
8640	c3      			clr C
8641	18      			dec R0
8642	18      			dec R0
8643	18      			dec R0
8644	18      			dec R0
8645	c6      			xch A, @R0
8646	33      			rlc A
8647	c6      			xch A, @R0
8648	08      			inc R0
8649	c6      			xch A, @R0
864a	33      			rlc A
864b	c6      			xch A, @R0
864c	08      			inc R0
864d	c6      			xch A, @R0
864e	33      			rlc A
864f	c6      			xch A, @R0
8650	08      			inc R0
8651	c6      			xch A, @R0
8652	33      			rlc A
8653	c6      			xch A, @R0
8654	da c4   			djnz R2, $ -3ch (861a)
8656	18      			dec R0
8657	18      			dec R0
8658	18      			dec R0
8659	fa      			mov R2, A
865a	d0 e0   			pop ACC
865c	ca      			xch A, @2
865d	22      			ret
865e	c2 af   			clr EA
8660	75 81 60			mov SP, # 60h
8663	12 88 07			lcall $ 8807h
8666	79 40   			mov R1, # 40h
8668	e3      			movx A, @R1
8669	78 38   			mov R0, # 38h
866b	e4      			clr A
866c	f2      			movx @R0, A
866d	78 21   			mov R0, # 21h
866f	e2      			movx A, @R0
8670	30 e0 20			jnb 0xe0, $ 20h (8693)
8673	30 e1 07			jnb 0xe1, $ 07h (867d)
8676	30 e2 08			jnb 0xe2, $ 08h (8681)
8679	51 4a   			acall $ 024ah (824a)
867b	c1 f8   			ajmp $ 06f8h (86f8)
867d	51 4a   			acall $ 024ah (824a)
867f	e1 e7   			ajmp $ 07e7h (87e7)
8681	51 4a   			acall $ 024ah (824a)
8683	51 b9   			acall $ 02b9h (82b9)
8685	74 01   			mov A, # 01h
8687	71 16   			acall $ 0316h (8316)
8689	90 8a 09			mov DPTR, # 8a09 (35337)
868c	31 2c   			acall $ 012ch (812c)
868e	71 7c   			acall $ 037ch (837c)
8690	02 90 00			ljmp $ 9000h
8693	51 4a   			acall $ 024ah (824a)
8695	90 89 cd			mov DPTR, # 89cd (35277)
8698	31 2c   			acall $ 012ch (812c)
869a	90 00 00			mov DPTR, # 0000 (0)
869d	74 55   			mov A, # 55h
869f	f0      			movx @DPTR, A
86a0	a3      			inc DPTR
86a1	aa 83   			mov R2, DPH
86a3	ba 80 02			cjne R2, # 80h, $ 02h (86a8)
86a6	80 11   			sjmp $ 11h (86b9)
86a8	f0      			movx @DPTR, A
86a9	a3      			inc DPTR
86aa	aa 83   			mov R2, DPH
86ac	ba 80 02			cjne R2, # 80h, $ 02h (86b1)
86af	80 08   			sjmp $ 08h (86b9)
86b1	23      			rl A
86b2	f0      			movx @DPTR, A
86b3	a3      			inc DPTR
86b4	aa 83   			mov R2, DPH
86b6	ba 80 e4			cjne R2, # 80h, $ -1ch (869d)
86b9	90 00 00			mov DPTR, # 0000 (0)
86bc	e0      			movx A, @DPTR
86bd	a3      			inc DPTR
86be	b4 55 30			cjne a, # 55h, $ 30h (86f1)
86c1	aa 83   			mov R2, DPH
86c3	ba 80 02			cjne R2, # 80h, $ 02h (86c8)
86c6	80 16   			sjmp $ 16h (86de)
86c8	e0      			movx A, @DPTR
86c9	a3      			inc DPTR
86ca	b4 55 24			cjne a, # 55h, $ 24h (86f1)
86cd	aa 83   			mov R2, DPH
86cf	ba 80 02			cjne R2, # 80h, $ 02h (86d4)
86d2	80 0a   			sjmp $ 0ah (86de)
86d4	e0      			movx A, @DPTR
86d5	a3      			inc DPTR
86d6	b4 aa 18			cjne a, # aah, $ 18h (86f1)
86d9	aa 83   			mov R2, DPH
86db	ba 80 de			cjne R2, # 80h, $ -22h (86bc)
86de	90 89 db			mov DPTR, # 89db (35291)
86e1	31 2c   			acall $ 012ch (812c)
86e3	74 14   			mov A, # 14h
86e5	71 16   			acall $ 0316h (8316)
86e7	51 b9   			acall $ 02b9h (82b9)
86e9	90 8a 29			mov DPTR, # 8a29 (35369)
86ec	31 2c   			acall $ 012ch (812c)
86ee	02 88 2a			ljmp $ 882ah
86f1	90 89 e8			mov DPTR, # 89e8 (35304)
86f4	31 2c   			acall $ 012ch (812c)
86f6	80 fe   			sjmp $ -02h (86f6)
86f8	74 01   			mov A, # 01h
86fa	71 16   			acall $ 0316h (8316)
86fc	90 89 8c			mov DPTR, # 898c (35212)
86ff	31 2c   			acall $ 012ch (812c)
8701	74 cf   			mov A, # cfh
8703	51 33   			acall $ 0233h (8233)
8705	43 87 80			orl PCON, # 80h
8708	75 98 50			mov SCON, # 50h
870b	75 89 20			mov TMOD, # 20h
870e	75 8b ff			mov TL1, # ffh
8711	75 8d ff			mov TH1, # ffh
8714	d2 8e   			setb TR1
8716	d2 ac   			setb ES
8718	75 20 00			mov $ 20, # 00h
871b	79 30   			mov R1, # 30h
871d	d2 af   			setb EA
871f	d2 9c   			setb 0x9c
8721	80 03   			sjmp $ 03h (8726)
8723	75 99 15			mov SBUF, # 15h
8726	7e 00   			mov R6, # 00h
8728	c2 00   			clr 0x00
872a	79 30   			mov R1, # 30h
872c	30 00 fd			jnb 0x00, $ -03h (872c)
872f	74 50   			mov A, # 50h
8731	b5 30 24			cjne $ 30, $ 24h (8758)
8734	b9 35 fd			cjne R1, # 35h, $ -03h (8734)
8737	ee      			mov A, R6
8738	70 e9   			jnz $ -17h (8723)
873a	75 99 06			mov SBUF, # 06h
873d	af 31   			mov R7, $ 31
873f	85 32 82			mov DPL, $ 32
8742	85 33 83			mov DPH, $ 33
8745	d2 01   			setb 0x01
8747	20 01 fd			jb 0x01, $ -03h (8747)
874a	30 00 fd			jnb 0x00, $ -03h (874a)
874d	10 05 d3			jbc 0x05, $ -2dh (8723)
8750	ee      			mov A, R6
8751	70 d0   			jnz $ -30h (8723)
8753	75 99 06			mov SBUF, # 06h
8756	e1 26   			ajmp $ 0726h (8726)
8758	74 4f   			mov A, # 4fh
875a	b5 30 22			cjne $ 30, $ 22h (877f)
875d	b9 35 fd			cjne R1, # 35h, $ -03h (875d)
8760	ee      			mov A, R6
8761	70 c0   			jnz $ -40h (8723)
8763	c2 9c   			clr 0x9c
8765	af 31   			mov R7, $ 31
8767	85 32 82			mov DPL, $ 32
876a	85 33 83			mov DPH, $ 33
876d	d2 02   			setb 0x02
876f	e0      			movx A, @DPTR
8770	f5 99   			mov SBUF, A
8772	fe      			mov R6, A
8773	a3      			inc DPTR
8774	df 02   			djnz R7, $ 02h (8778)
8776	d2 04   			setb 0x04
8778	20 02 fd			jb 0x02, $ -03h (8778)
877b	d2 9c   			setb 0x9c
877d	e1 26   			ajmp $ 0726h (8726)
877f	74 52   			mov A, # 52h
8781	b5 30 08			cjne $ 30, $ 08h (878c)
8784	b9 32 fd			cjne R1, # 32h, $ -03h (8784)
8787	ee      			mov A, R6
8788	70 99   			jnz $ -67h (8723)
878a	80 56   			sjmp $ 56h (87e2)
878c	74 4d   			mov A, # 4dh
878e	b5 30 09			cjne $ 30, $ 09h (879a)
8791	b9 32 fd			cjne R1, # 32h, $ -03h (8791)
8794	ee      			mov A, R6
8795	70 8c   			jnz $ -74h (8723)
8797	02 b8 8f			ljmp $ b88fh
879a	74 56   			mov A, # 56h
879c	b5 30 19			cjne $ 30, $ 19h (87b8)
879f	b9 32 fd			cjne R1, # 32h, $ -03h (879f)
87a2	ee      			mov A, R6
87a3	70 3b   			jnz $ 3bh (87e0)
87a5	c2 9c   			clr 0x9c
87a7	7f 02   			mov R7, # 02h
87a9	d2 03   			setb 0x03
87ab	74 01   			mov A, # 01h
87ad	11 60   			acall $ 60h (8060)
87af	f5 99   			mov SBUF, A
87b1	20 03 fd			jb 0x03, $ -03h (87b1)
87b4	d2 9c   			setb 0x9c
87b6	e1 26   			ajmp $ 0726h (8726)
87b8	74 51   			mov A, # 51h
87ba	b5 30 13			cjne $ 30, $ 13h (87d0)
87bd	b9 32 fd			cjne R1, # 32h, $ -03h (87bd)
87c0	ee      			mov A, R6
87c1	70 1d   			jnz $ 1dh (87e0)
87c3	75 99 06			mov SBUF, # 06h
87c6	e4      			clr A
87c7	d5 e0 fd			djnz ACC, $ -03h (87c7)
87ca	d5 e0 fd			djnz ACC, $ -03h (87ca)
87cd	02 80 00			ljmp $ 8000h
87d0	74 54   			mov A, # 54h
87d2	b5 30 0b			cjne $ 30, $ 0bh (87e0)
87d5	b9 32 fd			cjne R1, # 32h, $ -03h (87d5)
87d8	ee      			mov A, R6
87d9	70 05   			jnz $ 05h (87e0)
87db	75 99 43			mov SBUF, # 43h
87de	e1 26   			ajmp $ 0726h (8726)
87e0	e1 23   			ajmp $ 0723h (8723)
87e2	c2 af   			clr EA
87e4	75 99 06			mov SBUF, # 06h
87e7	51 b9   			acall $ 02b9h (82b9)
87e9	51 ec   			acall $ 02ech (82ec)
87eb	74 05   			mov A, # 05h
87ed	71 16   			acall $ 0316h (8316)
87ef	90 89 ad			mov DPTR, # 89ad (35245)
87f2	31 2c   			acall $ 012ch (812c)
87f4	74 05   			mov A, # 05h
87f6	71 16   			acall $ 0316h (8316)
87f8	12 88 07			lcall $ 8807h
87fb	75 81 07			mov SP, # 07h
87fe	79 40   			mov R1, # 40h
8800	f3      			movx @R1, A
8801	e4      			clr A
8802	f5 d0   			mov PSW, A
8804	02 00 00			ljmp $ 0000h
8807	e4      			clr A
8808	f5 f0   			mov $ f0, A
880a	90 00 00			mov DPTR, # 0000 (0)
880d	f5 b8   			mov IP, A
880f	f5 a8   			mov IE, A
8811	f5 98   			mov SCON, A
8813	f5 88   			mov TCON, A
8815	f5 89   			mov TMOD, A
8817	f5 8c   			mov TH0, A
8819	f5 8a   			mov TL0, A
881b	f5 8d   			mov TH1, A
881d	f5 8b   			mov TL1, A
881f	53 87 7f			anl PCON, # 7fh
8822	f4      			cpl A
8823	f5 90   			mov P1, A
8825	f5 a0   			mov $ a0, A
8827	f5 b0   			mov P3, A
8829	22      			ret
882a	78 37   			mov R0, # 37h
882c	79 41   			mov R1, # 41h
882e	74 01   			mov A, # 01h
8830	7a 06   			mov R2, # 06h
8832	f7      			mov @R1, A
8833	09      			inc R1
8834	da fc   			djnz R2, $ -04h (8832)
8836	75 47 00			mov $ 47, # 00h
8839	7c c8   			mov R4, # c8h
883b	7a 01   			mov R2, # 01h
883d	78 37   			mov R0, # 37h
883f	eb      			mov A, R3
8840	03      			rr A
8841	fb      			mov R3, A
8842	19      			dec R1
8843	da 06   			djnz R2, $ 06h (884b)
8845	7a 07   			mov R2, # 07h
8847	7b 40   			mov R3, # 40h
8849	79 47   			mov R1, # 47h
884b	d2 96   			setb 0x96
884d	eb      			mov A, R3
884e	f2      			movx @R0, A
884f	e7      			mov A, @R1
8850	08      			inc R0
8851	f2      			movx @R0, A
8852	18      			dec R0
8853	c2 96   			clr 0x96
8855	eb      			mov A, R3
8856	30 b5 0b			jnb 0xb5, $ 0bh (8864)
8859	55 47   			anl A, $ 47
885b	70 11   			jnz $ 11h (886e)
885d	eb      			mov A, R3
885e	42 47   			orl $ 47, A
8860	c2 95   			clr 0x95
8862	80 0a   			sjmp $ 0ah (886e)
8864	64 ff   			xrl A, # ffh
8866	52 47   			anl $ 47, A
8868	e5 47   			mov A, $ 47
886a	70 02   			jnz $ 02h (886e)
886c	d2 95   			setb 0x95
886e	11 86   			acall $ 86h (8886)
8870	74 96   			mov A, # 96h
8872	12 81 0e			lcall $ 810eh
8875	ba 01 c5			cjne R2, # 01h, $ -3bh (883d)
8878	dc c3   			djnz R4, $ -3dh (883d)
887a	79 41   			mov R1, # 41h
887c	7a 06   			mov R2, # 06h
887e	e7      			mov A, @R1
887f	23      			rl A
8880	f7      			mov @R1, A
8881	09      			inc R1
8882	da fc   			djnz R2, $ -04h (8880)
8884	80 b3   			sjmp $ -4dh (8839)
8886	78 21   			mov R0, # 21h
8888	e2      			movx A, @R0
8889	f4      			cpl A
888a	70 0f   			jnz $ 0fh (889b)
888c	75 48 00			mov $ 48, # 00h
888f	08      			inc R0
8890	e2      			movx A, @R0
8891	18      			dec R0
8892	f4      			cpl A
8893	70 18   			jnz $ 18h (88ad)
8895	75 49 00			mov $ 49, # 00h
8898	d2 97   			setb 0x97
889a	22      			ret
889b	fd      			mov R5, A
889c	55 48   			anl A, $ 48
889e	70 fa   			jnz $ -06h (889a)
88a0	ed      			mov A, R5
88a1	42 48   			orl $ 48, A
88a3	7d 07   			mov R5, # 07h
88a5	33      			rlc A
88a6	40 02   			jc $ 02h (88aa)
88a8	dd fb   			djnz R5, $ -05h (88a5)
88aa	ed      			mov A, R5
88ab	80 12   			sjmp $ 12h (88bf)
88ad	fd      			mov R5, A
88ae	55 49   			anl A, $ 49
88b0	70 e8   			jnz $ -18h (889a)
88b2	ed      			mov A, R5
88b3	42 49   			orl $ 49, A
88b5	7d 07   			mov R5, # 07h
88b7	33      			rlc A
88b8	40 02   			jc $ 02h (88bc)
88ba	dd fb   			djnz R5, $ -05h (88b7)
88bc	ed      			mov A, R5
88bd	24 08   			add A, # 08h
88bf	c2 97   			clr 0x97
88c1	b4 0f 04			cjne a, # 0fh, $ 04h (88c8)
88c4	12 81 0c			lcall $ 810ch
88c7	22      			ret
88c8	90 88 d0			mov DPTR, # 88d0 (35024)
88cb	93      			movc A, @A+DPTR
88cc	12 81 02			lcall $ 8102h
88cf	22      			ret
88d0	30	(unknown)  '0'
88d1	31	(unknown)  '1'
88d2	32	(unknown)  '2'
88d3	33	(unknown)  '3'
88d4	34	(unknown)  '4'
88d5	35	(unknown)  '5'
88d6	36	(unknown)  '6'
88d7	37	(unknown)  '7'
88d8	38	(unknown)  '8'
88d9	39	(unknown)  '9'
88da	3c	(unknown)  '<'
88db	3e	(unknown)  '>'
88dc	5e	(unknown)  '^'
88dd	76	(unknown)  'v'
88de	7f	(unknown)  '.'
88df	ae	(unknown)  '.'
88e0	e8      			mov A, R0
88e1	c0 e0   			push ACC
88e3	75 f0 23			mov $ f0, # 23h
88e6	74 0a   			mov A, # 0ah
88e8	c0 e0   			push ACC
88ea	74 e6   			mov A, # e6h
88ec	d5 e0 fd			djnz ACC, $ -03h (88ec)
88ef	74 e3   			mov A, # e3h
88f1	d5 e0 fd			djnz ACC, $ -03h (88f1)
88f4	d0 e0   			pop ACC
88f6	d5 e0 ef			djnz ACC, $ -11h (88e8)
88f9	78 21   			mov R0, # 21h
88fb	e2      			movx A, @R0
88fc	f4      			cpl A
88fd	70 05   			jnz $ 05h (8904)
88ff	08      			inc R0
8900	e2      			movx A, @R0
8901	f4      			cpl A
8902	60 17   			jz $ 17h (891b)
8904	d5 f0 df			djnz $ f0, $ -21h (88e6)
8907	75 f0 07			mov $ f0, # 07h
890a	b8 21 03			cjne R0, # 21h, $ 03h (8910)
890d	75 f0 ff			mov $ f0, # ffh
8910	13      			rrc A
8911	05 f0   			inc $ f0
8913	50 fb   			jnc $ -05h (8910)
8915	d0 e0   			pop ACC
8917	f8      			mov R0, A
8918	e5 f0   			mov A, $ f0
891a	22      			ret
891b	74 0a   			mov A, # 0ah
891d	c0 e0   			push ACC
891f	74 e6   			mov A, # e6h
8921	d5 e0 fd			djnz ACC, $ -03h (8921)
8924	74 e3   			mov A, # e3h
8926	d5 e0 fd			djnz ACC, $ -03h (8926)
8929	d0 e0   			pop ACC
892b	d5 e0 ef			djnz ACC, $ -11h (891d)
892e	78 21   			mov R0, # 21h
8930	e2      			movx A, @R0
8931	f4      			cpl A
8932	70 d0   			jnz $ -30h (8904)
8934	08      			inc R0
8935	e2      			movx A, @R0
8936	f4      			cpl A
8937	70 cb   			jnz $ -35h (8904)
8939	75 f0 ff			mov $ f0, # ffh
893c	74 0a   			mov A, # 0ah
893e	c0 e0   			push ACC
8940	74 e6   			mov A, # e6h
8942	d5 e0 fd			djnz ACC, $ -03h (8942)
8945	74 e3   			mov A, # e3h
8947	d5 e0 fd			djnz ACC, $ -03h (8947)
894a	d0 e0   			pop ACC
894c	d5 e0 ef			djnz ACC, $ -11h (893e)
894f	18      			dec R0
8950	e2      			movx A, @R0
8951	f4      			cpl A
8952	60 17   			jz $ 17h (896b)
8954	74 0a   			mov A, # 0ah
8956	c0 e0   			push ACC
8958	74 e6   			mov A, # e6h
895a	d5 e0 fd			djnz ACC, $ -03h (895a)
895d	74 e3   			mov A, # e3h
895f	d5 e0 fd			djnz ACC, $ -03h (895f)
8962	d0 e0   			pop ACC
8964	d5 e0 ef			djnz ACC, $ -11h (8956)
8967	e2      			movx A, @R0
8968	f4      			cpl A
8969	70 a5   			jnz $ -5bh (8910)
896b	08      			inc R0
896c	e2      			movx A, @R0
896d	f4      			cpl A
896e	60 cc   			jz $ -34h (893c)
8970	74 0a   			mov A, # 0ah
8972	c0 e0   			push ACC
8974	74 e6   			mov A, # e6h
8976	d5 e0 fd			djnz ACC, $ -03h (8976)
8979	74 e3   			mov A, # e3h
897b	d5 e0 fd			djnz ACC, $ -03h (897b)
897e	d0 e0   			pop ACC
8980	d5 e0 ef			djnz ACC, $ -11h (8972)
8983	e2      			movx A, @R0
8984	f4      			cpl A
8985	60 b5   			jz $ -4bh (893c)
8987	75 f0 07			mov $ f0, # 07h
898a	80 84   			sjmp $ -7ch (8910)
898c	44	(unknown)  'D'
898d	53	(unknown)  'S'
898e	4d	(unknown)  'M'
898f	2d	(unknown)  '-'
8990	35	(unknown)  '5'
8991	31	(unknown)  '1'
8992	76	(unknown)  'v'
8993	32	(unknown)  '2'
8994	20	(unknown)  ' '
8995	20	(unknown)  ' '
8996	4d	(unknown)  'M'
8997	4f	(unknown)  'O'
8998	44	(unknown)  'D'
8999	45	(unknown)  'E'
899a	20	(unknown)  ' '
899b	30	(unknown)  '0'
899c	3e	(unknown)  '>'
899d	3e	(unknown)  '>'
899e	20	(unknown)  ' '
899f	50	(unknown)  'P'
89a0	43	(unknown)  'C'
89a1	20	(unknown)  ' '
89a2	43	(unknown)  'C'
89a3	4f	(unknown)  'O'
89a4	4e	(unknown)  'N'
89a5	54	(unknown)  'T'
89a6	52	(unknown)  'R'
89a7	4f	(unknown)  'O'
89a8	4c	(unknown)  'L'
89a9	20	(unknown)  ' '
89aa	3c	(unknown)  '<'
89ab	3c	(unknown)  '<'
89ac	00	(unknown)  '.'
89ad	44	(unknown)  'D'
89ae	53	(unknown)  'S'
89af	4d	(unknown)  'M'
89b0	2d	(unknown)  '-'
89b1	35	(unknown)  '5'
89b2	31	(unknown)  '1'
89b3	76	(unknown)  'v'
89b4	32	(unknown)  '2'
89b5	20	(unknown)  ' '
89b6	20	(unknown)  ' '
89b7	4d	(unknown)  'M'
89b8	4f	(unknown)  'O'
89b9	44	(unknown)  'D'
89ba	45	(unknown)  'E'
89bb	20	(unknown)  ' '
89bc	31	(unknown)  '1'
89bd	3e	(unknown)  '>'
89be	3e	(unknown)  '>'
89bf	20	(unknown)  ' '
89c0	53	(unknown)  'S'
89c1	49	(unknown)  'I'
89c2	4d	(unknown)  'M'
89c3	55	(unknown)  'U'
89c4	4c	(unknown)  'L'
89c5	41	(unknown)  'A'
89c6	54	(unknown)  'T'
89c7	4f	(unknown)  'O'
89c8	52	(unknown)  'R'
89c9	20	(unknown)  ' '
89ca	3c	(unknown)  '<'
89cb	3c	(unknown)  '<'
89cc	00	(unknown)  '.'
89cd	52	(unknown)  'R'
89ce	41	(unknown)  'A'
89cf	4d	(unknown)  'M'
89d0	20	(unknown)  ' '
89d1	54	(unknown)  'T'
89d2	45	(unknown)  'E'
89d3	53	(unknown)  'S'
89d4	54	(unknown)  'T'
89d5	20	(unknown)  ' '
89d6	2e	(unknown)  '.'
89d7	2e	(unknown)  '.'
89d8	2e	(unknown)  '.'
89d9	20	(unknown)  ' '
89da	00	(unknown)  '.'
89db	20	(unknown)  ' '
89dc	20	(unknown)  ' '
89dd	20	(unknown)  ' '
89de	52	(unknown)  'R'
89df	41	(unknown)  'A'
89e0	4d	(unknown)  'M'
89e1	20	(unknown)  ' '
89e2	4f	(unknown)  'O'
89e3	4b	(unknown)  'K'
89e4	20	(unknown)  ' '
89e5	21	(unknown)  '!'
89e6	20	(unknown)  ' '
89e7	00	(unknown)  '.'
89e8	20	(unknown)  ' '
89e9	20	(unknown)  ' '
89ea	20	(unknown)  ' '
89eb	52	(unknown)  'R'
89ec	41	(unknown)  'A'
89ed	4d	(unknown)  'M'
89ee	20	(unknown)  ' '
89ef	45	(unknown)  'E'
89f0	52	(unknown)  'R'
89f1	52	(unknown)  'R'
89f2	4f	(unknown)  'O'
89f3	52	(unknown)  'R'
89f4	20	(unknown)  ' '
89f5	21	(unknown)  '!'
89f6	21	(unknown)  '!'
89f7	21	(unknown)  '!'
89f8	20	(unknown)  ' '
89f9	00	(unknown)  '.'
89fa	50	(unknown)  'P'
89fb	52	(unknown)  'R'
89fc	45	(unknown)  'E'
89fd	53	(unknown)  'S'
89fe	53	(unknown)  'S'
89ff	20	(unknown)  ' '
8a00	45	(unknown)  'E'
8a01	4e	(unknown)  'N'
8a02	54	(unknown)  'T'
8a03	45	(unknown)  'E'
8a04	52	(unknown)  'R'
8a05	2e	(unknown)  '.'
8a06	2e	(unknown)  '.'
8a07	2e	(unknown)  '.'
8a08	00	(unknown)  '.'
8a09	44	(unknown)  'D'
8a0a	53	(unknown)  'S'
8a0b	4d	(unknown)  'M'
8a0c	2d	(unknown)  '-'
8a0d	35	(unknown)  '5'
8a0e	31	(unknown)  '1'
8a0f	76	(unknown)  'v'
8a10	32      			reti
8a11	20	(unknown)  ' '
8a12	20	(unknown)  ' '
8a13	4d	(unknown)  'M'
8a14	4f	(unknown)  'O'
8a15	44	(unknown)  'D'
8a16	45	(unknown)  'E'
8a17	20	(unknown)  ' '
8a18	32	(unknown)  '2'
8a19	3e	(unknown)  '>'
8a1a	3e	(unknown)  '>'
8a1b	20	(unknown)  ' '
8a1c	41	(unknown)  'A'
8a1d	53	(unknown)  'S'
8a1e	53	(unknown)  'S'
8a1f	45	(unknown)  'E'
8a20	4d	(unknown)  'M'
8a21	42	(unknown)  'B'
8a22	4c	(unknown)  'L'
8a23	45	(unknown)  'E'
8a24	52	(unknown)  'R'
8a25	20	(unknown)  ' '
8a26	3c	(unknown)  '<'
8a27	3c	(unknown)  '<'
8a28	00	(unknown)  '.'
8a29	50	(unknown)  'P'
8a2a	52	(unknown)  'R'
8a2b	45	(unknown)  'E'
8a2c	53	(unknown)  'S'
8a2d	53	(unknown)  'S'
8a2e	20	(unknown)  ' '
8a2f	4b	(unknown)  'K'
8a30	45	(unknown)  'E'
8a31	59	(unknown)  'Y'
8a32	53	(unknown)  'S'
8a33	20	(unknown)  ' '
8a34	20	(unknown)  ' '
8a35	2e	(unknown)  '.'
8a36	2e	(unknown)  '.'
8a37	2e	(unknown)  '.'
8a38	20	(unknown)  ' '
8a39	00	(unknown)  '.'
8a3a	ff	(unknown)  '.'
8a3b	ff	(unknown)  '.'
8a3c	ff	(unknown)  '.'
8a3d	ff	(unknown)  '.'
8a3e	ff	(unknown)  '.'
8a3f	ff	(unknown)  '.'
8a40	ff	(unknown)  '.'
8a41	ff	(unknown)  '.'
8a42	ff	(unknown)  '.'
8a43	ff	(unknown)  '.'
8a44	ff	(unknown)  '.'
8a45	ff	(unknown)  '.'
8a46	ff	(unknown)  '.'
8a47	ff	(unknown)  '.'
8a48	ff	(unknown)  '.'
8a49	ff	(unknown)  '.'
8a4a	ff	(unknown)  '.'
8a4b	ff	(unknown)  '.'
8a4c	ff	(unknown)  '.'
8a4d	ff	(unknown)  '.'
8a4e	ff	(unknown)  '.'
8a4f	ff	(unknown)  '.'
8a50	ff	(unknown)  '.'
8a51	ff	(unknown)  '.'
8a52	ff	(unknown)  '.'
8a53	ff	(unknown)  '.'
8a54	ff	(unknown)  '.'
8a55	ff	(unknown)  '.'
8a56	ff	(unknown)  '.'
8a57	ff	(unknown)  '.'
8a58	ff	(unknown)  '.'
8a59	ff	(unknown)  '.'
8a5a	ff	(unknown)  '.'
8a5b	ff	(unknown)  '.'
8a5c	ff	(unknown)  '.'
8a5d	ff	(unknown)  '.'
8a5e	ff	(unknown)  '.'
8a5f	ff	(unknown)  '.'
8a60	ff	(unknown)  '.'
8a61	ff	(unknown)  '.'
8a62	ff	(unknown)  '.'
8a63	ff	(unknown)  '.'
8a64	ff	(unknown)  '.'
8a65	ff	(unknown)  '.'
8a66	ff	(unknown)  '.'
8a67	ff	(unknown)  '.'
8a68	ff	(unknown)  '.'
8a69	ff	(unknown)  '.'
8a6a	ff	(unknown)  '.'
8a6b	ff	(unknown)  '.'
8a6c	ff	(unknown)  '.'
8a6d	ff	(unknown)  '.'
8a6e	ff	(unknown)  '.'
8a6f	ff	(unknown)  '.'
8a70	ff	(unknown)  '.'
8a71	ff	(unknown)  '.'
8a72	ff	(unknown)  '.'
8a73	ff	(unknown)  '.'
8a74	ff	(unknown)  '.'
8a75	ff	(unknown)  '.'
8a76	ff	(unknown)  '.'
8a77	ff	(unknown)  '.'
8a78	ff	(unknown)  '.'
8a79	ff	(unknown)  '.'
8a7a	ff	(unknown)  '.'
8a7b	ff	(unknown)  '.'
8a7c	ff	(unknown)  '.'
8a7d	ff	(unknown)  '.'
8a7e	ff	(unknown)  '.'
8a7f	ff	(unknown)  '.'
8a80	ff	(unknown)  '.'
8a81	ff	(unknown)  '.'
8a82	ff	(unknown)  '.'
8a83	ff	(unknown)  '.'
8a84	ff	(unknown)  '.'
8a85	ff	(unknown)  '.'
8a86	ff	(unknown)  '.'
8a87	ff	(unknown)  '.'
8a88	ff	(unknown)  '.'
8a89	ff	(unknown)  '.'
8a8a	ff	(unknown)  '.'
8a8b	ff	(unknown)  '.'
8a8c	ff	(unknown)  '.'
8a8d	ff	(unknown)  '.'
8a8e	ff	(unknown)  '.'
8a8f	ff	(unknown)  '.'
8a90	ff	(unknown)  '.'
8a91	ff	(unknown)  '.'
8a92	ff	(unknown)  '.'
8a93	ff	(unknown)  '.'
8a94	ff	(unknown)  '.'
8a95	ff	(unknown)  '.'
8a96	ff	(unknown)  '.'
8a97	ff	(unknown)  '.'
8a98	ff	(unknown)  '.'
8a99	ff	(unknown)  '.'
8a9a	ff	(unknown)  '.'
8a9b	ff	(unknown)  '.'
8a9c	ff	(unknown)  '.'
8a9d	ff	(unknown)  '.'
8a9e	ff	(unknown)  '.'
8a9f	ff	(unknown)  '.'
8aa0	ff	(unknown)  '.'
8aa1	ff	(unknown)  '.'
8aa2	ff	(unknown)  '.'
8aa3	ff	(unknown)  '.'
8aa4	ff	(unknown)  '.'
8aa5	ff	(unknown)  '.'
8aa6	ff	(unknown)  '.'
8aa7	ff	(unknown)  '.'
8aa8	ff	(unknown)  '.'
8aa9	ff	(unknown)  '.'
8aaa	ff	(unknown)  '.'
8aab	ff	(unknown)  '.'
8aac	ff	(unknown)  '.'
8aad	ff	(unknown)  '.'
8aae	ff	(unknown)  '.'
8aaf	ff	(unknown)  '.'
8ab0	ff	(unknown)  '.'
8ab1	ff	(unknown)  '.'
8ab2	ff	(unknown)  '.'
8ab3	ff	(unknown)  '.'
8ab4	ff	(unknown)  '.'
8ab5	ff	(unknown)  '.'
8ab6	ff	(unknown)  '.'
8ab7	ff	(unknown)  '.'
8ab8	ff	(unknown)  '.'
8ab9	ff	(unknown)  '.'
8aba	ff	(unknown)  '.'
8abb	ff	(unknown)  '.'
8abc	ff	(unknown)  '.'
8abd	ff	(unknown)  '.'
8abe	ff	(unknown)  '.'
8abf	ff	(unknown)  '.'
8ac0	ff	(unknown)  '.'
8ac1	ff	(unknown)  '.'
8ac2	ff	(unknown)  '.'
8ac3	ff	(unknown)  '.'
8ac4	ff	(unknown)  '.'
8ac5	ff	(unknown)  '.'
8ac6	ff	(unknown)  '.'
8ac7	ff	(unknown)  '.'
8ac8	ff	(unknown)  '.'
8ac9	ff	(unknown)  '.'
8aca	ff	(unknown)  '.'
8acb	ff	(unknown)  '.'
8acc	ff	(unknown)  '.'
8acd	ff	(unknown)  '.'
8ace	ff	(unknown)  '.'
8acf	ff	(unknown)  '.'
8ad0	ff	(unknown)  '.'
8ad1	ff	(unknown)  '.'
8ad2	ff	(unknown)  '.'
8ad3	ff	(unknown)  '.'
8ad4	ff	(unknown)  '.'
8ad5	ff	(unknown)  '.'
8ad6	ff	(unknown)  '.'
8ad7	ff	(unknown)  '.'
8ad8	ff	(unknown)  '.'
8ad9	ff	(unknown)  '.'
8ada	ff	(unknown)  '.'
8adb	ff	(unknown)  '.'
8adc	ff	(unknown)  '.'
8add	ff	(unknown)  '.'
8ade	ff	(unknown)  '.'
8adf	ff	(unknown)  '.'
8ae0	ff	(unknown)  '.'
8ae1	ff	(unknown)  '.'
8ae2	ff	(unknown)  '.'
8ae3	ff	(unknown)  '.'
8ae4	ff	(unknown)  '.'
8ae5	ff	(unknown)  '.'
8ae6	ff	(unknown)  '.'
8ae7	ff	(unknown)  '.'
8ae8	ff	(unknown)  '.'
8ae9	ff	(unknown)  '.'
8aea	ff	(unknown)  '.'
8aeb	ff	(unknown)  '.'
8aec	ff	(unknown)  '.'
8aed	ff	(unknown)  '.'
8aee	ff	(unknown)  '.'
8aef	ff	(unknown)  '.'
8af0	ff	(unknown)  '.'
8af1	ff	(unknown)  '.'
8af2	ff	(unknown)  '.'
8af3	ff	(unknown)  '.'
8af4	ff	(unknown)  '.'
8af5	ff	(unknown)  '.'
8af6	ff	(unknown)  '.'
8af7	ff	(unknown)  '.'
8af8	ff	(unknown)  '.'
8af9	ff	(unknown)  '.'
8afa	ff	(unknown)  '.'
8afb	ff	(unknown)  '.'
8afc	ff	(unknown)  '.'
8afd	ff	(unknown)  '.'
8afe	ff	(unknown)  '.'
8aff	ff	(unknown)  '.'
8b00	ff	(unknown)  '.'
8b01	ff	(unknown)  '.'
8b02	ff	(unknown)  '.'
8b03	ff	(unknown)  '.'
8b04	ff	(unknown)  '.'
8b05	ff	(unknown)  '.'
8b06	ff	(unknown)  '.'
8b07	ff	(unknown)  '.'
8b08	ff	(unknown)  '.'
8b09	ff	(unknown)  '.'
8b0a	ff	(unknown)  '.'
8b0b	ff	(unknown)  '.'
8b0c	ff	(unknown)  '.'
8b0d	ff	(unknown)  '.'
8b0e	ff	(unknown)  '.'
8b0f	ff	(unknown)  '.'
8b10	ff	(unknown)  '.'
8b11	ff	(unknown)  '.'
8b12	ff	(unknown)  '.'
8b13	ff	(unknown)  '.'
8b14	ff	(unknown)  '.'
8b15	ff	(unknown)  '.'
8b16	ff	(unknown)  '.'
8b17	ff	(unknown)  '.'
8b18	ff	(unknown)  '.'
8b19	ff	(unknown)  '.'
8b1a	ff	(unknown)  '.'
8b1b	ff	(unknown)  '.'
8b1c	ff	(unknown)  '.'
8b1d	ff	(unknown)  '.'
8b1e	ff	(unknown)  '.'
8b1f	ff	(unknown)  '.'
8b20	ff	(unknown)  '.'
8b21	ff	(unknown)  '.'
8b22	ff	(unknown)  '.'
8b23	ff	(unknown)  '.'
8b24	ff	(unknown)  '.'
8b25	ff	(unknown)  '.'
8b26	ff	(unknown)  '.'
8b27	ff	(unknown)  '.'
8b28	ff	(unknown)  '.'
8b29	ff	(unknown)  '.'
8b2a	ff	(unknown)  '.'
8b2b	ff	(unknown)  '.'
8b2c	ff	(unknown)  '.'
8b2d	ff	(unknown)  '.'
8b2e	ff	(unknown)  '.'
8b2f	ff	(unknown)  '.'
8b30	ff	(unknown)  '.'
8b31	ff	(unknown)  '.'
8b32	ff	(unknown)  '.'
8b33	ff	(unknown)  '.'
8b34	ff	(unknown)  '.'
8b35	ff	(unknown)  '.'
8b36	ff	(unknown)  '.'
8b37	ff	(unknown)  '.'
8b38	ff	(unknown)  '.'
8b39	ff	(unknown)  '.'
8b3a	ff	(unknown)  '.'
8b3b	ff	(unknown)  '.'
8b3c	ff	(unknown)  '.'
8b3d	ff	(unknown)  '.'
8b3e	ff	(unknown)  '.'
8b3f	ff	(unknown)  '.'
8b40	ff	(unknown)  '.'
8b41	ff	(unknown)  '.'
8b42	ff	(unknown)  '.'
8b43	ff	(unknown)  '.'
8b44	ff	(unknown)  '.'
8b45	ff	(unknown)  '.'
8b46	ff	(unknown)  '.'
8b47	ff	(unknown)  '.'
8b48	ff	(unknown)  '.'
8b49	ff	(unknown)  '.'
8b4a	ff	(unknown)  '.'
8b4b	ff	(unknown)  '.'
8b4c	ff	(unknown)  '.'
8b4d	ff	(unknown)  '.'
8b4e	ff	(unknown)  '.'
8b4f	ff	(unknown)  '.'
8b50	ff	(unknown)  '.'
8b51	ff	(unknown)  '.'
8b52	ff	(unknown)  '.'
8b53	ff	(unknown)  '.'
8b54	ff	(unknown)  '.'
8b55	ff	(unknown)  '.'
8b56	ff	(unknown)  '.'
8b57	ff	(unknown)  '.'
8b58	ff	(unknown)  '.'
8b59	ff	(unknown)  '.'
8b5a	ff	(unknown)  '.'
8b5b	ff	(unknown)  '.'
8b5c	ff	(unknown)  '.'
8b5d	ff	(unknown)  '.'
8b5e	ff	(unknown)  '.'
8b5f	ff	(unknown)  '.'
8b60	ff	(unknown)  '.'
8b61	ff	(unknown)  '.'
8b62	ff	(unknown)  '.'
8b63	ff	(unknown)  '.'
8b64	ff	(unknown)  '.'
8b65	ff	(unknown)  '.'
8b66	ff	(unknown)  '.'
8b67	ff	(unknown)  '.'
8b68	ff	(unknown)  '.'
8b69	ff	(unknown)  '.'
8b6a	ff	(unknown)  '.'
8b6b	ff	(unknown)  '.'
8b6c	ff	(unknown)  '.'
8b6d	ff	(unknown)  '.'
8b6e	ff	(unknown)  '.'
8b6f	ff	(unknown)  '.'
8b70	ff	(unknown)  '.'
8b71	ff	(unknown)  '.'
8b72	ff	(unknown)  '.'
8b73	ff	(unknown)  '.'
8b74	ff	(unknown)  '.'
8b75	ff	(unknown)  '.'
8b76	ff	(unknown)  '.'
8b77	ff	(unknown)  '.'
8b78	ff	(unknown)  '.'
8b79	ff	(unknown)  '.'
8b7a	ff	(unknown)  '.'
8b7b	ff	(unknown)  '.'
8b7c	ff	(unknown)  '.'
8b7d	ff	(unknown)  '.'
8b7e	ff	(unknown)  '.'
8b7f	ff	(unknown)  '.'
8b80	ff	(unknown)  '.'
8b81	ff	(unknown)  '.'
8b82	ff	(unknown)  '.'
8b83	ff	(unknown)  '.'
8b84	ff	(unknown)  '.'
8b85	ff	(unknown)  '.'
8b86	ff	(unknown)  '.'
8b87	ff	(unknown)  '.'
8b88	ff	(unknown)  '.'
8b89	ff	(unknown)  '.'
8b8a	ff	(unknown)  '.'
8b8b	ff	(unknown)  '.'
8b8c	ff	(unknown)  '.'
8b8d	ff	(unknown)  '.'
8b8e	ff	(unknown)  '.'
8b8f	ff	(unknown)  '.'
8b90	ff	(unknown)  '.'
8b91	ff	(unknown)  '.'
8b92	ff	(unknown)  '.'
8b93	ff	(unknown)  '.'
8b94	ff	(unknown)  '.'
8b95	ff	(unknown)  '.'
8b96	ff	(unknown)  '.'
8b97	ff	(unknown)  '.'
8b98	ff	(unknown)  '.'
8b99	ff	(unknown)  '.'
8b9a	ff	(unknown)  '.'
8b9b	ff	(unknown)  '.'
8b9c	ff	(unknown)  '.'
8b9d	ff	(unknown)  '.'
8b9e	ff	(unknown)  '.'
8b9f	ff	(unknown)  '.'
8ba0	ff	(unknown)  '.'
8ba1	ff	(unknown)  '.'
8ba2	ff	(unknown)  '.'
8ba3	ff	(unknown)  '.'
8ba4	ff	(unknown)  '.'
8ba5	ff	(unknown)  '.'
8ba6	ff	(unknown)  '.'
8ba7	ff	(unknown)  '.'
8ba8	ff	(unknown)  '.'
8ba9	ff	(unknown)  '.'
8baa	ff	(unknown)  '.'
8bab	ff	(unknown)  '.'
8bac	ff	(unknown)  '.'
8bad	ff	(unknown)  '.'
8bae	ff	(unknown)  '.'
8baf	ff	(unknown)  '.'
8bb0	ff	(unknown)  '.'
8bb1	ff	(unknown)  '.'
8bb2	ff	(unknown)  '.'
8bb3	ff	(unknown)  '.'
8bb4	ff	(unknown)  '.'
8bb5	ff	(unknown)  '.'
8bb6	ff	(unknown)  '.'
8bb7	ff	(unknown)  '.'
8bb8	ff	(unknown)  '.'
8bb9	ff	(unknown)  '.'
8bba	ff	(unknown)  '.'
8bbb	ff	(unknown)  '.'
8bbc	ff	(unknown)  '.'
8bbd	ff	(unknown)  '.'
8bbe	ff	(unknown)  '.'
8bbf	ff	(unknown)  '.'
8bc0	ff	(unknown)  '.'
8bc1	ff	(unknown)  '.'
8bc2	ff	(unknown)  '.'
8bc3	ff	(unknown)  '.'
8bc4	ff	(unknown)  '.'
8bc5	ff	(unknown)  '.'
8bc6	ff	(unknown)  '.'
8bc7	ff	(unknown)  '.'
8bc8	ff	(unknown)  '.'
8bc9	ff	(unknown)  '.'
8bca	ff	(unknown)  '.'
8bcb	ff	(unknown)  '.'
8bcc	ff	(unknown)  '.'
8bcd	ff	(unknown)  '.'
8bce	ff	(unknown)  '.'
8bcf	ff	(unknown)  '.'
8bd0	ff	(unknown)  '.'
8bd1	ff	(unknown)  '.'
8bd2	ff	(unknown)  '.'
8bd3	ff	(unknown)  '.'
8bd4	ff	(unknown)  '.'
8bd5	ff	(unknown)  '.'
8bd6	ff	(unknown)  '.'
8bd7	ff	(unknown)  '.'
8bd8	ff	(unknown)  '.'
8bd9	ff	(unknown)  '.'
8bda	ff	(unknown)  '.'
8bdb	ff	(unknown)  '.'
8bdc	ff	(unknown)  '.'
8bdd	ff	(unknown)  '.'
8bde	ff	(unknown)  '.'
8bdf	ff	(unknown)  '.'
8be0	ff	(unknown)  '.'
8be1	ff	(unknown)  '.'
8be2	ff	(unknown)  '.'
8be3	ff	(unknown)  '.'
8be4	ff	(unknown)  '.'
8be5	ff	(unknown)  '.'
8be6	ff	(unknown)  '.'
8be7	ff	(unknown)  '.'
8be8	ff	(unknown)  '.'
8be9	ff	(unknown)  '.'
8bea	ff	(unknown)  '.'
8beb	ff	(unknown)  '.'
8bec	ff	(unknown)  '.'
8bed	ff	(unknown)  '.'
8bee	ff	(unknown)  '.'
8bef	ff	(unknown)  '.'
8bf0	ff	(unknown)  '.'
8bf1	ff	(unknown)  '.'
8bf2	ff	(unknown)  '.'
8bf3	ff	(unknown)  '.'
8bf4	ff	(unknown)  '.'
8bf5	ff	(unknown)  '.'
8bf6	ff	(unknown)  '.'
8bf7	ff	(unknown)  '.'
8bf8	ff	(unknown)  '.'
8bf9	ff	(unknown)  '.'
8bfa	ff	(unknown)  '.'
8bfb	ff	(unknown)  '.'
8bfc	ff	(unknown)  '.'
8bfd	ff	(unknown)  '.'
8bfe	ff	(unknown)  '.'
8bff	ff	(unknown)  '.'
8c00	ff	(unknown)  '.'
8c01	ff	(unknown)  '.'
8c02	ff	(unknown)  '.'
8c03	ff	(unknown)  '.'
8c04	ff	(unknown)  '.'
8c05	ff	(unknown)  '.'
8c06	ff	(unknown)  '.'
8c07	ff	(unknown)  '.'
8c08	ff	(unknown)  '.'
8c09	ff	(unknown)  '.'
8c0a	ff	(unknown)  '.'
8c0b	ff	(unknown)  '.'
8c0c	ff	(unknown)  '.'
8c0d	ff	(unknown)  '.'
8c0e	ff	(unknown)  '.'
8c0f	ff	(unknown)  '.'
8c10	ff	(unknown)  '.'
8c11	ff	(unknown)  '.'
8c12	ff	(unknown)  '.'
8c13	ff	(unknown)  '.'
8c14	ff	(unknown)  '.'
8c15	ff	(unknown)  '.'
8c16	ff	(unknown)  '.'
8c17	ff	(unknown)  '.'
8c18	ff	(unknown)  '.'
8c19	ff	(unknown)  '.'
8c1a	ff	(unknown)  '.'
8c1b	ff	(unknown)  '.'
8c1c	ff	(unknown)  '.'
8c1d	ff	(unknown)  '.'
8c1e	ff	(unknown)  '.'
8c1f	ff	(unknown)  '.'
8c20	ff	(unknown)  '.'
8c21	ff	(unknown)  '.'
8c22	ff	(unknown)  '.'
8c23	ff	(unknown)  '.'
8c24	ff	(unknown)  '.'
8c25	ff	(unknown)  '.'
8c26	ff	(unknown)  '.'
8c27	ff	(unknown)  '.'
8c28	ff	(unknown)  '.'
8c29	ff	(unknown)  '.'
8c2a	ff	(unknown)  '.'
8c2b	ff	(unknown)  '.'
8c2c	ff	(unknown)  '.'
8c2d	ff	(unknown)  '.'
8c2e	ff	(unknown)  '.'
8c2f	ff	(unknown)  '.'
8c30	ff	(unknown)  '.'
8c31	ff	(unknown)  '.'
8c32	ff	(unknown)  '.'
8c33	ff	(unknown)  '.'
8c34	ff	(unknown)  '.'
8c35	ff	(unknown)  '.'
8c36	ff	(unknown)  '.'
8c37	ff	(unknown)  '.'
8c38	ff	(unknown)  '.'
8c39	ff	(unknown)  '.'
8c3a	ff	(unknown)  '.'
8c3b	ff	(unknown)  '.'
8c3c	ff	(unknown)  '.'
8c3d	ff	(unknown)  '.'
8c3e	ff	(unknown)  '.'
8c3f	ff	(unknown)  '.'
8c40	ff	(unknown)  '.'
8c41	ff	(unknown)  '.'
8c42	ff	(unknown)  '.'
8c43	ff	(unknown)  '.'
8c44	ff	(unknown)  '.'
8c45	ff	(unknown)  '.'
8c46	ff	(unknown)  '.'
8c47	ff	(unknown)  '.'
8c48	ff	(unknown)  '.'
8c49	ff	(unknown)  '.'
8c4a	ff	(unknown)  '.'
8c4b	ff	(unknown)  '.'
8c4c	ff	(unknown)  '.'
8c4d	ff	(unknown)  '.'
8c4e	ff	(unknown)  '.'
8c4f	ff	(unknown)  '.'
8c50	ff	(unknown)  '.'
8c51	ff	(unknown)  '.'
8c52	ff	(unknown)  '.'
8c53	ff	(unknown)  '.'
8c54	ff	(unknown)  '.'
8c55	ff	(unknown)  '.'
8c56	ff	(unknown)  '.'
8c57	ff	(unknown)  '.'
8c58	ff	(unknown)  '.'
8c59	ff	(unknown)  '.'
8c5a	ff	(unknown)  '.'
8c5b	ff	(unknown)  '.'
8c5c	ff	(unknown)  '.'
8c5d	ff	(unknown)  '.'
8c5e	ff	(unknown)  '.'
8c5f	ff	(unknown)  '.'
8c60	ff	(unknown)  '.'
8c61	ff	(unknown)  '.'
8c62	ff	(unknown)  '.'
8c63	ff	(unknown)  '.'
8c64	ff	(unknown)  '.'
8c65	ff	(unknown)  '.'
8c66	ff	(unknown)  '.'
8c67	ff	(unknown)  '.'
8c68	ff	(unknown)  '.'
8c69	ff	(unknown)  '.'
8c6a	ff	(unknown)  '.'
8c6b	ff	(unknown)  '.'
8c6c	ff	(unknown)  '.'
8c6d	ff	(unknown)  '.'
8c6e	ff	(unknown)  '.'
8c6f	ff	(unknown)  '.'
8c70	ff	(unknown)  '.'
8c71	ff	(unknown)  '.'
8c72	ff	(unknown)  '.'
8c73	ff	(unknown)  '.'
8c74	ff	(unknown)  '.'
8c75	ff	(unknown)  '.'
8c76	ff	(unknown)  '.'
8c77	ff	(unknown)  '.'
8c78	ff	(unknown)  '.'
8c79	ff	(unknown)  '.'
8c7a	ff	(unknown)  '.'
8c7b	ff	(unknown)  '.'
8c7c	ff	(unknown)  '.'
8c7d	ff	(unknown)  '.'
8c7e	ff	(unknown)  '.'
8c7f	ff	(unknown)  '.'
8c80	ff	(unknown)  '.'
8c81	ff	(unknown)  '.'
8c82	ff	(unknown)  '.'
8c83	ff	(unknown)  '.'
8c84	ff	(unknown)  '.'
8c85	ff	(unknown)  '.'
8c86	ff	(unknown)  '.'
8c87	ff	(unknown)  '.'
8c88	ff	(unknown)  '.'
8c89	ff	(unknown)  '.'
8c8a	ff	(unknown)  '.'
8c8b	ff	(unknown)  '.'
8c8c	ff	(unknown)  '.'
8c8d	ff	(unknown)  '.'
8c8e	ff	(unknown)  '.'
8c8f	ff	(unknown)  '.'
8c90	ff	(unknown)  '.'
8c91	ff	(unknown)  '.'
8c92	ff	(unknown)  '.'
8c93	ff	(unknown)  '.'
8c94	ff	(unknown)  '.'
8c95	ff	(unknown)  '.'
8c96	ff	(unknown)  '.'
8c97	ff	(unknown)  '.'
8c98	ff	(unknown)  '.'
8c99	ff	(unknown)  '.'
8c9a	ff	(unknown)  '.'
8c9b	ff	(unknown)  '.'
8c9c	ff	(unknown)  '.'
8c9d	ff	(unknown)  '.'
8c9e	ff	(unknown)  '.'
8c9f	ff	(unknown)  '.'
8ca0	ff	(unknown)  '.'
8ca1	ff	(unknown)  '.'
8ca2	ff	(unknown)  '.'
8ca3	ff	(unknown)  '.'
8ca4	ff	(unknown)  '.'
8ca5	ff	(unknown)  '.'
8ca6	ff	(unknown)  '.'
8ca7	ff	(unknown)  '.'
8ca8	ff	(unknown)  '.'
8ca9	ff	(unknown)  '.'
8caa	ff	(unknown)  '.'
8cab	ff	(unknown)  '.'
8cac	ff	(unknown)  '.'
8cad	ff	(unknown)  '.'
8cae	ff	(unknown)  '.'
8caf	ff	(unknown)  '.'
8cb0	ff	(unknown)  '.'
8cb1	ff	(unknown)  '.'
8cb2	ff	(unknown)  '.'
8cb3	ff	(unknown)  '.'
8cb4	ff	(unknown)  '.'
8cb5	ff	(unknown)  '.'
8cb6	ff	(unknown)  '.'
8cb7	ff	(unknown)  '.'
8cb8	ff	(unknown)  '.'
8cb9	ff	(unknown)  '.'
8cba	ff	(unknown)  '.'
8cbb	ff	(unknown)  '.'
8cbc	ff	(unknown)  '.'
8cbd	ff	(unknown)  '.'
8cbe	ff	(unknown)  '.'
8cbf	ff	(unknown)  '.'
8cc0	ff	(unknown)  '.'
8cc1	ff	(unknown)  '.'
8cc2	ff	(unknown)  '.'
8cc3	ff	(unknown)  '.'
8cc4	ff	(unknown)  '.'
8cc5	ff	(unknown)  '.'
8cc6	ff	(unknown)  '.'
8cc7	ff	(unknown)  '.'
8cc8	ff	(unknown)  '.'
8cc9	ff	(unknown)  '.'
8cca	ff	(unknown)  '.'
8ccb	ff	(unknown)  '.'
8ccc	ff	(unknown)  '.'
8ccd	ff	(unknown)  '.'
8cce	ff	(unknown)  '.'
8ccf	ff	(unknown)  '.'
8cd0	ff	(unknown)  '.'
8cd1	ff	(unknown)  '.'
8cd2	ff	(unknown)  '.'
8cd3	ff	(unknown)  '.'
8cd4	ff	(unknown)  '.'
8cd5	ff	(unknown)  '.'
8cd6	ff	(unknown)  '.'
8cd7	ff	(unknown)  '.'
8cd8	ff	(unknown)  '.'
8cd9	ff	(unknown)  '.'
8cda	ff	(unknown)  '.'
8cdb	ff	(unknown)  '.'
8cdc	ff	(unknown)  '.'
8cdd	ff	(unknown)  '.'
8cde	ff	(unknown)  '.'
8cdf	ff	(unknown)  '.'
8ce0	ff	(unknown)  '.'
8ce1	ff	(unknown)  '.'
8ce2	ff	(unknown)  '.'
8ce3	ff	(unknown)  '.'
8ce4	ff	(unknown)  '.'
8ce5	ff	(unknown)  '.'
8ce6	ff	(unknown)  '.'
8ce7	ff	(unknown)  '.'
8ce8	ff	(unknown)  '.'
8ce9	ff	(unknown)  '.'
8cea	ff	(unknown)  '.'
8ceb	ff	(unknown)  '.'
8cec	ff	(unknown)  '.'
8ced	ff	(unknown)  '.'
8cee	ff	(unknown)  '.'
8cef	ff	(unknown)  '.'
8cf0	ff	(unknown)  '.'
8cf1	ff	(unknown)  '.'
8cf2	ff	(unknown)  '.'
8cf3	ff	(unknown)  '.'
8cf4	ff	(unknown)  '.'
8cf5	ff	(unknown)  '.'
8cf6	ff	(unknown)  '.'
8cf7	ff	(unknown)  '.'
8cf8	ff	(unknown)  '.'
8cf9	ff	(unknown)  '.'
8cfa	ff	(unknown)  '.'
8cfb	ff	(unknown)  '.'
8cfc	ff	(unknown)  '.'
8cfd	ff	(unknown)  '.'
8cfe	ff	(unknown)  '.'
8cff	ff	(unknown)  '.'
8d00	ff	(unknown)  '.'
8d01	ff	(unknown)  '.'
8d02	ff	(unknown)  '.'
8d03	ff	(unknown)  '.'
8d04	ff	(unknown)  '.'
8d05	ff	(unknown)  '.'
8d06	ff	(unknown)  '.'
8d07	ff	(unknown)  '.'
8d08	ff	(unknown)  '.'
8d09	ff	(unknown)  '.'
8d0a	ff	(unknown)  '.'
8d0b	ff	(unknown)  '.'
8d0c	ff	(unknown)  '.'
8d0d	ff	(unknown)  '.'
8d0e	ff	(unknown)  '.'
8d0f	ff	(unknown)  '.'
8d10	ff	(unknown)  '.'
8d11	ff	(unknown)  '.'
8d12	ff	(unknown)  '.'
8d13	ff	(unknown)  '.'
8d14	ff	(unknown)  '.'
8d15	ff	(unknown)  '.'
8d16	ff	(unknown)  '.'
8d17	ff	(unknown)  '.'
8d18	ff	(unknown)  '.'
8d19	ff	(unknown)  '.'
8d1a	ff	(unknown)  '.'
8d1b	ff	(unknown)  '.'
8d1c	ff	(unknown)  '.'
8d1d	ff	(unknown)  '.'
8d1e	ff	(unknown)  '.'
8d1f	ff	(unknown)  '.'
8d20	ff	(unknown)  '.'
8d21	ff	(unknown)  '.'
8d22	ff	(unknown)  '.'
8d23	ff	(unknown)  '.'
8d24	ff	(unknown)  '.'
8d25	ff	(unknown)  '.'
8d26	ff	(unknown)  '.'
8d27	ff	(unknown)  '.'
8d28	ff	(unknown)  '.'
8d29	ff	(unknown)  '.'
8d2a	ff	(unknown)  '.'
8d2b	ff	(unknown)  '.'
8d2c	ff	(unknown)  '.'
8d2d	ff	(unknown)  '.'
8d2e	ff	(unknown)  '.'
8d2f	ff	(unknown)  '.'
8d30	ff	(unknown)  '.'
8d31	ff	(unknown)  '.'
8d32	ff	(unknown)  '.'
8d33	ff	(unknown)  '.'
8d34	ff	(unknown)  '.'
8d35	ff	(unknown)  '.'
8d36	ff	(unknown)  '.'
8d37	ff	(unknown)  '.'
8d38	ff	(unknown)  '.'
8d39	ff	(unknown)  '.'
8d3a	ff	(unknown)  '.'
8d3b	ff	(unknown)  '.'
8d3c	ff	(unknown)  '.'
8d3d	ff	(unknown)  '.'
8d3e	ff	(unknown)  '.'
8d3f	ff	(unknown)  '.'
8d40	ff	(unknown)  '.'
8d41	ff	(unknown)  '.'
8d42	ff	(unknown)  '.'
8d43	ff	(unknown)  '.'
8d44	ff	(unknown)  '.'
8d45	ff	(unknown)  '.'
8d46	ff	(unknown)  '.'
8d47	ff	(unknown)  '.'
8d48	ff	(unknown)  '.'
8d49	ff	(unknown)  '.'
8d4a	ff	(unknown)  '.'
8d4b	ff	(unknown)  '.'
8d4c	ff	(unknown)  '.'
8d4d	ff	(unknown)  '.'
8d4e	ff	(unknown)  '.'
8d4f	ff	(unknown)  '.'
8d50	ff	(unknown)  '.'
8d51	ff	(unknown)  '.'
8d52	ff	(unknown)  '.'
8d53	ff	(unknown)  '.'
8d54	ff	(unknown)  '.'
8d55	ff	(unknown)  '.'
8d56	ff	(unknown)  '.'
8d57	ff	(unknown)  '.'
8d58	ff	(unknown)  '.'
8d59	ff	(unknown)  '.'
8d5a	ff	(unknown)  '.'
8d5b	ff	(unknown)  '.'
8d5c	ff	(unknown)  '.'
8d5d	ff	(unknown)  '.'
8d5e	ff	(unknown)  '.'
8d5f	ff	(unknown)  '.'
8d60	ff	(unknown)  '.'
8d61	ff	(unknown)  '.'
8d62	ff	(unknown)  '.'
8d63	ff	(unknown)  '.'
8d64	ff	(unknown)  '.'
8d65	ff	(unknown)  '.'
8d66	ff	(unknown)  '.'
8d67	ff	(unknown)  '.'
8d68	ff	(unknown)  '.'
8d69	ff	(unknown)  '.'
8d6a	ff	(unknown)  '.'
8d6b	ff	(unknown)  '.'
8d6c	ff	(unknown)  '.'
8d6d	ff	(unknown)  '.'
8d6e	ff	(unknown)  '.'
8d6f	ff	(unknown)  '.'
8d70	ff	(unknown)  '.'
8d71	ff	(unknown)  '.'
8d72	ff	(unknown)  '.'
8d73	ff	(unknown)  '.'
8d74	ff	(unknown)  '.'
8d75	ff	(unknown)  '.'
8d76	ff	(unknown)  '.'
8d77	ff	(unknown)  '.'
8d78	ff	(unknown)  '.'
8d79	ff	(unknown)  '.'
8d7a	ff	(unknown)  '.'
8d7b	ff	(unknown)  '.'
8d7c	ff	(unknown)  '.'
8d7d	ff	(unknown)  '.'
8d7e	ff	(unknown)  '.'
8d7f	ff	(unknown)  '.'
8d80	ff	(unknown)  '.'
8d81	ff	(unknown)  '.'
8d82	ff	(unknown)  '.'
8d83	ff	(unknown)  '.'
8d84	ff	(unknown)  '.'
8d85	ff	(unknown)  '.'
8d86	ff	(unknown)  '.'
8d87	ff	(unknown)  '.'
8d88	ff	(unknown)  '.'
8d89	ff	(unknown)  '.'
8d8a	ff	(unknown)  '.'
8d8b	ff	(unknown)  '.'
8d8c	ff	(unknown)  '.'
8d8d	ff	(unknown)  '.'
8d8e	ff	(unknown)  '.'
8d8f	ff	(unknown)  '.'
8d90	ff	(unknown)  '.'
8d91	ff	(unknown)  '.'
8d92	ff	(unknown)  '.'
8d93	ff	(unknown)  '.'
8d94	ff	(unknown)  '.'
8d95	ff	(unknown)  '.'
8d96	ff	(unknown)  '.'
8d97	ff	(unknown)  '.'
8d98	ff	(unknown)  '.'
8d99	ff	(unknown)  '.'
8d9a	ff	(unknown)  '.'
8d9b	ff	(unknown)  '.'
8d9c	ff	(unknown)  '.'
8d9d	ff	(unknown)  '.'
8d9e	ff	(unknown)  '.'
8d9f	ff	(unknown)  '.'
8da0	ff	(unknown)  '.'
8da1	ff	(unknown)  '.'
8da2	ff	(unknown)  '.'
8da3	ff	(unknown)  '.'
8da4	ff	(unknown)  '.'
8da5	ff	(unknown)  '.'
8da6	ff	(unknown)  '.'
8da7	ff	(unknown)  '.'
8da8	ff	(unknown)  '.'
8da9	ff	(unknown)  '.'
8daa	ff	(unknown)  '.'
8dab	ff	(unknown)  '.'
8dac	ff	(unknown)  '.'
8dad	ff	(unknown)  '.'
8dae	ff	(unknown)  '.'
8daf	ff	(unknown)  '.'
8db0	ff	(unknown)  '.'
8db1	ff	(unknown)  '.'
8db2	ff	(unknown)  '.'
8db3	ff	(unknown)  '.'
8db4	ff	(unknown)  '.'
8db5	ff	(unknown)  '.'
8db6	ff	(unknown)  '.'
8db7	ff	(unknown)  '.'
8db8	ff	(unknown)  '.'
8db9	ff	(unknown)  '.'
8dba	ff	(unknown)  '.'
8dbb	ff	(unknown)  '.'
8dbc	ff	(unknown)  '.'
8dbd	ff	(unknown)  '.'
8dbe	ff	(unknown)  '.'
8dbf	ff	(unknown)  '.'
8dc0	ff	(unknown)  '.'
8dc1	ff	(unknown)  '.'
8dc2	ff	(unknown)  '.'
8dc3	ff	(unknown)  '.'
8dc4	ff	(unknown)  '.'
8dc5	ff	(unknown)  '.'
8dc6	ff	(unknown)  '.'
8dc7	ff	(unknown)  '.'
8dc8	ff	(unknown)  '.'
8dc9	ff	(unknown)  '.'
8dca	ff	(unknown)  '.'
8dcb	ff	(unknown)  '.'
8dcc	ff	(unknown)  '.'
8dcd	ff	(unknown)  '.'
8dce	ff	(unknown)  '.'
8dcf	ff	(unknown)  '.'
8dd0	ff	(unknown)  '.'
8dd1	ff	(unknown)  '.'
8dd2	ff	(unknown)  '.'
8dd3	ff	(unknown)  '.'
8dd4	ff	(unknown)  '.'
8dd5	ff	(unknown)  '.'
8dd6	ff	(unknown)  '.'
8dd7	ff	(unknown)  '.'
8dd8	ff	(unknown)  '.'
8dd9	ff	(unknown)  '.'
8dda	ff	(unknown)  '.'
8ddb	ff	(unknown)  '.'
8ddc	ff	(unknown)  '.'
8ddd	ff	(unknown)  '.'
8dde	ff	(unknown)  '.'
8ddf	ff	(unknown)  '.'
8de0	ff	(unknown)  '.'
8de1	ff	(unknown)  '.'
8de2	ff	(unknown)  '.'
8de3	ff	(unknown)  '.'
8de4	ff	(unknown)  '.'
8de5	ff	(unknown)  '.'
8de6	ff	(unknown)  '.'
8de7	ff	(unknown)  '.'
8de8	ff	(unknown)  '.'
8de9	ff	(unknown)  '.'
8dea	ff	(unknown)  '.'
8deb	ff	(unknown)  '.'
8dec	ff	(unknown)  '.'
8ded	ff	(unknown)  '.'
8dee	ff	(unknown)  '.'
8def	ff	(unknown)  '.'
8df0	ff	(unknown)  '.'
8df1	ff	(unknown)  '.'
8df2	ff	(unknown)  '.'
8df3	ff	(unknown)  '.'
8df4	ff	(unknown)  '.'
8df5	ff	(unknown)  '.'
8df6	ff	(unknown)  '.'
8df7	ff	(unknown)  '.'
8df8	ff	(unknown)  '.'
8df9	ff	(unknown)  '.'
8dfa	ff	(unknown)  '.'
8dfb	ff	(unknown)  '.'
8dfc	ff	(unknown)  '.'
8dfd	ff	(unknown)  '.'
8dfe	ff	(unknown)  '.'
8dff	ff	(unknown)  '.'
8e00	ff	(unknown)  '.'
8e01	ff	(unknown)  '.'
8e02	ff	(unknown)  '.'
8e03	ff	(unknown)  '.'
8e04	ff	(unknown)  '.'
8e05	ff	(unknown)  '.'
8e06	ff	(unknown)  '.'
8e07	ff	(unknown)  '.'
8e08	ff	(unknown)  '.'
8e09	ff	(unknown)  '.'
8e0a	ff	(unknown)  '.'
8e0b	ff	(unknown)  '.'
8e0c	ff	(unknown)  '.'
8e0d	ff	(unknown)  '.'
8e0e	ff	(unknown)  '.'
8e0f	ff	(unknown)  '.'
8e10	ff	(unknown)  '.'
8e11	ff	(unknown)  '.'
8e12	ff	(unknown)  '.'
8e13	ff	(unknown)  '.'
8e14	ff	(unknown)  '.'
8e15	ff	(unknown)  '.'
8e16	ff	(unknown)  '.'
8e17	ff	(unknown)  '.'
8e18	ff	(unknown)  '.'
8e19	ff	(unknown)  '.'
8e1a	ff	(unknown)  '.'
8e1b	ff	(unknown)  '.'
8e1c	ff	(unknown)  '.'
8e1d	ff	(unknown)  '.'
8e1e	ff	(unknown)  '.'
8e1f	ff	(unknown)  '.'
8e20	ff	(unknown)  '.'
8e21	ff	(unknown)  '.'
8e22	ff	(unknown)  '.'
8e23	ff	(unknown)  '.'
8e24	ff	(unknown)  '.'
8e25	ff	(unknown)  '.'
8e26	ff	(unknown)  '.'
8e27	ff	(unknown)  '.'
8e28	ff	(unknown)  '.'
8e29	ff	(unknown)  '.'
8e2a	ff	(unknown)  '.'
8e2b	ff	(unknown)  '.'
8e2c	ff	(unknown)  '.'
8e2d	ff	(unknown)  '.'
8e2e	ff	(unknown)  '.'
8e2f	ff	(unknown)  '.'
8e30	ff	(unknown)  '.'
8e31	ff	(unknown)  '.'
8e32	ff	(unknown)  '.'
8e33	ff	(unknown)  '.'
8e34	ff	(unknown)  '.'
8e35	ff	(unknown)  '.'
8e36	ff	(unknown)  '.'
8e37	ff	(unknown)  '.'
8e38	ff	(unknown)  '.'
8e39	ff	(unknown)  '.'
8e3a	ff	(unknown)  '.'
8e3b	ff	(unknown)  '.'
8e3c	ff	(unknown)  '.'
8e3d	ff	(unknown)  '.'
8e3e	ff	(unknown)  '.'
8e3f	ff	(unknown)  '.'
8e40	ff	(unknown)  '.'
8e41	ff	(unknown)  '.'
8e42	ff	(unknown)  '.'
8e43	ff	(unknown)  '.'
8e44	ff	(unknown)  '.'
8e45	ff	(unknown)  '.'
8e46	ff	(unknown)  '.'
8e47	ff	(unknown)  '.'
8e48	ff	(unknown)  '.'
8e49	ff	(unknown)  '.'
8e4a	ff	(unknown)  '.'
8e4b	ff	(unknown)  '.'
8e4c	ff	(unknown)  '.'
8e4d	ff	(unknown)  '.'
8e4e	ff	(unknown)  '.'
8e4f	ff	(unknown)  '.'
8e50	ff	(unknown)  '.'
8e51	ff	(unknown)  '.'
8e52	ff	(unknown)  '.'
8e53	ff	(unknown)  '.'
8e54	ff	(unknown)  '.'
8e55	ff	(unknown)  '.'
8e56	ff	(unknown)  '.'
8e57	ff	(unknown)  '.'
8e58	ff	(unknown)  '.'
8e59	ff	(unknown)  '.'
8e5a	ff	(unknown)  '.'
8e5b	ff	(unknown)  '.'
8e5c	ff	(unknown)  '.'
8e5d	ff	(unknown)  '.'
8e5e	ff	(unknown)  '.'
8e5f	ff	(unknown)  '.'
8e60	ff	(unknown)  '.'
8e61	ff	(unknown)  '.'
8e62	ff	(unknown)  '.'
8e63	ff	(unknown)  '.'
8e64	ff	(unknown)  '.'
8e65	ff	(unknown)  '.'
8e66	ff	(unknown)  '.'
8e67	ff	(unknown)  '.'
8e68	ff	(unknown)  '.'
8e69	ff	(unknown)  '.'
8e6a	ff	(unknown)  '.'
8e6b	ff	(unknown)  '.'
8e6c	ff	(unknown)  '.'
8e6d	ff	(unknown)  '.'
8e6e	ff	(unknown)  '.'
8e6f	ff	(unknown)  '.'
8e70	ff	(unknown)  '.'
8e71	ff	(unknown)  '.'
8e72	ff	(unknown)  '.'
8e73	ff	(unknown)  '.'
8e74	ff	(unknown)  '.'
8e75	ff	(unknown)  '.'
8e76	ff	(unknown)  '.'
8e77	ff	(unknown)  '.'
8e78	ff	(unknown)  '.'
8e79	ff	(unknown)  '.'
8e7a	ff	(unknown)  '.'
8e7b	ff	(unknown)  '.'
8e7c	ff	(unknown)  '.'
8e7d	ff	(unknown)  '.'
8e7e	ff	(unknown)  '.'
8e7f	ff	(unknown)  '.'
8e80	ff	(unknown)  '.'
8e81	ff	(unknown)  '.'
8e82	ff	(unknown)  '.'
8e83	ff	(unknown)  '.'
8e84	ff	(unknown)  '.'
8e85	ff	(unknown)  '.'
8e86	ff	(unknown)  '.'
8e87	ff	(unknown)  '.'
8e88	ff	(unknown)  '.'
8e89	ff	(unknown)  '.'
8e8a	ff	(unknown)  '.'
8e8b	ff	(unknown)  '.'
8e8c	ff	(unknown)  '.'
8e8d	ff	(unknown)  '.'
8e8e	ff	(unknown)  '.'
8e8f	ff	(unknown)  '.'
8e90	ff	(unknown)  '.'
8e91	ff	(unknown)  '.'
8e92	ff	(unknown)  '.'
8e93	ff	(unknown)  '.'
8e94	ff	(unknown)  '.'
8e95	ff	(unknown)  '.'
8e96	ff	(unknown)  '.'
8e97	ff	(unknown)  '.'
8e98	ff	(unknown)  '.'
8e99	ff	(unknown)  '.'
8e9a	ff	(unknown)  '.'
8e9b	ff	(unknown)  '.'
8e9c	ff	(unknown)  '.'
8e9d	ff	(unknown)  '.'
8e9e	ff	(unknown)  '.'
8e9f	ff	(unknown)  '.'
8ea0	ff	(unknown)  '.'
8ea1	ff	(unknown)  '.'
8ea2	ff	(unknown)  '.'
8ea3	ff	(unknown)  '.'
8ea4	ff	(unknown)  '.'
8ea5	ff	(unknown)  '.'
8ea6	ff	(unknown)  '.'
8ea7	ff	(unknown)  '.'
8ea8	ff	(unknown)  '.'
8ea9	ff	(unknown)  '.'
8eaa	ff	(unknown)  '.'
8eab	ff	(unknown)  '.'
8eac	ff	(unknown)  '.'
8ead	ff	(unknown)  '.'
8eae	ff	(unknown)  '.'
8eaf	ff	(unknown)  '.'
8eb0	ff	(unknown)  '.'
8eb1	ff	(unknown)  '.'
8eb2	ff	(unknown)  '.'
8eb3	ff	(unknown)  '.'
8eb4	ff	(unknown)  '.'
8eb5	ff	(unknown)  '.'
8eb6	ff	(unknown)  '.'
8eb7	ff	(unknown)  '.'
8eb8	ff	(unknown)  '.'
8eb9	ff	(unknown)  '.'
8eba	ff	(unknown)  '.'
8ebb	ff	(unknown)  '.'
8ebc	ff	(unknown)  '.'
8ebd	ff	(unknown)  '.'
8ebe	ff	(unknown)  '.'
8ebf	ff	(unknown)  '.'
8ec0	ff	(unknown)  '.'
8ec1	ff	(unknown)  '.'
8ec2	ff	(unknown)  '.'
8ec3	ff	(unknown)  '.'
8ec4	ff	(unknown)  '.'
8ec5	ff	(unknown)  '.'
8ec6	ff	(unknown)  '.'
8ec7	ff	(unknown)  '.'
8ec8	ff	(unknown)  '.'
8ec9	ff	(unknown)  '.'
8eca	ff	(unknown)  '.'
8ecb	ff	(unknown)  '.'
8ecc	ff	(unknown)  '.'
8ecd	ff	(unknown)  '.'
8ece	ff	(unknown)  '.'
8ecf	ff	(unknown)  '.'
8ed0	ff	(unknown)  '.'
8ed1	ff	(unknown)  '.'
8ed2	ff	(unknown)  '.'
8ed3	ff	(unknown)  '.'
8ed4	ff	(unknown)  '.'
8ed5	ff	(unknown)  '.'
8ed6	ff	(unknown)  '.'
8ed7	ff	(unknown)  '.'
8ed8	ff	(unknown)  '.'
8ed9	ff	(unknown)  '.'
8eda	ff	(unknown)  '.'
8edb	ff	(unknown)  '.'
8edc	ff	(unknown)  '.'
8edd	ff	(unknown)  '.'
8ede	ff	(unknown)  '.'
8edf	ff	(unknown)  '.'
8ee0	ff	(unknown)  '.'
8ee1	ff	(unknown)  '.'
8ee2	ff	(unknown)  '.'
8ee3	ff	(unknown)  '.'
8ee4	ff	(unknown)  '.'
8ee5	ff	(unknown)  '.'
8ee6	ff	(unknown)  '.'
8ee7	ff	(unknown)  '.'
8ee8	ff	(unknown)  '.'
8ee9	ff	(unknown)  '.'
8eea	ff	(unknown)  '.'
8eeb	ff	(unknown)  '.'
8eec	ff	(unknown)  '.'
8eed	ff	(unknown)  '.'
8eee	ff	(unknown)  '.'
8eef	ff	(unknown)  '.'
8ef0	ff	(unknown)  '.'
8ef1	ff	(unknown)  '.'
8ef2	ff	(unknown)  '.'
8ef3	ff	(unknown)  '.'
8ef4	ff	(unknown)  '.'
8ef5	ff	(unknown)  '.'
8ef6	ff	(unknown)  '.'
8ef7	ff	(unknown)  '.'
8ef8	ff	(unknown)  '.'
8ef9	ff	(unknown)  '.'
8efa	ff	(unknown)  '.'
8efb	ff	(unknown)  '.'
8efc	ff	(unknown)  '.'
8efd	ff	(unknown)  '.'
8efe	ff	(unknown)  '.'
8eff	ff	(unknown)  '.'
8f00	ff	(unknown)  '.'
8f01	ff	(unknown)  '.'
8f02	ff	(unknown)  '.'
8f03	ff	(unknown)  '.'
8f04	ff	(unknown)  '.'
8f05	ff	(unknown)  '.'
8f06	ff	(unknown)  '.'
8f07	ff	(unknown)  '.'
8f08	ff	(unknown)  '.'
8f09	ff	(unknown)  '.'
8f0a	ff	(unknown)  '.'
8f0b	ff	(unknown)  '.'
8f0c	ff	(unknown)  '.'
8f0d	ff	(unknown)  '.'
8f0e	ff	(unknown)  '.'
8f0f	ff	(unknown)  '.'
8f10	ff	(unknown)  '.'
8f11	ff	(unknown)  '.'
8f12	ff	(unknown)  '.'
8f13	ff	(unknown)  '.'
8f14	ff	(unknown)  '.'
8f15	ff	(unknown)  '.'
8f16	ff	(unknown)  '.'
8f17	ff	(unknown)  '.'
8f18	ff	(unknown)  '.'
8f19	ff	(unknown)  '.'
8f1a	ff	(unknown)  '.'
8f1b	ff	(unknown)  '.'
8f1c	ff	(unknown)  '.'
8f1d	ff	(unknown)  '.'
8f1e	ff	(unknown)  '.'
8f1f	ff	(unknown)  '.'
8f20	ff	(unknown)  '.'
8f21	ff	(unknown)  '.'
8f22	ff	(unknown)  '.'
8f23	ff	(unknown)  '.'
8f24	ff	(unknown)  '.'
8f25	ff	(unknown)  '.'
8f26	ff	(unknown)  '.'
8f27	ff	(unknown)  '.'
8f28	ff	(unknown)  '.'
8f29	ff	(unknown)  '.'
8f2a	ff	(unknown)  '.'
8f2b	ff	(unknown)  '.'
8f2c	ff	(unknown)  '.'
8f2d	ff	(unknown)  '.'
8f2e	ff	(unknown)  '.'
8f2f	ff	(unknown)  '.'
8f30	ff	(unknown)  '.'
8f31	ff	(unknown)  '.'
8f32	ff	(unknown)  '.'
8f33	ff	(unknown)  '.'
8f34	ff	(unknown)  '.'
8f35	ff	(unknown)  '.'
8f36	ff	(unknown)  '.'
8f37	ff	(unknown)  '.'
8f38	ff	(unknown)  '.'
8f39	ff	(unknown)  '.'
8f3a	ff	(unknown)  '.'
8f3b	ff	(unknown)  '.'
8f3c	ff	(unknown)  '.'
8f3d	ff	(unknown)  '.'
8f3e	ff	(unknown)  '.'
8f3f	ff	(unknown)  '.'
8f40	ff	(unknown)  '.'
8f41	ff	(unknown)  '.'
8f42	ff	(unknown)  '.'
8f43	ff	(unknown)  '.'
8f44	ff	(unknown)  '.'
8f45	ff	(unknown)  '.'
8f46	ff	(unknown)  '.'
8f47	ff	(unknown)  '.'
8f48	ff	(unknown)  '.'
8f49	ff	(unknown)  '.'
8f4a	ff	(unknown)  '.'
8f4b	ff	(unknown)  '.'
8f4c	ff	(unknown)  '.'
8f4d	ff	(unknown)  '.'
8f4e	ff	(unknown)  '.'
8f4f	ff	(unknown)  '.'
8f50	ff	(unknown)  '.'
8f51	ff	(unknown)  '.'
8f52	ff	(unknown)  '.'
8f53	ff	(unknown)  '.'
8f54	ff	(unknown)  '.'
8f55	ff	(unknown)  '.'
8f56	ff	(unknown)  '.'
8f57	ff	(unknown)  '.'
8f58	ff	(unknown)  '.'
8f59	ff	(unknown)  '.'
8f5a	ff	(unknown)  '.'
8f5b	ff	(unknown)  '.'
8f5c	ff	(unknown)  '.'
8f5d	ff	(unknown)  '.'
8f5e	ff	(unknown)  '.'
8f5f	ff	(unknown)  '.'
8f60	ff	(unknown)  '.'
8f61	ff	(unknown)  '.'
8f62	ff	(unknown)  '.'
8f63	ff	(unknown)  '.'
8f64	ff	(unknown)  '.'
8f65	ff	(unknown)  '.'
8f66	ff	(unknown)  '.'
8f67	ff	(unknown)  '.'
8f68	ff	(unknown)  '.'
8f69	ff	(unknown)  '.'
8f6a	ff	(unknown)  '.'
8f6b	ff	(unknown)  '.'
8f6c	ff	(unknown)  '.'
8f6d	ff	(unknown)  '.'
8f6e	ff	(unknown)  '.'
8f6f	ff	(unknown)  '.'
8f70	ff	(unknown)  '.'
8f71	ff	(unknown)  '.'
8f72	ff	(unknown)  '.'
8f73	ff	(unknown)  '.'
8f74	ff	(unknown)  '.'
8f75	ff	(unknown)  '.'
8f76	ff	(unknown)  '.'
8f77	ff	(unknown)  '.'
8f78	ff	(unknown)  '.'
8f79	ff	(unknown)  '.'
8f7a	ff	(unknown)  '.'
8f7b	ff	(unknown)  '.'
8f7c	ff	(unknown)  '.'
8f7d	ff	(unknown)  '.'
8f7e	ff	(unknown)  '.'
8f7f	ff	(unknown)  '.'
8f80	ff	(unknown)  '.'
8f81	ff	(unknown)  '.'
8f82	ff	(unknown)  '.'
8f83	ff	(unknown)  '.'
8f84	ff	(unknown)  '.'
8f85	ff	(unknown)  '.'
8f86	ff	(unknown)  '.'
8f87	ff	(unknown)  '.'
8f88	ff	(unknown)  '.'
8f89	ff	(unknown)  '.'
8f8a	ff	(unknown)  '.'
8f8b	ff	(unknown)  '.'
8f8c	ff	(unknown)  '.'
8f8d	ff	(unknown)  '.'
8f8e	ff	(unknown)  '.'
8f8f	ff	(unknown)  '.'
8f90	ff	(unknown)  '.'
8f91	ff	(unknown)  '.'
8f92	ff	(unknown)  '.'
8f93	ff	(unknown)  '.'
8f94	ff	(unknown)  '.'
8f95	ff	(unknown)  '.'
8f96	ff	(unknown)  '.'
8f97	ff	(unknown)  '.'
8f98	ff	(unknown)  '.'
8f99	ff	(unknown)  '.'
8f9a	ff	(unknown)  '.'
8f9b	ff	(unknown)  '.'
8f9c	ff	(unknown)  '.'
8f9d	ff	(unknown)  '.'
8f9e	ff	(unknown)  '.'
8f9f	ff	(unknown)  '.'
8fa0	ff	(unknown)  '.'
8fa1	ff	(unknown)  '.'
8fa2	ff	(unknown)  '.'
8fa3	ff	(unknown)  '.'
8fa4	ff	(unknown)  '.'
8fa5	ff	(unknown)  '.'
8fa6	ff	(unknown)  '.'
8fa7	ff	(unknown)  '.'
8fa8	ff	(unknown)  '.'
8fa9	ff	(unknown)  '.'
8faa	ff	(unknown)  '.'
8fab	ff	(unknown)  '.'
8fac	ff	(unknown)  '.'
8fad	ff	(unknown)  '.'
8fae	ff	(unknown)  '.'
8faf	ff	(unknown)  '.'
8fb0	ff	(unknown)  '.'
8fb1	ff	(unknown)  '.'
8fb2	ff	(unknown)  '.'
8fb3	ff	(unknown)  '.'
8fb4	ff	(unknown)  '.'
8fb5	ff	(unknown)  '.'
8fb6	ff	(unknown)  '.'
8fb7	ff	(unknown)  '.'
8fb8	ff	(unknown)  '.'
8fb9	ff	(unknown)  '.'
8fba	ff	(unknown)  '.'
8fbb	ff	(unknown)  '.'
8fbc	ff	(unknown)  '.'
8fbd	ff	(unknown)  '.'
8fbe	ff	(unknown)  '.'
8fbf	ff	(unknown)  '.'
8fc0	ff	(unknown)  '.'
8fc1	ff	(unknown)  '.'
8fc2	ff	(unknown)  '.'
8fc3	ff	(unknown)  '.'
8fc4	ff	(unknown)  '.'
8fc5	ff	(unknown)  '.'
8fc6	ff	(unknown)  '.'
8fc7	ff	(unknown)  '.'
8fc8	ff	(unknown)  '.'
8fc9	ff	(unknown)  '.'
8fca	ff	(unknown)  '.'
8fcb	ff	(unknown)  '.'
8fcc	ff	(unknown)  '.'
8fcd	ff	(unknown)  '.'
8fce	ff	(unknown)  '.'
8fcf	ff	(unknown)  '.'
8fd0	ff	(unknown)  '.'
8fd1	ff	(unknown)  '.'
8fd2	ff	(unknown)  '.'
8fd3	ff	(unknown)  '.'
8fd4	ff	(unknown)  '.'
8fd5	ff	(unknown)  '.'
8fd6	ff	(unknown)  '.'
8fd7	ff	(unknown)  '.'
8fd8	ff	(unknown)  '.'
8fd9	ff	(unknown)  '.'
8fda	ff	(unknown)  '.'
8fdb	ff	(unknown)  '.'
8fdc	ff	(unknown)  '.'
8fdd	ff	(unknown)  '.'
8fde	ff	(unknown)  '.'
8fdf	ff	(unknown)  '.'
8fe0	ff	(unknown)  '.'
8fe1	ff	(unknown)  '.'
8fe2	ff	(unknown)  '.'
8fe3	ff	(unknown)  '.'
8fe4	ff	(unknown)  '.'
8fe5	ff	(unknown)  '.'
8fe6	ff	(unknown)  '.'
8fe7	ff	(unknown)  '.'
8fe8	ff	(unknown)  '.'
8fe9	ff	(unknown)  '.'
8fea	ff	(unknown)  '.'
8feb	ff	(unknown)  '.'
8fec	ff	(unknown)  '.'
8fed	ff	(unknown)  '.'
8fee	ff	(unknown)  '.'
8fef	ff	(unknown)  '.'
8ff0	ff	(unknown)  '.'
8ff1	ff	(unknown)  '.'
8ff2	ff	(unknown)  '.'
8ff3	ff	(unknown)  '.'
8ff4	ff	(unknown)  '.'
8ff5	ff	(unknown)  '.'
8ff6	ff	(unknown)  '.'
8ff7	ff	(unknown)  '.'
8ff8	ff	(unknown)  '.'
8ff9	ff	(unknown)  '.'
8ffa	ff	(unknown)  '.'
8ffb	ff	(unknown)  '.'
8ffc	ff	(unknown)  '.'
8ffd	ff	(unknown)  '.'
8ffe	ff	(unknown)  '.'
8fff	ff	(unknown)  '.'
9000	02 90 31			ljmp $ 9031h
9003	c0	(unknown)  '.'
9004	e0	(unknown)  '.'
9005	c0	(unknown)  '.'
9006	d0	(unknown)  '.'
9007	d2	(unknown)  '.'
9008	d3	(unknown)  '.'
9009	c2	(unknown)  '.'
900a	d4	(unknown)  '.'
900b	da	(unknown)  '.'
900c	13	(unknown)  '.'
900d	eb	(unknown)  '.'
900e	03	(unknown)  '.'
900f	03	(unknown)  '.'
9010	14	(unknown)  '.'
9011	fa	(unknown)  '.'
9012	74	(unknown)  't'
9013	10	(unknown)  '.'
9014	12	(unknown)  '.'
9015	81	(unknown)  '.'
9016	06	(unknown)  '.'
9017	da	(unknown)  '.'
9018	f9	(unknown)  '.'
9019	eb	(unknown)  '.'
901a	fa	(unknown)  '.'
901b	d0	(unknown)  '.'
901c	d0	(unknown)  '.'
901d	d0	(unknown)  '.'
901e	e0	(unknown)  '.'
901f	32	(unknown)  '2'
9020	ea	(unknown)  '.'
9021	20	(unknown)  ' '
9022	e1	(unknown)  '.'
9023	08	(unknown)  '.'
9024	20	(unknown)  ' '
9025	e0	(unknown)  '.'
9026	05	(unknown)  '.'
9027	74	(unknown)  't'
9028	14	(unknown)  '.'
9029	12	(unknown)  '.'
902a	81	(unknown)  '.'
902b	06	(unknown)  '.'
902c	d0	(unknown)  '.'
902d	d0	(unknown)  '.'
902e	d0	(unknown)  '.'
902f	e0	(unknown)  '.'
9030	32	(unknown)  '2'
9031	75 3a 00			mov $ 3a, # 00h
9034	75 38 00			mov $ 38, # 00h
9037	90 78 00			mov DPTR, # 7800 (30720)
903a	74 6e   			mov A, # 6eh
903c	f0      			movx @DPTR, A
903d	c2 af   			clr EA
903f	75 81 60			mov SP, # 60h
9042	75 a0 ff			mov $ a0, # ffh
9045	90 78 00			mov DPTR, # 7800 (30720)
9048	75 38 00			mov $ 38, # 00h
904b	e0      			movx A, @DPTR
904c	b4 6e 00			cjne a, # 6eh, $ 00h (904f)
904f	50 13   			jnc $ 13h (9064)
9051	e5 38   			mov A, $ 38
9053	04      			inc A
9054	60 0e   			jz $ 0eh (9064)
9056	05 38   			inc $ 38
9058	74 08   			mov A, # 08h
905a	25 82   			add A, DPL
905c	f5 82   			mov DPL, A
905e	50 eb   			jnc $ -15h (904b)
9060	05 83   			inc DPH
9062	80 e7   			sjmp $ -19h (904b)
9064	74 6e   			mov A, # 6eh
9066	f0      			movx @DPTR, A
9067	90 00 00			mov DPTR, # 0000 (0)
906a	74 02   			mov A, # 02h
906c	f0      			movx @DPTR, A
906d	a3      			inc DPTR
906e	74 90   			mov A, # 90h
9070	f0      			movx @DPTR, A
9071	a3      			inc DPTR
9072	74 3d   			mov A, # 3dh
9074	f0      			movx @DPTR, A
9075	90 00 03			mov DPTR, # 0003 (3)
9078	74 02   			mov A, # 02h
907a	f0      			movx @DPTR, A
907b	a3      			inc DPTR
907c	74 b6   			mov A, # b6h
907e	f0      			movx @DPTR, A
907f	a3      			inc DPTR
9080	74 53   			mov A, # 53h
9082	f0      			movx @DPTR, A
9083	90 00 0b			mov DPTR, # 000b (11)
9086	74 02   			mov A, # 02h
9088	f0      			movx @DPTR, A
9089	a3      			inc DPTR
908a	74 90   			mov A, # 90h
908c	f0      			movx @DPTR, A
908d	a3      			inc DPTR
908e	74 03   			mov A, # 03h
9090	f0      			movx @DPTR, A
9091	90 00 13			mov DPTR, # 0013 (19)
9094	74 02   			mov A, # 02h
9096	f0      			movx @DPTR, A
9097	a3      			inc DPTR
9098	74 01   			mov A, # 01h
909a	f0      			movx @DPTR, A
909b	a3      			inc DPTR
909c	74 13   			mov A, # 13h
909e	f0      			movx @DPTR, A
909f	90 00 1b			mov DPTR, # 001b (27)
90a2	74 02   			mov A, # 02h
90a4	f0      			movx @DPTR, A
90a5	a3      			inc DPTR
90a6	74 01   			mov A, # 01h
90a8	f0      			movx @DPTR, A
90a9	a3      			inc DPTR
90aa	74 1b   			mov A, # 1bh
90ac	f0      			movx @DPTR, A
90ad	90 00 23			mov DPTR, # 0023 (35)
90b0	74 02   			mov A, # 02h
90b2	f0      			movx @DPTR, A
90b3	a3      			inc DPTR
90b4	74 01   			mov A, # 01h
90b6	f0      			movx @DPTR, A
90b7	a3      			inc DPTR
90b8	74 23   			mov A, # 23h
90ba	f0      			movx @DPTR, A
90bb	e4      			clr A
90bc	90 77 80			mov DPTR, # 7780 (30592)
90bf	f0      			movx @DPTR, A
90c0	79 40   			mov R1, # 40h
90c2	f3      			movx @R1, A
90c3	75 89 01			mov TMOD, # 01h
90c6	75 8c 00			mov TH0, # 00h
90c9	75 8a 00			mov TL0, # 00h
90cc	75 a8 82			mov IE, # 82h
90cf	75 88 00			mov TCON, # 00h
90d2	12 82 4a			lcall $ 824ah
90d5	c2 08   			clr 0x08
90d7	12 82 b9			lcall $ 82b9h
90da	74 0e   			mov A, # 0eh
90dc	12 82 33			lcall $ 8233h
90df	c2 d1   			clr 0xd1
90e1	90 94 30			mov DPTR, # 9430 (37936)
90e4	d2 d5   			setb 0xd5
90e6	51 34   			acall $ 0234h (9234)
90e8	60 11   			jz $ 11h (90fb)
90ea	d5 e0 07			djnz ACC, $ 07h (90f4)
90ed	e5 38   			mov A, $ 38
90ef	60 e4   			jz $ -1ch (90d5)
90f1	02 ab ca			ljmp $ abcah
90f4	e5 38   			mov A, $ 38
90f6	60 dd   			jz $ -23h (90d5)
90f8	02 ab e6			ljmp $ abe6h
90fb	75 3a 00			mov $ 3a, # 00h
90fe	d2 d1   			setb 0xd1
9100	31 92   			acall $ 0192h (9192)
9102	12 82 b9			lcall $ 82b9h
9105	74 0e   			mov A, # 0eh
9107	12 82 33			lcall $ 8233h
910a	78 30   			mov R0, # 30h
910c	31 de   			acall $ 01deh (91de)
910e	31 ca   			acall $ 01cah (91ca)
9110	c2 d1   			clr 0xd1
9112	d2 d5   			setb 0xd5
9114	d2 08   			setb 0x08
9116	90 94 42			mov DPTR, # 9442 (37954)
9119	51 34   			acall $ 0234h (9234)
911b	10 08 16			jbc 0x08, $ 16h (9134)
911e	b4 0d 0b			cjne a, # 0dh, $ 0bh (912c)
9121	e5 3a   			mov A, $ 3a
9123	b5 38 02			cjne $ 38, $ 02h (9128)
9126	80 d6   			sjmp $ -2ah (90fe)
9128	05 3a   			inc $ 3a
912a	80 d2   			sjmp $ -2eh (90fe)
912c	e5 3a   			mov A, $ 3a
912e	60 ce   			jz $ -32h (90fe)
9130	15 3a   			dec $ 3a
9132	80 ca   			sjmp $ -36h (90fe)
9134	60 05   			jz $ 05h (913b)
9136	d5 e0 36			djnz ACC, $ 36h (916f)
9139	01 d5   			ajmp $ d5h (90d5)
913b	e5 38   			mov A, $ 38
913d	04      			inc A
913e	60 be   			jz $ -42h (90fe)
9140	c2 d1   			clr 0xd1
9142	12 81 0c			lcall $ 810ch
9145	74 0e   			mov A, # 0eh
9147	12 81 06			lcall $ 8106h
914a	78 30   			mov R0, # 30h
914c	31 de   			acall $ 01deh (91de)
914e	31 ca   			acall $ 01cah (91ca)
9150	12 81 1a			lcall $ 811ah
9153	40 a9   			jc $ -57h (90fe)
9155	05 38   			inc $ 38
9157	85 38 3f			mov $ 3f, $ 38
915a	15 3f   			dec $ 3f
915c	31 8c   			acall $ 018ch (918c)
915e	05 3f   			inc $ 3f
9160	31 ab   			acall $ 01abh (91ab)
9162	15 3f   			dec $ 3f
9164	e5 3f   			mov A, $ 3f
9166	b5 3a f1			cjne $ 3a, $ -0fh (915a)
9169	31 b1   			acall $ 01b1h (91b1)
916b	05 3a   			inc $ 3a
916d	01 fe   			ajmp $ feh (90fe)
916f	e5 3a   			mov A, $ 3a
9171	b5 38 02			cjne $ 38, $ 02h (9176)
9174	01 fe   			ajmp $ feh (90fe)
9176	85 3a 3f			mov $ 3f, $ 3a
9179	05 3f   			inc $ 3f
917b	31 8c   			acall $ 018ch (918c)
917d	15 3f   			dec $ 3f
917f	31 ab   			acall $ 01abh (91ab)
9181	05 3f   			inc $ 3f
9183	e5 3f   			mov A, $ 3f
9185	b5 38 f1			cjne $ 38, $ -0fh (9179)
9188	15 38   			dec $ 38
918a	01 fe   			ajmp $ feh (90fe)
918c	e5 3f   			mov A, $ 3f
918e	78 45   			mov R0, # 45h
9190	80 04   			sjmp $ 04h (9196)
9192	e5 3a   			mov A, $ 3a
9194	78 30   			mov R0, # 30h
9196	75 f0 08			mov $ f0, # 08h
9199	a4      			mul AB
919a	f5 82   			mov DPL, A
919c	e5 f0   			mov A, $ f0
919e	24 78   			add A, # 78h
91a0	f5 83   			mov DPH, A
91a2	7a 08   			mov R2, # 08h
91a4	e0      			movx A, @DPTR
91a5	f6      			mov @R0, A
91a6	08      			inc R0
91a7	a3      			inc DPTR
91a8	da fa   			djnz R2, $ -06h (91a4)
91aa	22      			ret
91ab	e5 3f   			mov A, $ 3f
91ad	78 45   			mov R0, # 45h
91af	80 04   			sjmp $ 04h (91b5)
91b1	e5 3a   			mov A, $ 3a
91b3	78 30   			mov R0, # 30h
91b5	75 f0 08			mov $ f0, # 08h
91b8	a4      			mul AB
91b9	f5 82   			mov DPL, A
91bb	e5 f0   			mov A, $ f0
91bd	24 78   			add A, # 78h
91bf	f5 83   			mov DPH, A
91c1	7a 08   			mov R2, # 08h
91c3	e6      			mov A, @R0
91c4	f0      			movx @DPTR, A
91c5	08      			inc R0
91c6	a3      			inc DPTR
91c7	da fa   			djnz R2, $ -06h (91c3)
91c9	22      			ret
91ca	74 02   			mov A, # 02h
91cc	12 81 06			lcall $ 8106h
91cf	7f 10   			mov R7, # 10h
91d1	74 20   			mov A, # 20h
91d3	12 81 02			lcall $ 8102h
91d6	df f9   			djnz R7, $ -07h (91d1)
91d8	74 02   			mov A, # 02h
91da	12 81 06			lcall $ 8106h
91dd	22      			ret
91de	c2 d5   			clr 0xd5
91e0	75 39 c0			mov $ 39, # c0h
91e3	90 94 54			mov DPTR, # 9454 (37972)
91e6	12 92 34			lcall $ 9234h
91e9	f6      			mov @R0, A
91ea	e5 39   			mov A, $ 39
91ec	12 81 06			lcall $ 8106h
91ef	e6      			mov A, @R0
91f0	90 94 54			mov DPTR, # 9454 (37972)
91f3	51 05   			acall $ 0205h (9205)
91f5	74 20   			mov A, # 20h
91f7	12 81 02			lcall $ 8102h
91fa	91 1d   			acall $ 041dh (941d)
91fc	f5 39   			mov $ 39, A
91fe	e6      			mov A, @R0
91ff	08      			inc R0
9200	23      			rl A
9201	90 a0 00			mov DPTR, # a000 (40960)
9204	73      			jmp @A+DPTR
9205	f5 f0   			mov $ f0, A
9207	e4      			clr A
9208	93      			movc A, @A+DPTR
9209	c0 e0   			push ACC
920b	a3      			inc DPTR
920c	a3      			inc DPTR
920d	a3      			inc DPTR
920e	a4      			mul AB
920f	25 82   			add A, DPL
9211	f5 82   			mov DPL, A
9213	e5 f0   			mov A, $ f0
9215	35 83   			addc A, DPH
9217	f5 83   			mov DPH, A
9219	d0 f0   			pop $ f0
921b	e4      			clr A
921c	93      			movc A, @A+DPTR
921d	b4 20 02			cjne a, # 20h, $ 02h (9222)
9220	80 03   			sjmp $ 03h (9225)
9222	12 81 02			lcall $ 8102h
9225	a3      			inc DPTR
9226	d5 f0 f2			djnz $ f0, $ -0eh (921b)
9229	22      			ret
922a	e5 39   			mov A, $ 39
922c	12 81 06			lcall $ 8106h
922f	e6      			mov A, @R0
9230	51 05   			acall $ 0205h (9205)
9232	e6      			mov A, @R0
9233	22      			ret
9234	20 d1 f3			jb 0xd1, $ -0dh (922a)
9237	c0 d0   			push PSW
9239	d2 d3   			setb 0xd3
923b	d2 d4   			setb 0xd4
923d	74 02   			mov A, # 02h
923f	12 81 06			lcall $ 8106h
9242	7f 10   			mov R7, # 10h
9244	74 20   			mov A, # 20h
9246	12 81 02			lcall $ 8102h
9249	df f9   			djnz R7, $ -07h (9244)
924b	e4      			clr A
924c	93      			movc A, @A+DPTR
924d	ff      			mov R7, A
924e	a3      			inc DPTR
924f	e4      			clr A
9250	93      			movc A, @A+DPTR
9251	fe      			mov R6, A
9252	a3      			inc DPTR
9253	e4      			clr A
9254	93      			movc A, @A+DPTR
9255	fd      			mov R5, A
9256	a3      			inc DPTR
9257	c0 83   			push DPH
9259	c0 82   			push DPL
925b	7c 00   			mov R4, # 00h
925d	7b 00   			mov R3, # 00h
925f	41 c6   			ajmp $ 02c6h (92c6)
9261	12 88 e0			lcall $ 88e0h
9264	b4 0b 15			cjne a, # 0bh, $ 15h (927c)
9267	0b      			inc R3
9268	eb      			mov A, R3
9269	8e f0   			mov $ f0, R6
926b	b5 f0 7d			cjne $ f0, $ 7dh (92eb)
926e	1b      			dec R3
926f	0c      			inc R4
9270	ed      			mov A, R5
9271	c3      			clr C
9272	9e      			subb A, R6
9273	04      			inc A
9274	8c f0   			mov $ f0, R4
9276	b5 f0 4d			cjne $ f0, $ 4dh (92c6)
9279	1c      			dec R4
927a	80 e5   			sjmp $ -1bh (9261)
927c	b4 0a 0c			cjne a, # 0ah, $ 0ch (928b)
927f	1b      			dec R3
9280	bb ff 68			cjne R3, # ffh, $ 68h (92eb)
9283	0b      			inc R3
9284	1c      			dec R4
9285	bc ff 3e			cjne R4, # ffh, $ 3eh (92c6)
9288	0c      			inc R4
9289	80 d6   			sjmp $ -2ah (9261)
928b	b4 0d 17			cjne a, # 0dh, $ 17h (92a5)
928e	10 08 2c			jbc 0x08, $ 2ch (92bd)
9291	ec      			mov A, R4
9292	24 0a   			add A, # 0ah
9294	f5 f0   			mov $ f0, A
9296	fc      			mov R4, A
9297	ed      			mov A, R5
9298	c3      			clr C
9299	9e      			subb A, R6
929a	b5 f0 00			cjne $ f0, $ 00h (929d)
929d	50 27   			jnc $ 27h (92c6)
929f	fc      			mov R4, A
92a0	ee      			mov A, R6
92a1	14      			dec A
92a2	fb      			mov R3, A
92a3	80 21   			sjmp $ 21h (92c6)
92a5	b4 0c 10			cjne a, # 0ch, $ 10h (92b8)
92a8	10 08 12			jbc 0x08, $ 12h (92bd)
92ab	ec      			mov A, R4
92ac	c3      			clr C
92ad	94 0a   			subb A, # 0ah
92af	fc      			mov R4, A
92b0	50 14   			jnc $ 14h (92c6)
92b2	7c 00   			mov R4, # 00h
92b4	7b 00   			mov R3, # 00h
92b6	80 0e   			sjmp $ 0eh (92c6)
92b8	b4 0f a6			cjne a, # 0fh, $ -5ah (9261)
92bb	ec      			mov A, R4
92bc	2b      			add A, R3
92bd	c2 8c   			clr TR0
92bf	d0 82   			pop DPL
92c1	d0 83   			pop DPH
92c3	d0 d0   			pop PSW
92c5	22      			ret
92c6	c2 8c   			clr TR0
92c8	74 02   			mov A, # 02h
92ca	12 81 06			lcall $ 8106h
92cd	d0 82   			pop DPL
92cf	d0 83   			pop DPH
92d1	c0 83   			push DPH
92d3	c0 82   			push DPL
92d5	c0 1e   			push $ 1e
92d7	ec      			mov A, R4
92d8	8f f0   			mov $ f0, R7
92da	a4      			mul AB
92db	25 82   			add A, DPL
92dd	f5 82   			mov DPL, A
92df	e5 f0   			mov A, $ f0
92e1	35 83   			addc A, DPH
92e3	f5 83   			mov DPH, A
92e5	71 4b   			acall $ 034bh (934b)
92e7	de fc   			djnz R6, $ -04h (92e5)
92e9	d0 1e   			pop $ 1e
92eb	c2 8c   			clr TR0
92ed	20 d5 11			jb 0xd5, $ 11h (9301)
92f0	e5 39   			mov A, $ 39
92f2	12 81 06			lcall $ 8106h
92f5	d0 82   			pop DPL
92f7	d0 83   			pop DPH
92f9	c0 83   			push DPH
92fb	c0 82   			push DPL
92fd	71 2d   			acall $ 032dh (932d)
92ff	71 57   			acall $ 0357h (9357)
9301	74 02   			mov A, # 02h
9303	12 81 06			lcall $ 8106h
9306	eb      			mov A, R3
9307	60 0d   			jz $ 0dh (9316)
9309	8f f0   			mov $ f0, R7
930b	a4      			mul AB
930c	f5 f0   			mov $ f0, A
930e	74 14   			mov A, # 14h
9310	12 81 06			lcall $ 8106h
9313	d5 f0 f8			djnz $ f0, $ -08h (930e)
9316	bd 01 03			cjne R5, # 01h, $ 03h (931c)
9319	e4      			clr A
931a	41 bd   			ajmp $ 02bdh (92bd)
931c	ef      			mov A, R7
931d	23      			rl A
931e	23      			rl A
931f	d2 d3   			setb 0xd3
9321	c2 d4   			clr 0xd4
9323	fa      			mov R2, A
9324	fb      			mov R3, A
9325	d2 d3   			setb 0xd3
9327	d2 d4   			setb 0xd4
9329	d2 8c   			setb TR0
932b	41 61   			ajmp $ 0261h (9261)
932d	ec      			mov A, R4
932e	2b      			add A, R3
932f	8f f0   			mov $ f0, R7
9331	a4      			mul AB
9332	25 82   			add A, DPL
9334	f5 82   			mov DPL, A
9336	e5 f0   			mov A, $ f0
9338	35 83   			addc A, DPH
933a	f5 83   			mov DPH, A
933c	22      			ret
933d	8f	(unknown)  '.'
933e	f0	(unknown)  '.'
933f	e4	(unknown)  '.'
9340	93	(unknown)  '.'
9341	b4	(unknown)  '.'
9342	20	(unknown)  ' '
9343	05	(unknown)  '.'
9344	a3	(unknown)  '.'
9345	d5	(unknown)  '.'
9346	f0	(unknown)  '.'
9347	f7	(unknown)  '.'
9348	22	(unknown)  '"'
9349	d3	(unknown)  '.'
934a	22	(unknown)  '"'
934b	8f f0   			mov $ f0, R7
934d	e4      			clr A
934e	93      			movc A, @A+DPTR
934f	12 81 02			lcall $ 8102h
9352	a3      			inc DPTR
9353	d5 f0 f7			djnz $ f0, $ -09h (934d)
9356	22      			ret
9357	8f f0   			mov $ f0, R7
9359	c0 f0   			push $ f0
935b	e4      			clr A
935c	93      			movc A, @A+DPTR
935d	b4 20 02			cjne a, # 20h, $ 02h (9362)
9360	80 08   			sjmp $ 08h (936a)
9362	12 81 02			lcall $ 8102h
9365	d0 e0   			pop ACC
9367	14      			dec A
9368	c0 e0   			push ACC
936a	a3      			inc DPTR
936b	d5 f0 ed			djnz $ f0, $ -13h (935b)
936e	d0 e0   			pop ACC
9370	60 0a   			jz $ 0ah (937c)
9372	f5 f0   			mov $ f0, A
9374	74 20   			mov A, # 20h
9376	12 81 02			lcall $ 8102h
9379	d5 f0 f8			djnz $ f0, $ -08h (9374)
937c	22      			ret
937d	e6	(unknown)  '.'
937e	22	(unknown)  '"'
937f	20	(unknown)  ' '
9380	d1	(unknown)  '.'
9381	fb	(unknown)  '.'
9382	75	(unknown)  'u'
9383	f0	(unknown)  '.'
9384	00	(unknown)  '.'
9385	c2	(unknown)  '.'
9386	d5	(unknown)  '.'
9387	30	(unknown)  '0'
9388	d5	(unknown)  '.'
9389	05	(unknown)  '.'
938a	74	(unknown)  't'
938b	10	(unknown)  '.'
938c	12	(unknown)  '.'
938d	81	(unknown)  '.'
938e	06	(unknown)  '.'
938f	e5	(unknown)  '.'
9390	f0	(unknown)  '.'
9391	12	(unknown)  '.'
9392	81	(unknown)  '.'
9393	04	(unknown)  '.'
9394	74	(unknown)  't'
9395	48	(unknown)  'H'
9396	12	(unknown)  '.'
9397	81	(unknown)  '.'
9398	02	(unknown)  '.'
9399	74	(unknown)  't'
939a	10	(unknown)  '.'
939b	12	(unknown)  '.'
939c	81	(unknown)  '.'
939d	06	(unknown)  '.'
939e	74	(unknown)  't'
939f	10	(unknown)  '.'
93a0	12	(unknown)  '.'
93a1	81	(unknown)  '.'
93a2	06	(unknown)  '.'
93a3	20	(unknown)  ' '
93a4	d5	(unknown)  '.'
93a5	05	(unknown)  '.'
93a6	74	(unknown)  't'
93a7	10	(unknown)  '.'
93a8	12	(unknown)  '.'
93a9	81	(unknown)  '.'
93aa	06	(unknown)  '.'
93ab	c0	(unknown)  '.'
93ac	f0	(unknown)  '.'
93ad	12	(unknown)  '.'
93ae	88	(unknown)  '.'
93af	e0	(unknown)  '.'
93b0	d0	(unknown)  '.'
93b1	f0	(unknown)  '.'
93b2	b4	(unknown)  '.'
93b3	0b	(unknown)  '.'
93b4	0c	(unknown)  '.'
93b5	20	(unknown)  ' '
93b6	d5	(unknown)  '.'
93b7	f3	(unknown)  '.'
93b8	d2	(unknown)  '.'
93b9	d5	(unknown)  '.'
93ba	74	(unknown)  't'
93bb	14	(unknown)  '.'
93bc	12	(unknown)  '.'
93bd	81	(unknown)  '.'
93be	06	(unknown)  '.'
93bf	80	(unknown)  '.'
93c0	ea	(unknown)  '.'
93c1	b4	(unknown)  '.'
93c2	0a	(unknown)  '.'
93c3	0c	(unknown)  '.'
93c4	30	(unknown)  '0'
93c5	d5	(unknown)  '.'
93c6	e4	(unknown)  '.'
93c7	c2	(unknown)  '.'
93c8	d5	(unknown)  '.'
93c9	74	(unknown)  't'
93ca	10	(unknown)  '.'
93cb	12	(unknown)  '.'
93cc	81	(unknown)  '.'
93cd	06	(unknown)  '.'
93ce	80	(unknown)  '.'
93cf	db	(unknown)  '.'
93d0	b4	(unknown)  '.'
93d1	0d	(unknown)  '.'
93d2	1e	(unknown)  '.'
93d3	74	(unknown)  't'
93d4	10	(unknown)  '.'
93d5	30	(unknown)  '0'
93d6	d5	(unknown)  '.'
93d7	10	(unknown)  '.'
93d8	74	(unknown)  't'
93d9	01	(unknown)  '.'
93da	20	(unknown)  ' '
93db	f0	(unknown)  '.'
93dc	0b	(unknown)  '.'
93dd	20	(unknown)  ' '
93de	f1	(unknown)  '.'
93df	08	(unknown)  '.'
93e0	20	(unknown)  ' '
93e1	f2	(unknown)  '.'
93e2	05	(unknown)  '.'
93e3	20	(unknown)  ' '
93e4	f3	(unknown)  '.'
93e5	02	(unknown)  '.'
93e6	74	(unknown)  't'
93e7	f1	(unknown)  '.'
93e8	c5	(unknown)  '.'
93e9	f0	(unknown)  '.'
93ea	c3	(unknown)  '.'
93eb	95	(unknown)  '.'
93ec	f0	(unknown)  '.'
93ed	f5	(unknown)  '.'
93ee	f0	(unknown)  '.'
93ef	80	(unknown)  '.'
93f0	96	(unknown)  '.'
93f1	b4	(unknown)  '.'
93f2	0c	(unknown)  '.'
93f3	1b	(unknown)  '.'
93f4	74	(unknown)  't'
93f5	10	(unknown)  '.'
93f6	30	(unknown)  '0'
93f7	d5	(unknown)  '.'
93f8	10	(unknown)  '.'
93f9	74	(unknown)  't'
93fa	01	(unknown)  '.'
93fb	30	(unknown)  '0'
93fc	f0	(unknown)  '.'
93fd	0b	(unknown)  '.'
93fe	30	(unknown)  '0'
93ff	f1	(unknown)  '.'
9400	08	(unknown)  '.'
9401	30	(unknown)  '0'
9402	f2	(unknown)  '.'
9403	05	(unknown)  '.'
9404	30	(unknown)  '0'
9405	f3	(unknown)  '.'
9406	02	(unknown)  '.'
9407	74	(unknown)  't'
9408	f1	(unknown)  '.'
9409	25	(unknown)  '%'
940a	f0	(unknown)  '.'
940b	f5	(unknown)  '.'
940c	f0	(unknown)  '.'
940d	61	(unknown)  'a'
940e	87	(unknown)  '.'
940f	b4	(unknown)  '.'
9410	0f	(unknown)  '.'
9411	99	(unknown)  '.'
9412	30	(unknown)  '0'
9413	d5	(unknown)  '.'
9414	05	(unknown)  '.'
9415	74	(unknown)  't'
9416	10	(unknown)  '.'
9417	12	(unknown)  '.'
9418	81	(unknown)  '.'
9419	06	(unknown)  '.'
941a	e5	(unknown)  '.'
941b	f0	(unknown)  '.'
941c	22	(unknown)  '"'
941d	e8      			mov A, R0
941e	c0 e0   			push ACC
9420	78 82   			mov R0, # 82h
9422	e2      			movx A, @R0
9423	20 e7 fc			jb 0xe7, $ -04h (9422)
9426	00      			nop
9427	00      			nop
9428	e2      			movx A, @R0
9429	d2 e7   			setb 0xe7
942b	f8      			mov R0, A
942c	d0 e0   			pop ACC
942e	c8      			xch A, @0
942f	22      			ret
9430	05	(unknown)  '.'
9431	03	(unknown)  '.'
9432	03	(unknown)  '.'
9433	45	(unknown)  'E'
9434	44	(unknown)  'D'
9435	49	(unknown)  'I'
9436	54	(unknown)  'T'
9437	20	(unknown)  ' '
9438	52	(unknown)  'R'
9439	55	(unknown)  'U'
943a	4e	(unknown)  'N'
943b	20	(unknown)  ' '
943c	20	(unknown)  ' '
943d	53	(unknown)  'S'
943e	54	(unknown)  'T'
943f	45	(unknown)  'E'
9440	50	(unknown)  'P'
9441	20	(unknown)  ' '
9442	05	(unknown)  '.'
9443	03	(unknown)  '.'
9444	03	(unknown)  '.'
9445	49	(unknown)  'I'
9446	4e	(unknown)  'N'
9447	53	(unknown)  'S'
9448	20	(unknown)  ' '
9449	20	(unknown)  ' '
944a	4d	(unknown)  'M'
944b	41	(unknown)  'A'
944c	49	(unknown)  'I'
944d	4e	(unknown)  'N'
944e	20	(unknown)  ' '
944f	44	(unknown)  'D'
9450	45	(unknown)  'E'
9451	4c	(unknown)  'L'
9452	20	(unknown)  ' '
9453	20	(unknown)  ' '
9454	05	(unknown)  '.'
9455	03	(unknown)  '.'
9456	6e	(unknown)  'n'
9457	41	(unknown)  'A'
9458	43	(unknown)  'C'
9459	41	(unknown)  'A'
945a	4c	(unknown)  'L'
945b	4c	(unknown)  'L'
945c	20	(unknown)  ' '
945d	41	(unknown)  'A'
945e	44	(unknown)  'D'
945f	44	(unknown)  'D'
9460	20	(unknown)  ' '
9461	41	(unknown)  'A'
9462	44	(unknown)  'D'
9463	44	(unknown)  'D'
9464	43	(unknown)  'C'
9465	20	(unknown)  ' '
9466	41	(unknown)  'A'
9467	4a	(unknown)  'J'
9468	4d	(unknown)  'M'
9469	50	(unknown)  'P'
946a	20	(unknown)  ' '
946b	20	(unknown)  ' '
946c	41	(unknown)  'A'
946d	4e	(unknown)  'N'
946e	4c	(unknown)  'L'
946f	20	(unknown)  ' '
9470	43	(unknown)  'C'
9471	4a	(unknown)  'J'
9472	4e	(unknown)  'N'
9473	45	(unknown)  'E'
9474	20	(unknown)  ' '
9475	20	(unknown)  ' '
9476	43	(unknown)  'C'
9477	4c	(unknown)  'L'
9478	52	(unknown)  'R'
9479	20	(unknown)  ' '
947a	20	(unknown)  ' '
947b	43	(unknown)  'C'
947c	50	(unknown)  'P'
947d	4c	(unknown)  'L'
947e	20	(unknown)  ' '
947f	20	(unknown)  ' '
9480	44	(unknown)  'D'
9481	41	(unknown)  'A'
9482	20	(unknown)  ' '
9483	20	(unknown)  ' '
9484	20	(unknown)  ' '
9485	44	(unknown)  'D'
9486	45	(unknown)  'E'
9487	43	(unknown)  'C'
9488	20	(unknown)  ' '
9489	20	(unknown)  ' '
948a	44	(unknown)  'D'
948b	49	(unknown)  'I'
948c	56	(unknown)  'V'
948d	20	(unknown)  ' '
948e	44	(unknown)  'D'
948f	4a	(unknown)  'J'
9490	4e	(unknown)  'N'
9491	5a	(unknown)  'Z'
9492	20	(unknown)  ' '
9493	49	(unknown)  'I'
9494	4e	(unknown)  'N'
9495	43	(unknown)  'C'
9496	20	(unknown)  ' '
9497	20	(unknown)  ' '
9498	20	(unknown)  ' '
9499	4a	(unknown)  'J'
949a	42	(unknown)  'B'
949b	20	(unknown)  ' '
949c	20	(unknown)  ' '
949d	20	(unknown)  ' '
949e	4a	(unknown)  'J'
949f	42	(unknown)  'B'
94a0	43	(unknown)  'C'
94a1	20	(unknown)  ' '
94a2	20	(unknown)  ' '
94a3	4a	(unknown)  'J'
94a4	43	(unknown)  'C'
94a5	20	(unknown)  ' '
94a6	20	(unknown)  ' '
94a7	20	(unknown)  ' '
94a8	4a	(unknown)  'J'
94a9	4d	(unknown)  'M'
94aa	50	(unknown)  'P'
94ab	20	(unknown)  ' '
94ac	20	(unknown)  ' '
94ad	4a	(unknown)  'J'
94ae	4e	(unknown)  'N'
94af	42	(unknown)  'B'
94b0	20	(unknown)  ' '
94b1	20	(unknown)  ' '
94b2	4a	(unknown)  'J'
94b3	4e	(unknown)  'N'
94b4	43	(unknown)  'C'
94b5	20	(unknown)  ' '
94b6	20	(unknown)  ' '
94b7	4a	(unknown)  'J'
94b8	4e	(unknown)  'N'
94b9	5a	(unknown)  'Z'
94ba	20	(unknown)  ' '
94bb	20	(unknown)  ' '
94bc	4a	(unknown)  'J'
94bd	5a	(unknown)  'Z'
94be	20	(unknown)  ' '
94bf	20	(unknown)  ' '
94c0	4c	(unknown)  'L'
94c1	43	(unknown)  'C'
94c2	41	(unknown)  'A'
94c3	4c	(unknown)  'L'
94c4	4c	(unknown)  'L'
94c5	20	(unknown)  ' '
94c6	4c	(unknown)  'L'
94c7	4a	(unknown)  'J'
94c8	4d	(unknown)  'M'
94c9	50	(unknown)  'P'
94ca	20	(unknown)  ' '
94cb	4d	(unknown)  'M'
94cc	4f	(unknown)  'O'
94cd	56	(unknown)  'V'
94ce	20	(unknown)  ' '
94cf	4d	(unknown)  'M'
94d0	4f	(unknown)  'O'
94d1	56	(unknown)  'V'
94d2	43	(unknown)  'C'
94d3	20	(unknown)  ' '
94d4	4d	(unknown)  'M'
94d5	4f	(unknown)  'O'
94d6	56	(unknown)  'V'
94d7	58	(unknown)  'X'
94d8	20	(unknown)  ' '
94d9	20	(unknown)  ' '
94da	4d	(unknown)  'M'
94db	55	(unknown)  'U'
94dc	4c	(unknown)  'L'
94dd	20	(unknown)  ' '
94de	20	(unknown)  ' '
94df	4e	(unknown)  'N'
94e0	4f	(unknown)  'O'
94e1	50	(unknown)  'P'
94e2	20	(unknown)  ' '
94e3	20	(unknown)  ' '
94e4	4f	(unknown)  'O'
94e5	52	(unknown)  'R'
94e6	4c	(unknown)  'L'
94e7	20	(unknown)  ' '
94e8	20	(unknown)  ' '
94e9	50	(unknown)  'P'
94ea	4f	(unknown)  'O'
94eb	50	(unknown)  'P'
94ec	20	(unknown)  ' '
94ed	50	(unknown)  'P'
94ee	55	(unknown)  'U'
94ef	53	(unknown)  'S'
94f0	48	(unknown)  'H'
94f1	20	(unknown)  ' '
94f2	20	(unknown)  ' '
94f3	52	(unknown)  'R'
94f4	45	(unknown)  'E'
94f5	54	(unknown)  'T'
94f6	20	(unknown)  ' '
94f7	52	(unknown)  'R'
94f8	45	(unknown)  'E'
94f9	54	(unknown)  'T'
94fa	49	(unknown)  'I'
94fb	20	(unknown)  ' '
94fc	20	(unknown)  ' '
94fd	52	(unknown)  'R'
94fe	4c	(unknown)  'L'
94ff	20	(unknown)  ' '
9500	20	(unknown)  ' '
9501	20	(unknown)  ' '
9502	52	(unknown)  'R'
9503	4c	(unknown)  'L'
9504	43	(unknown)  'C'
9505	20	(unknown)  ' '
9506	20	(unknown)  ' '
9507	52	(unknown)  'R'
9508	52	(unknown)  'R'
9509	20	(unknown)  ' '
950a	20	(unknown)  ' '
950b	20	(unknown)  ' '
950c	52	(unknown)  'R'
950d	52	(unknown)  'R'
950e	43	(unknown)  'C'
950f	20	(unknown)  ' '
9510	53	(unknown)  'S'
9511	45	(unknown)  'E'
9512	54	(unknown)  'T'
9513	42	(unknown)  'B'
9514	20	(unknown)  ' '
9515	53	(unknown)  'S'
9516	4a	(unknown)  'J'
9517	4d	(unknown)  'M'
9518	50	(unknown)  'P'
9519	20	(unknown)  ' '
951a	53	(unknown)  'S'
951b	55	(unknown)  'U'
951c	42	(unknown)  'B'
951d	42	(unknown)  'B'
951e	20	(unknown)  ' '
951f	53	(unknown)  'S'
9520	57	(unknown)  'W'
9521	41	(unknown)  'A'
9522	50	(unknown)  'P'
9523	20	(unknown)  ' '
9524	20	(unknown)  ' '
9525	58	(unknown)  'X'
9526	43	(unknown)  'C'
9527	48	(unknown)  'H'
9528	20	(unknown)  ' '
9529	58	(unknown)  'X'
952a	43	(unknown)  'C'
952b	48	(unknown)  'H'
952c	44	(unknown)  'D'
952d	20	(unknown)  ' '
952e	20	(unknown)  ' '
952f	58	(unknown)  'X'
9530	52	(unknown)  'R'
9531	4c	(unknown)  'L'
9532	20	(unknown)  ' '
9533	44	(unknown)  'D'
9534	42	(unknown)  'B'
9535	20	(unknown)  ' '
9536	20	(unknown)  ' '
9537	20	(unknown)  ' '
9538	4f	(unknown)  'O'
9539	52	(unknown)  'R'
953a	47	(unknown)  'G'
953b	20	(unknown)  ' '
953c	20	(unknown)  ' '
953d	4c	(unknown)  'L'
953e	30	(unknown)  '0'
953f	30	(unknown)  '0'
9540	20	(unknown)  ' '
9541	20	(unknown)  ' '
9542	4c	(unknown)  'L'
9543	30	(unknown)  '0'
9544	31	(unknown)  '1'
9545	20	(unknown)  ' '
9546	20	(unknown)  ' '
9547	4c	(unknown)  'L'
9548	30	(unknown)  '0'
9549	32	(unknown)  '2'
954a	20	(unknown)  ' '
954b	20	(unknown)  ' '
954c	4c	(unknown)  'L'
954d	30	(unknown)  '0'
954e	33	(unknown)  '3'
954f	20	(unknown)  ' '
9550	20	(unknown)  ' '
9551	4c	(unknown)  'L'
9552	30	(unknown)  '0'
9553	34	(unknown)  '4'
9554	20	(unknown)  ' '
9555	20	(unknown)  ' '
9556	4c	(unknown)  'L'
9557	30	(unknown)  '0'
9558	35	(unknown)  '5'
9559	20	(unknown)  ' '
955a	20	(unknown)  ' '
955b	4c	(unknown)  'L'
955c	30	(unknown)  '0'
955d	36	(unknown)  '6'
955e	20	(unknown)  ' '
955f	20	(unknown)  ' '
9560	4c	(unknown)  'L'
9561	30	(unknown)  '0'
9562	37	(unknown)  '7'
9563	20	(unknown)  ' '
9564	20	(unknown)  ' '
9565	4c	(unknown)  'L'
9566	30	(unknown)  '0'
9567	38	(unknown)  '8'
9568	20	(unknown)  ' '
9569	20	(unknown)  ' '
956a	4c	(unknown)  'L'
956b	30	(unknown)  '0'
956c	39	(unknown)  '9'
956d	20	(unknown)  ' '
956e	20	(unknown)  ' '
956f	4c	(unknown)  'L'
9570	30	(unknown)  '0'
9571	41	(unknown)  'A'
9572	20	(unknown)  ' '
9573	20	(unknown)  ' '
9574	4c	(unknown)  'L'
9575	30	(unknown)  '0'
9576	42	(unknown)  'B'
9577	20	(unknown)  ' '
9578	20	(unknown)  ' '
9579	4c	(unknown)  'L'
957a	30	(unknown)  '0'
957b	43	(unknown)  'C'
957c	20	(unknown)  ' '
957d	20	(unknown)  ' '
957e	4c	(unknown)  'L'
957f	30	(unknown)  '0'
9580	44	(unknown)  'D'
9581	20	(unknown)  ' '
9582	20	(unknown)  ' '
9583	4c	(unknown)  'L'
9584	30	(unknown)  '0'
9585	45	(unknown)  'E'
9586	20	(unknown)  ' '
9587	20	(unknown)  ' '
9588	4c	(unknown)  'L'
9589	30	(unknown)  '0'
958a	46	(unknown)  'F'
958b	20	(unknown)  ' '
958c	20	(unknown)  ' '
958d	4c	(unknown)  'L'
958e	31	(unknown)  '1'
958f	30	(unknown)  '0'
9590	20	(unknown)  ' '
9591	20	(unknown)  ' '
9592	4c	(unknown)  'L'
9593	31	(unknown)  '1'
9594	31	(unknown)  '1'
9595	20	(unknown)  ' '
9596	20	(unknown)  ' '
9597	4c	(unknown)  'L'
9598	31	(unknown)  '1'
9599	32	(unknown)  '2'
959a	20	(unknown)  ' '
959b	20	(unknown)  ' '
959c	4c	(unknown)  'L'
959d	31	(unknown)  '1'
959e	33	(unknown)  '3'
959f	20	(unknown)  ' '
95a0	20	(unknown)  ' '
95a1	4c	(unknown)  'L'
95a2	31	(unknown)  '1'
95a3	34	(unknown)  '4'
95a4	20	(unknown)  ' '
95a5	20	(unknown)  ' '
95a6	4c	(unknown)  'L'
95a7	31	(unknown)  '1'
95a8	35	(unknown)  '5'
95a9	20	(unknown)  ' '
95aa	20	(unknown)  ' '
95ab	4c	(unknown)  'L'
95ac	31	(unknown)  '1'
95ad	36	(unknown)  '6'
95ae	20	(unknown)  ' '
95af	20	(unknown)  ' '
95b0	4c	(unknown)  'L'
95b1	31	(unknown)  '1'
95b2	37	(unknown)  '7'
95b3	20	(unknown)  ' '
95b4	20	(unknown)  ' '
95b5	4c	(unknown)  'L'
95b6	31	(unknown)  '1'
95b7	38	(unknown)  '8'
95b8	20	(unknown)  ' '
95b9	20	(unknown)  ' '
95ba	4c	(unknown)  'L'
95bb	31	(unknown)  '1'
95bc	39	(unknown)  '9'
95bd	20	(unknown)  ' '
95be	20	(unknown)  ' '
95bf	4c	(unknown)  'L'
95c0	31	(unknown)  '1'
95c1	41	(unknown)  'A'
95c2	20	(unknown)  ' '
95c3	20	(unknown)  ' '
95c4	4c	(unknown)  'L'
95c5	31	(unknown)  '1'
95c6	42	(unknown)  'B'
95c7	20	(unknown)  ' '
95c8	20	(unknown)  ' '
95c9	4c	(unknown)  'L'
95ca	31	(unknown)  '1'
95cb	43	(unknown)  'C'
95cc	20	(unknown)  ' '
95cd	20	(unknown)  ' '
95ce	4c	(unknown)  'L'
95cf	31	(unknown)  '1'
95d0	44	(unknown)  'D'
95d1	20	(unknown)  ' '
95d2	20	(unknown)  ' '
95d3	4c	(unknown)  'L'
95d4	31	(unknown)  '1'
95d5	45	(unknown)  'E'
95d6	20	(unknown)  ' '
95d7	20	(unknown)  ' '
95d8	4c	(unknown)  'L'
95d9	31	(unknown)  '1'
95da	46	(unknown)  'F'
95db	20	(unknown)  ' '
95dc	20	(unknown)  ' '
95dd	4c	(unknown)  'L'
95de	32	(unknown)  '2'
95df	30	(unknown)  '0'
95e0	20	(unknown)  ' '
95e1	20	(unknown)  ' '
95e2	4c	(unknown)  'L'
95e3	32	(unknown)  '2'
95e4	31	(unknown)  '1'
95e5	20	(unknown)  ' '
95e6	20	(unknown)  ' '
95e7	4c	(unknown)  'L'
95e8	32	(unknown)  '2'
95e9	32	(unknown)  '2'
95ea	20	(unknown)  ' '
95eb	20	(unknown)  ' '
95ec	4c	(unknown)  'L'
95ed	32	(unknown)  '2'
95ee	33	(unknown)  '3'
95ef	20	(unknown)  ' '
95f0	20	(unknown)  ' '
95f1	4c	(unknown)  'L'
95f2	32	(unknown)  '2'
95f3	34	(unknown)  '4'
95f4	20	(unknown)  ' '
95f5	20	(unknown)  ' '
95f6	4c	(unknown)  'L'
95f7	32	(unknown)  '2'
95f8	35	(unknown)  '5'
95f9	20	(unknown)  ' '
95fa	20	(unknown)  ' '
95fb	4c	(unknown)  'L'
95fc	32	(unknown)  '2'
95fd	36	(unknown)  '6'
95fe	20	(unknown)  ' '
95ff	20	(unknown)  ' '
9600	4c	(unknown)  'L'
9601	32	(unknown)  '2'
9602	37	(unknown)  '7'
9603	20	(unknown)  ' '
9604	20	(unknown)  ' '
9605	4c	(unknown)  'L'
9606	32	(unknown)  '2'
9607	38	(unknown)  '8'
9608	20	(unknown)  ' '
9609	20	(unknown)  ' '
960a	4c	(unknown)  'L'
960b	32	(unknown)  '2'
960c	39	(unknown)  '9'
960d	20	(unknown)  ' '
960e	20	(unknown)  ' '
960f	4c	(unknown)  'L'
9610	32	(unknown)  '2'
9611	41	(unknown)  'A'
9612	20	(unknown)  ' '
9613	20	(unknown)  ' '
9614	4c	(unknown)  'L'
9615	32	(unknown)  '2'
9616	42	(unknown)  'B'
9617	20	(unknown)  ' '
9618	20	(unknown)  ' '
9619	4c	(unknown)  'L'
961a	32	(unknown)  '2'
961b	43	(unknown)  'C'
961c	20	(unknown)  ' '
961d	20	(unknown)  ' '
961e	4c	(unknown)  'L'
961f	32	(unknown)  '2'
9620	44	(unknown)  'D'
9621	20	(unknown)  ' '
9622	20	(unknown)  ' '
9623	4c	(unknown)  'L'
9624	32	(unknown)  '2'
9625	45	(unknown)  'E'
9626	20	(unknown)  ' '
9627	20	(unknown)  ' '
9628	4c	(unknown)  'L'
9629	32	(unknown)  '2'
962a	46	(unknown)  'F'
962b	20	(unknown)  ' '
962c	20	(unknown)  ' '
962d	4c	(unknown)  'L'
962e	33	(unknown)  '3'
962f	30	(unknown)  '0'
9630	20	(unknown)  ' '
9631	20	(unknown)  ' '
9632	4c	(unknown)  'L'
9633	33	(unknown)  '3'
9634	31	(unknown)  '1'
9635	20	(unknown)  ' '
9636	20	(unknown)  ' '
9637	4c	(unknown)  'L'
9638	33	(unknown)  '3'
9639	32	(unknown)  '2'
963a	20	(unknown)  ' '
963b	20	(unknown)  ' '
963c	4c	(unknown)  'L'
963d	33	(unknown)  '3'
963e	33	(unknown)  '3'
963f	20	(unknown)  ' '
9640	20	(unknown)  ' '
9641	4c	(unknown)  'L'
9642	33	(unknown)  '3'
9643	34	(unknown)  '4'
9644	20	(unknown)  ' '
9645	20	(unknown)  ' '
9646	4c	(unknown)  'L'
9647	33	(unknown)  '3'
9648	35	(unknown)  '5'
9649	20	(unknown)  ' '
964a	20	(unknown)  ' '
964b	4c	(unknown)  'L'
964c	33	(unknown)  '3'
964d	36	(unknown)  '6'
964e	20	(unknown)  ' '
964f	20	(unknown)  ' '
9650	4c	(unknown)  'L'
9651	33	(unknown)  '3'
9652	37	(unknown)  '7'
9653	20	(unknown)  ' '
9654	20	(unknown)  ' '
9655	4c	(unknown)  'L'
9656	33	(unknown)  '3'
9657	38	(unknown)  '8'
9658	20	(unknown)  ' '
9659	20	(unknown)  ' '
965a	4c	(unknown)  'L'
965b	33	(unknown)  '3'
965c	39	(unknown)  '9'
965d	20	(unknown)  ' '
965e	20	(unknown)  ' '
965f	4c	(unknown)  'L'
9660	33	(unknown)  '3'
9661	41	(unknown)  'A'
9662	20	(unknown)  ' '
9663	20	(unknown)  ' '
9664	4c	(unknown)  'L'
9665	33	(unknown)  '3'
9666	42	(unknown)  'B'
9667	20	(unknown)  ' '
9668	20	(unknown)  ' '
9669	4c	(unknown)  'L'
966a	33	(unknown)  '3'
966b	43	(unknown)  'C'
966c	20	(unknown)  ' '
966d	20	(unknown)  ' '
966e	4c	(unknown)  'L'
966f	33	(unknown)  '3'
9670	44	(unknown)  'D'
9671	20	(unknown)  ' '
9672	20	(unknown)  ' '
9673	4c	(unknown)  'L'
9674	33	(unknown)  '3'
9675	45	(unknown)  'E'
9676	20	(unknown)  ' '
9677	20	(unknown)  ' '
9678	4c	(unknown)  'L'
9679	33	(unknown)  '3'
967a	46	(unknown)  'F'
967b	20	(unknown)  ' '
967c	20	(unknown)  ' '
967d	2e	(unknown)  '.'
967e	45	(unknown)  'E'
967f	4e	(unknown)  'N'
9680	44	(unknown)  'D'
9681	20	(unknown)  ' '
9682	06	(unknown)  '.'
9683	02	(unknown)  '.'
9684	04	(unknown)  '.'
9685	41	(unknown)  'A'
9686	2c	(unknown)  ','
9687	52	(unknown)  'R'
9688	72	(unknown)  'r'
9689	20	(unknown)  ' '
968a	20	(unknown)  ' '
968b	41	(unknown)  'A'
968c	2c	(unknown)  ','
968d	64	(unknown)  'd'
968e	69	(unknown)  'i'
968f	72	(unknown)  'r'
9690	20	(unknown)  ' '
9691	41	(unknown)  'A'
9692	2c	(unknown)  ','
9693	40	(unknown)  '@'
9694	52	(unknown)  'R'
9695	69	(unknown)  'i'
9696	20	(unknown)  ' '
9697	41	(unknown)  'A'
9698	2c	(unknown)  ','
9699	23	(unknown)  '#'
969a	64	(unknown)  'd'
969b	38	(unknown)  '8'
969c	20	(unknown)  ' '
969d	04	(unknown)  '.'
969e	04	(unknown)  '.'
969f	05	(unknown)  '.'
96a0	41	(unknown)  'A'
96a1	20	(unknown)  ' '
96a2	20	(unknown)  ' '
96a3	20	(unknown)  ' '
96a4	52	(unknown)  'R'
96a5	72	(unknown)  'r'
96a6	20	(unknown)  ' '
96a7	20	(unknown)  ' '
96a8	64	(unknown)  'd'
96a9	69	(unknown)  'i'
96aa	72	(unknown)  'r'
96ab	20	(unknown)  ' '
96ac	40	(unknown)  '@'
96ad	52	(unknown)  'R'
96ae	69	(unknown)  'i'
96af	20	(unknown)  ' '
96b0	44	(unknown)  'D'
96b1	50	(unknown)  'P'
96b2	54	(unknown)  'T'
96b3	52	(unknown)  'R'
96b4	04	(unknown)  '.'
96b5	04	(unknown)  '.'
96b6	04	(unknown)  '.'
96b7	41	(unknown)  'A'
96b8	20	(unknown)  ' '
96b9	20	(unknown)  ' '
96ba	20	(unknown)  ' '
96bb	52	(unknown)  'R'
96bc	72	(unknown)  'r'
96bd	20	(unknown)  ' '
96be	20	(unknown)  ' '
96bf	64	(unknown)  'd'
96c0	69	(unknown)  'i'
96c1	72	(unknown)  'r'
96c2	20	(unknown)  ' '
96c3	40	(unknown)  '@'
96c4	52	(unknown)  'R'
96c5	69	(unknown)  'i'
96c6	20	(unknown)  ' '
96c7	02	(unknown)  '.'
96c8	01	(unknown)  '.'
96c9	01	(unknown)  '.'
96ca	41	(unknown)  'A'
96cb	42	(unknown)  'B'
96cc	01	(unknown)  '.'
96cd	01	(unknown)  '.'
96ce	01	(unknown)  '.'
96cf	41	(unknown)  'A'
96d0	08	(unknown)  '.'
96d1	02	(unknown)  '.'
96d2	08	(unknown)  '.'
96d3	41	(unknown)  'A'
96d4	2c	(unknown)  ','
96d5	52	(unknown)  'R'
96d6	72	(unknown)  'r'
96d7	20	(unknown)  ' '
96d8	20	(unknown)  ' '
96d9	20	(unknown)  ' '
96da	20	(unknown)  ' '
96db	41	(unknown)  'A'
96dc	2c	(unknown)  ','
96dd	64	(unknown)  'd'
96de	69	(unknown)  'i'
96df	72	(unknown)  'r'
96e0	20	(unknown)  ' '
96e1	20	(unknown)  ' '
96e2	20	(unknown)  ' '
96e3	41	(unknown)  'A'
96e4	2c	(unknown)  ','
96e5	40	(unknown)  '@'
96e6	52	(unknown)  'R'
96e7	69	(unknown)  'i'
96e8	20	(unknown)  ' '
96e9	20	(unknown)  ' '
96ea	20	(unknown)  ' '
96eb	41	(unknown)  'A'
96ec	2c	(unknown)  ','
96ed	23	(unknown)  '#'
96ee	64	(unknown)  'd'
96ef	38	(unknown)  '8'
96f0	20	(unknown)  ' '
96f1	20	(unknown)  ' '
96f2	20	(unknown)  ' '
96f3	64	(unknown)  'd'
96f4	69	(unknown)  'i'
96f5	72	(unknown)  'r'
96f6	2c	(unknown)  ','
96f7	41	(unknown)  'A'
96f8	20	(unknown)  ' '
96f9	20	(unknown)  ' '
96fa	20	(unknown)  ' '
96fb	64	(unknown)  'd'
96fc	69	(unknown)  'i'
96fd	72	(unknown)  'r'
96fe	2c	(unknown)  ','
96ff	23	(unknown)  '#'
9700	64	(unknown)  'd'
9701	38	(unknown)  '8'
9702	20	(unknown)  ' '
9703	43	(unknown)  'C'
9704	2c	(unknown)  ','
9705	62	(unknown)  'b'
9706	69	(unknown)  'i'
9707	74	(unknown)  't'
9708	20	(unknown)  ' '
9709	20	(unknown)  ' '
970a	20	(unknown)  ' '
970b	43	(unknown)  'C'
970c	2c	(unknown)  ','
970d	2f	(unknown)  '/'
970e	62	(unknown)  'b'
970f	69	(unknown)  'i'
9710	74	(unknown)  't'
9711	20	(unknown)  ' '
9712	20	(unknown)  ' '
9713	08	(unknown)  '.'
9714	02	(unknown)  '.'
9715	06	(unknown)  '.'
9716	41	(unknown)  'A'
9717	2c	(unknown)  ','
9718	52	(unknown)  'R'
9719	72	(unknown)  'r'
971a	20	(unknown)  ' '
971b	20	(unknown)  ' '
971c	20	(unknown)  ' '
971d	20	(unknown)  ' '
971e	41	(unknown)  'A'
971f	2c	(unknown)  ','
9720	64	(unknown)  'd'
9721	69	(unknown)  'i'
9722	72	(unknown)  'r'
9723	20	(unknown)  ' '
9724	20	(unknown)  ' '
9725	20	(unknown)  ' '
9726	41	(unknown)  'A'
9727	2c	(unknown)  ','
9728	40	(unknown)  '@'
9729	52	(unknown)  'R'
972a	69	(unknown)  'i'
972b	20	(unknown)  ' '
972c	20	(unknown)  ' '
972d	20	(unknown)  ' '
972e	41	(unknown)  'A'
972f	2c	(unknown)  ','
9730	23	(unknown)  '#'
9731	64	(unknown)  'd'
9732	38	(unknown)  '8'
9733	20	(unknown)  ' '
9734	20	(unknown)  ' '
9735	20	(unknown)  ' '
9736	64	(unknown)  'd'
9737	69	(unknown)  'i'
9738	72	(unknown)  'r'
9739	2c	(unknown)  ','
973a	41	(unknown)  'A'
973b	20	(unknown)  ' '
973c	20	(unknown)  ' '
973d	20	(unknown)  ' '
973e	64	(unknown)  'd'
973f	69	(unknown)  'i'
9740	72	(unknown)  'r'
9741	2c	(unknown)  ','
9742	23	(unknown)  '#'
9743	64	(unknown)  'd'
9744	38	(unknown)  '8'
9745	20	(unknown)  ' '
9746	04	(unknown)  '.'
9747	03	(unknown)  '.'
9748	03	(unknown)  '.'
9749	41	(unknown)  'A'
974a	20	(unknown)  ' '
974b	20	(unknown)  ' '
974c	20	(unknown)  ' '
974d	43	(unknown)  'C'
974e	20	(unknown)  ' '
974f	20	(unknown)  ' '
9750	20	(unknown)  ' '
9751	62	(unknown)  'b'
9752	69	(unknown)  'i'
9753	74	(unknown)  't'
9754	20	(unknown)  ' '
9755	09	(unknown)  '.'
9756	01	(unknown)  '.'
9757	12	(unknown)  '.'
9758	41	(unknown)  'A'
9759	2c	(unknown)  ','
975a	52	(unknown)  'R'
975b	72	(unknown)  'r'
975c	20	(unknown)  ' '
975d	20	(unknown)  ' '
975e	20	(unknown)  ' '
975f	20	(unknown)  ' '
9760	20	(unknown)  ' '
9761	41	(unknown)  'A'
9762	2c	(unknown)  ','
9763	64	(unknown)  'd'
9764	69	(unknown)  'i'
9765	72	(unknown)  'r'
9766	20	(unknown)  ' '
9767	20	(unknown)  ' '
9768	20	(unknown)  ' '
9769	20	(unknown)  ' '
976a	41	(unknown)  'A'
976b	2c	(unknown)  ','
976c	40	(unknown)  '@'
976d	52	(unknown)  'R'
976e	69	(unknown)  'i'
976f	20	(unknown)  ' '
9770	20	(unknown)  ' '
9771	20	(unknown)  ' '
9772	20	(unknown)  ' '
9773	41	(unknown)  'A'
9774	2c	(unknown)  ','
9775	23	(unknown)  '#'
9776	64	(unknown)  'd'
9777	38	(unknown)  '8'
9778	20	(unknown)  ' '
9779	20	(unknown)  ' '
977a	20	(unknown)  ' '
977b	20	(unknown)  ' '
977c	52	(unknown)  'R'
977d	72	(unknown)  'r'
977e	2c	(unknown)  ','
977f	41	(unknown)  'A'
9780	20	(unknown)  ' '
9781	20	(unknown)  ' '
9782	20	(unknown)  ' '
9783	20	(unknown)  ' '
9784	20	(unknown)  ' '
9785	52	(unknown)  'R'
9786	72	(unknown)  'r'
9787	2c	(unknown)  ','
9788	64	(unknown)  'd'
9789	69	(unknown)  'i'
978a	72	(unknown)  'r'
978b	20	(unknown)  ' '
978c	20	(unknown)  ' '
978d	20	(unknown)  ' '
978e	52	(unknown)  'R'
978f	72	(unknown)  'r'
9790	2c	(unknown)  ','
9791	23	(unknown)  '#'
9792	64	(unknown)  'd'
9793	38	(unknown)  '8'
9794	20	(unknown)  ' '
9795	20	(unknown)  ' '
9796	20	(unknown)  ' '
9797	64	(unknown)  'd'
9798	69	(unknown)  'i'
9799	72	(unknown)  'r'
979a	2c	(unknown)  ','
979b	41	(unknown)  'A'
979c	20	(unknown)  ' '
979d	20	(unknown)  ' '
979e	20	(unknown)  ' '
979f	20	(unknown)  ' '
97a0	64	(unknown)  'd'
97a1	69	(unknown)  'i'
97a2	72	(unknown)  'r'
97a3	2c	(unknown)  ','
97a4	52	(unknown)  'R'
97a5	72	(unknown)  'r'
97a6	20	(unknown)  ' '
97a7	20	(unknown)  ' '
97a8	20	(unknown)  ' '
97a9	64	(unknown)  'd'
97aa	69	(unknown)  'i'
97ab	72	(unknown)  'r'
97ac	2c	(unknown)  ','
97ad	64	(unknown)  'd'
97ae	69	(unknown)  'i'
97af	72	(unknown)  'r'
97b0	20	(unknown)  ' '
97b1	20	(unknown)  ' '
97b2	64	(unknown)  'd'
97b3	69	(unknown)  'i'
97b4	72	(unknown)  'r'
97b5	2c	(unknown)  ','
97b6	40	(unknown)  '@'
97b7	52	(unknown)  'R'
97b8	69	(unknown)  'i'
97b9	20	(unknown)  ' '
97ba	20	(unknown)  ' '
97bb	64	(unknown)  'd'
97bc	69	(unknown)  'i'
97bd	72	(unknown)  'r'
97be	2c	(unknown)  ','
97bf	23	(unknown)  '#'
97c0	64	(unknown)  'd'
97c1	38	(unknown)  '8'
97c2	20	(unknown)  ' '
97c3	20	(unknown)  ' '
97c4	40	(unknown)  '@'
97c5	52	(unknown)  'R'
97c6	69	(unknown)  'i'
97c7	2c	(unknown)  ','
97c8	41	(unknown)  'A'
97c9	20	(unknown)  ' '
97ca	20	(unknown)  ' '
97cb	20	(unknown)  ' '
97cc	20	(unknown)  ' '
97cd	40	(unknown)  '@'
97ce	52	(unknown)  'R'
97cf	69	(unknown)  'i'
97d0	2c	(unknown)  ','
97d1	64	(unknown)  'd'
97d2	69	(unknown)  'i'
97d3	72	(unknown)  'r'
97d4	20	(unknown)  ' '
97d5	20	(unknown)  ' '
97d6	40	(unknown)  '@'
97d7	52	(unknown)  'R'
97d8	69	(unknown)  'i'
97d9	2c	(unknown)  ','
97da	23	(unknown)  '#'
97db	64	(unknown)  'd'
97dc	38	(unknown)  '8'
97dd	20	(unknown)  ' '
97de	20	(unknown)  ' '
97df	44	(unknown)  'D'
97e0	50	(unknown)  'P'
97e1	54	(unknown)  'T'
97e2	52	(unknown)  'R'
97e3	2c	(unknown)  ','
97e4	23	(unknown)  '#'
97e5	64	(unknown)  'd'
97e6	31	(unknown)  '1'
97e7	36	(unknown)  '6'
97e8	43	(unknown)  'C'
97e9	2c	(unknown)  ','
97ea	62	(unknown)  'b'
97eb	69	(unknown)  'i'
97ec	74	(unknown)  't'
97ed	20	(unknown)  ' '
97ee	20	(unknown)  ' '
97ef	20	(unknown)  ' '
97f0	20	(unknown)  ' '
97f1	62	(unknown)  'b'
97f2	69	(unknown)  'i'
97f3	74	(unknown)  't'
97f4	2c	(unknown)  ','
97f5	43	(unknown)  'C'
97f6	20	(unknown)  ' '
97f7	20	(unknown)  ' '
97f8	20	(unknown)  ' '
97f9	20	(unknown)  ' '
97fa	09	(unknown)  '.'
97fb	01	(unknown)  '.'
97fc	02	(unknown)  '.'
97fd	41	(unknown)  'A'
97fe	2c	(unknown)  ','
97ff	40	(unknown)  '@'
9800	41	(unknown)  'A'
9801	2b	(unknown)  '+'
9802	44	(unknown)  'D'
9803	50	(unknown)  'P'
9804	54	(unknown)  'T'
9805	52	(unknown)  'R'
9806	41	(unknown)  'A'
9807	2c	(unknown)  ','
9808	40	(unknown)  '@'
9809	41	(unknown)  'A'
980a	2b	(unknown)  '+'
980b	50	(unknown)  'P'
980c	43	(unknown)  'C'
980d	20	(unknown)  ' '
980e	20	(unknown)  ' '
980f	08	(unknown)  '.'
9810	02	(unknown)  '.'
9811	04	(unknown)  '.'
9812	41	(unknown)  'A'
9813	2c	(unknown)  ','
9814	40	(unknown)  '@'
9815	52	(unknown)  'R'
9816	69	(unknown)  'i'
9817	20	(unknown)  ' '
9818	20	(unknown)  ' '
9819	20	(unknown)  ' '
981a	41	(unknown)  'A'
981b	2c	(unknown)  ','
981c	40	(unknown)  '@'
981d	44	(unknown)  'D'
981e	50	(unknown)  'P'
981f	54	(unknown)  'T'
9820	52	(unknown)  'R'
9821	20	(unknown)  ' '
9822	40	(unknown)  '@'
9823	52	(unknown)  'R'
9824	69	(unknown)  'i'
9825	2c	(unknown)  ','
9826	41	(unknown)  'A'
9827	20	(unknown)  ' '
9828	20	(unknown)  ' '
9829	20	(unknown)  ' '
982a	40	(unknown)  '@'
982b	44	(unknown)  'D'
982c	50	(unknown)  'P'
982d	54	(unknown)  'T'
982e	52	(unknown)  'R'
982f	2c	(unknown)  ','
9830	41	(unknown)  'A'
9831	20	(unknown)  ' '
9832	03	(unknown)  '.'
9833	01	(unknown)  '.'
9834	01	(unknown)  '.'
9835	64	(unknown)  'd'
9836	69	(unknown)  'i'
9837	72	(unknown)  'r'
9838	06	(unknown)  '.'
9839	02	(unknown)  '.'
983a	03	(unknown)  '.'
983b	41	(unknown)  'A'
983c	2c	(unknown)  ','
983d	52	(unknown)  'R'
983e	72	(unknown)  'r'
983f	20	(unknown)  ' '
9840	20	(unknown)  ' '
9841	41	(unknown)  'A'
9842	2c	(unknown)  ','
9843	64	(unknown)  'd'
9844	69	(unknown)  'i'
9845	72	(unknown)  'r'
9846	20	(unknown)  ' '
9847	41	(unknown)  'A'
9848	2c	(unknown)  ','
9849	40	(unknown)  '@'
984a	52	(unknown)  'R'
984b	69	(unknown)  'i'
984c	20	(unknown)  ' '
984d	05	(unknown)  '.'
984e	01	(unknown)  '.'
984f	01	(unknown)  '.'
9850	41	(unknown)  'A'
9851	2c	(unknown)  ','
9852	40	(unknown)  '@'
9853	52	(unknown)  'R'
9854	69	(unknown)  'i'
9855	04	(unknown)  '.'
9856	01	(unknown)  '.'
9857	01	(unknown)  '.'
9858	61	(unknown)  'a'
9859	64	(unknown)  'd'
985a	64	(unknown)  'd'
985b	72	(unknown)  'r'
985c	03	(unknown)  '.'
985d	01	(unknown)  '.'
985e	01	(unknown)  '.'
985f	72	(unknown)  'r'
9860	65	(unknown)  'e'
9861	6c	(unknown)  'l'
9862	07	(unknown)  '.'
9863	01	(unknown)  '.'
9864	01	(unknown)  '.'
9865	40	(unknown)  '@'
9866	41	(unknown)  'A'
9867	2b	(unknown)  '+'
9868	44	(unknown)  'D'
9869	50	(unknown)  'P'
986a	54	(unknown)  'T'
986b	52	(unknown)  'R'
986c	07	(unknown)  '.'
986d	01	(unknown)  '.'
986e	01	(unknown)  '.'
986f	62	(unknown)  'b'
9870	69	(unknown)  'i'
9871	74	(unknown)  't'
9872	2c	(unknown)  ','
9873	72	(unknown)  'r'
9874	65	(unknown)  'e'
9875	6c	(unknown)  'l'
9876	0b	(unknown)  '.'
9877	01	(unknown)  '.'
9878	04	(unknown)  '.'
9879	41	(unknown)  'A'
987a	2c	(unknown)  ','
987b	64	(unknown)  'd'
987c	69	(unknown)  'i'
987d	72	(unknown)  'r'
987e	2c	(unknown)  ','
987f	72	(unknown)  'r'
9880	65	(unknown)  'e'
9881	6c	(unknown)  'l'
9882	20	(unknown)  ' '
9883	20	(unknown)  ' '
9884	41	(unknown)  'A'
9885	2c	(unknown)  ','
9886	23	(unknown)  '#'
9887	64	(unknown)  'd'
9888	38	(unknown)  '8'
9889	2c	(unknown)  ','
988a	72	(unknown)  'r'
988b	65	(unknown)  'e'
988c	6c	(unknown)  'l'
988d	20	(unknown)  ' '
988e	20	(unknown)  ' '
988f	52	(unknown)  'R'
9890	72	(unknown)  'r'
9891	2c	(unknown)  ','
9892	23	(unknown)  '#'
9893	64	(unknown)  'd'
9894	38	(unknown)  '8'
9895	2c	(unknown)  ','
9896	72	(unknown)  'r'
9897	65	(unknown)  'e'
9898	6c	(unknown)  'l'
9899	20	(unknown)  ' '
989a	40	(unknown)  '@'
989b	52	(unknown)  'R'
989c	69	(unknown)  'i'
989d	2c	(unknown)  ','
989e	23	(unknown)  '#'
989f	64	(unknown)  'd'
98a0	38	(unknown)  '8'
98a1	2c	(unknown)  ','
98a2	72	(unknown)  'r'
98a3	65	(unknown)  'e'
98a4	6c	(unknown)  'l'
98a5	08	(unknown)  '.'
98a6	02	(unknown)  '.'
98a7	02	(unknown)  '.'
98a8	52	(unknown)  'R'
98a9	72	(unknown)  'r'
98aa	2c	(unknown)  ','
98ab	72	(unknown)  'r'
98ac	65	(unknown)  'e'
98ad	6c	(unknown)  'l'
98ae	20	(unknown)  ' '
98af	20	(unknown)  ' '
98b0	64	(unknown)  'd'
98b1	69	(unknown)  'i'
98b2	72	(unknown)  'r'
98b3	2c	(unknown)  ','
98b4	72	(unknown)  'r'
98b5	65	(unknown)  'e'
98b6	6c	(unknown)  'l'
98b7	20	(unknown)  ' '
98b8	04	(unknown)  '.'
98b9	02	(unknown)  '.'
98ba	02	(unknown)  '.'
98bb	43	(unknown)  'C'
98bc	20	(unknown)  ' '
98bd	20	(unknown)  ' '
98be	20	(unknown)  ' '
98bf	62	(unknown)  'b'
98c0	69	(unknown)  'i'
98c1	74	(unknown)  't'
98c2	20	(unknown)  ' '
98c3	03	(unknown)  '.'
98c4	01	(unknown)  '.'
98c5	01	(unknown)  '.'
98c6	23	(unknown)  '#'
98c7	64	(unknown)  'd'
98c8	38	(unknown)  '8'
98c9	ff	(unknown)  '.'
98ca	ff	(unknown)  '.'
98cb	ff	(unknown)  '.'
98cc	ff	(unknown)  '.'
98cd	ff	(unknown)  '.'
98ce	ff	(unknown)  '.'
98cf	ff	(unknown)  '.'
98d0	ff	(unknown)  '.'
98d1	ff	(unknown)  '.'
98d2	ff	(unknown)  '.'
98d3	ff	(unknown)  '.'
98d4	ff	(unknown)  '.'
98d5	ff	(unknown)  '.'
98d6	ff	(unknown)  '.'
98d7	ff	(unknown)  '.'
98d8	ff	(unknown)  '.'
98d9	ff	(unknown)  '.'
98da	ff	(unknown)  '.'
98db	ff	(unknown)  '.'
98dc	ff	(unknown)  '.'
98dd	ff	(unknown)  '.'
98de	ff	(unknown)  '.'
98df	ff	(unknown)  '.'
98e0	ff	(unknown)  '.'
98e1	ff	(unknown)  '.'
98e2	ff	(unknown)  '.'
98e3	ff	(unknown)  '.'
98e4	ff	(unknown)  '.'
98e5	ff	(unknown)  '.'
98e6	ff	(unknown)  '.'
98e7	ff	(unknown)  '.'
98e8	ff	(unknown)  '.'
98e9	ff	(unknown)  '.'
98ea	ff	(unknown)  '.'
98eb	ff	(unknown)  '.'
98ec	ff	(unknown)  '.'
98ed	ff	(unknown)  '.'
98ee	ff	(unknown)  '.'
98ef	ff	(unknown)  '.'
98f0	ff	(unknown)  '.'
98f1	ff	(unknown)  '.'
98f2	ff	(unknown)  '.'
98f3	ff	(unknown)  '.'
98f4	ff	(unknown)  '.'
98f5	ff	(unknown)  '.'
98f6	ff	(unknown)  '.'
98f7	ff	(unknown)  '.'
98f8	ff	(unknown)  '.'
98f9	ff	(unknown)  '.'
98fa	ff	(unknown)  '.'
98fb	ff	(unknown)  '.'
98fc	ff	(unknown)  '.'
98fd	ff	(unknown)  '.'
98fe	ff	(unknown)  '.'
98ff	ff	(unknown)  '.'
9900	ff	(unknown)  '.'
9901	ff	(unknown)  '.'
9902	ff	(unknown)  '.'
9903	ff	(unknown)  '.'
9904	ff	(unknown)  '.'
9905	ff	(unknown)  '.'
9906	ff	(unknown)  '.'
9907	ff	(unknown)  '.'
9908	ff	(unknown)  '.'
9909	ff	(unknown)  '.'
990a	ff	(unknown)  '.'
990b	ff	(unknown)  '.'
990c	ff	(unknown)  '.'
990d	ff	(unknown)  '.'
990e	ff	(unknown)  '.'
990f	ff	(unknown)  '.'
9910	ff	(unknown)  '.'
9911	ff	(unknown)  '.'
9912	ff	(unknown)  '.'
9913	ff	(unknown)  '.'
9914	ff	(unknown)  '.'
9915	ff	(unknown)  '.'
9916	ff	(unknown)  '.'
9917	ff	(unknown)  '.'
9918	ff	(unknown)  '.'
9919	ff	(unknown)  '.'
991a	ff	(unknown)  '.'
991b	ff	(unknown)  '.'
991c	ff	(unknown)  '.'
991d	ff	(unknown)  '.'
991e	ff	(unknown)  '.'
991f	ff	(unknown)  '.'
9920	ff	(unknown)  '.'
9921	ff	(unknown)  '.'
9922	ff	(unknown)  '.'
9923	ff	(unknown)  '.'
9924	ff	(unknown)  '.'
9925	ff	(unknown)  '.'
9926	ff	(unknown)  '.'
9927	ff	(unknown)  '.'
9928	ff	(unknown)  '.'
9929	ff	(unknown)  '.'
992a	ff	(unknown)  '.'
992b	ff	(unknown)  '.'
992c	ff	(unknown)  '.'
992d	ff	(unknown)  '.'
992e	ff	(unknown)  '.'
992f	ff	(unknown)  '.'
9930	ff	(unknown)  '.'
9931	ff	(unknown)  '.'
9932	ff	(unknown)  '.'
9933	ff	(unknown)  '.'
9934	ff	(unknown)  '.'
9935	ff	(unknown)  '.'
9936	ff	(unknown)  '.'
9937	ff	(unknown)  '.'
9938	ff	(unknown)  '.'
9939	ff	(unknown)  '.'
993a	ff	(unknown)  '.'
993b	ff	(unknown)  '.'
993c	ff	(unknown)  '.'
993d	ff	(unknown)  '.'
993e	ff	(unknown)  '.'
993f	ff	(unknown)  '.'
9940	ff	(unknown)  '.'
9941	ff	(unknown)  '.'
9942	ff	(unknown)  '.'
9943	ff	(unknown)  '.'
9944	ff	(unknown)  '.'
9945	ff	(unknown)  '.'
9946	ff	(unknown)  '.'
9947	ff	(unknown)  '.'
9948	ff	(unknown)  '.'
9949	ff	(unknown)  '.'
994a	ff	(unknown)  '.'
994b	ff	(unknown)  '.'
994c	ff	(unknown)  '.'
994d	ff	(unknown)  '.'
994e	ff	(unknown)  '.'
994f	ff	(unknown)  '.'
9950	ff	(unknown)  '.'
9951	ff	(unknown)  '.'
9952	ff	(unknown)  '.'
9953	ff	(unknown)  '.'
9954	ff	(unknown)  '.'
9955	ff	(unknown)  '.'
9956	ff	(unknown)  '.'
9957	ff	(unknown)  '.'
9958	ff	(unknown)  '.'
9959	ff	(unknown)  '.'
995a	ff	(unknown)  '.'
995b	ff	(unknown)  '.'
995c	ff	(unknown)  '.'
995d	ff	(unknown)  '.'
995e	ff	(unknown)  '.'
995f	ff	(unknown)  '.'
9960	ff	(unknown)  '.'
9961	ff	(unknown)  '.'
9962	ff	(unknown)  '.'
9963	ff	(unknown)  '.'
9964	ff	(unknown)  '.'
9965	ff	(unknown)  '.'
9966	ff	(unknown)  '.'
9967	ff	(unknown)  '.'
9968	ff	(unknown)  '.'
9969	ff	(unknown)  '.'
996a	ff	(unknown)  '.'
996b	ff	(unknown)  '.'
996c	ff	(unknown)  '.'
996d	ff	(unknown)  '.'
996e	ff	(unknown)  '.'
996f	ff	(unknown)  '.'
9970	ff	(unknown)  '.'
9971	ff	(unknown)  '.'
9972	ff	(unknown)  '.'
9973	ff	(unknown)  '.'
9974	ff	(unknown)  '.'
9975	ff	(unknown)  '.'
9976	ff	(unknown)  '.'
9977	ff	(unknown)  '.'
9978	ff	(unknown)  '.'
9979	ff	(unknown)  '.'
997a	ff	(unknown)  '.'
997b	ff	(unknown)  '.'
997c	ff	(unknown)  '.'
997d	ff	(unknown)  '.'
997e	ff	(unknown)  '.'
997f	ff	(unknown)  '.'
9980	ff	(unknown)  '.'
9981	ff	(unknown)  '.'
9982	ff	(unknown)  '.'
9983	ff	(unknown)  '.'
9984	ff	(unknown)  '.'
9985	ff	(unknown)  '.'
9986	ff	(unknown)  '.'
9987	ff	(unknown)  '.'
9988	ff	(unknown)  '.'
9989	ff	(unknown)  '.'
998a	ff	(unknown)  '.'
998b	ff	(unknown)  '.'
998c	ff	(unknown)  '.'
998d	ff	(unknown)  '.'
998e	ff	(unknown)  '.'
998f	ff	(unknown)  '.'
9990	ff	(unknown)  '.'
9991	ff	(unknown)  '.'
9992	ff	(unknown)  '.'
9993	ff	(unknown)  '.'
9994	ff	(unknown)  '.'
9995	ff	(unknown)  '.'
9996	ff	(unknown)  '.'
9997	ff	(unknown)  '.'
9998	ff	(unknown)  '.'
9999	ff	(unknown)  '.'
999a	ff	(unknown)  '.'
999b	ff	(unknown)  '.'
999c	ff	(unknown)  '.'
999d	ff	(unknown)  '.'
999e	ff	(unknown)  '.'
999f	ff	(unknown)  '.'
99a0	ff	(unknown)  '.'
99a1	ff	(unknown)  '.'
99a2	ff	(unknown)  '.'
99a3	ff	(unknown)  '.'
99a4	ff	(unknown)  '.'
99a5	ff	(unknown)  '.'
99a6	ff	(unknown)  '.'
99a7	ff	(unknown)  '.'
99a8	ff	(unknown)  '.'
99a9	ff	(unknown)  '.'
99aa	ff	(unknown)  '.'
99ab	ff	(unknown)  '.'
99ac	ff	(unknown)  '.'
99ad	ff	(unknown)  '.'
99ae	ff	(unknown)  '.'
99af	ff	(unknown)  '.'
99b0	ff	(unknown)  '.'
99b1	ff	(unknown)  '.'
99b2	ff	(unknown)  '.'
99b3	ff	(unknown)  '.'
99b4	ff	(unknown)  '.'
99b5	ff	(unknown)  '.'
99b6	ff	(unknown)  '.'
99b7	ff	(unknown)  '.'
99b8	ff	(unknown)  '.'
99b9	ff	(unknown)  '.'
99ba	ff	(unknown)  '.'
99bb	ff	(unknown)  '.'
99bc	ff	(unknown)  '.'
99bd	ff	(unknown)  '.'
99be	ff	(unknown)  '.'
99bf	ff	(unknown)  '.'
99c0	ff	(unknown)  '.'
99c1	ff	(unknown)  '.'
99c2	ff	(unknown)  '.'
99c3	ff	(unknown)  '.'
99c4	ff	(unknown)  '.'
99c5	ff	(unknown)  '.'
99c6	ff	(unknown)  '.'
99c7	ff	(unknown)  '.'
99c8	ff	(unknown)  '.'
99c9	ff	(unknown)  '.'
99ca	ff	(unknown)  '.'
99cb	ff	(unknown)  '.'
99cc	ff	(unknown)  '.'
99cd	ff	(unknown)  '.'
99ce	ff	(unknown)  '.'
99cf	ff	(unknown)  '.'
99d0	ff	(unknown)  '.'
99d1	ff	(unknown)  '.'
99d2	ff	(unknown)  '.'
99d3	ff	(unknown)  '.'
99d4	ff	(unknown)  '.'
99d5	ff	(unknown)  '.'
99d6	ff	(unknown)  '.'
99d7	ff	(unknown)  '.'
99d8	ff	(unknown)  '.'
99d9	ff	(unknown)  '.'
99da	ff	(unknown)  '.'
99db	ff	(unknown)  '.'
99dc	ff	(unknown)  '.'
99dd	ff	(unknown)  '.'
99de	ff	(unknown)  '.'
99df	ff	(unknown)  '.'
99e0	ff	(unknown)  '.'
99e1	ff	(unknown)  '.'
99e2	ff	(unknown)  '.'
99e3	ff	(unknown)  '.'
99e4	ff	(unknown)  '.'
99e5	ff	(unknown)  '.'
99e6	ff	(unknown)  '.'
99e7	ff	(unknown)  '.'
99e8	ff	(unknown)  '.'
99e9	ff	(unknown)  '.'
99ea	ff	(unknown)  '.'
99eb	ff	(unknown)  '.'
99ec	ff	(unknown)  '.'
99ed	ff	(unknown)  '.'
99ee	ff	(unknown)  '.'
99ef	ff	(unknown)  '.'
99f0	ff	(unknown)  '.'
99f1	ff	(unknown)  '.'
99f2	ff	(unknown)  '.'
99f3	ff	(unknown)  '.'
99f4	ff	(unknown)  '.'
99f5	ff	(unknown)  '.'
99f6	ff	(unknown)  '.'
99f7	ff	(unknown)  '.'
99f8	ff	(unknown)  '.'
99f9	ff	(unknown)  '.'
99fa	ff	(unknown)  '.'
99fb	ff	(unknown)  '.'
99fc	ff	(unknown)  '.'
99fd	ff	(unknown)  '.'
99fe	ff	(unknown)  '.'
99ff	ff	(unknown)  '.'
9a00	ff	(unknown)  '.'
9a01	ff	(unknown)  '.'
9a02	ff	(unknown)  '.'
9a03	ff	(unknown)  '.'
9a04	ff	(unknown)  '.'
9a05	ff	(unknown)  '.'
9a06	ff	(unknown)  '.'
9a07	ff	(unknown)  '.'
9a08	ff	(unknown)  '.'
9a09	ff	(unknown)  '.'
9a0a	ff	(unknown)  '.'
9a0b	ff	(unknown)  '.'
9a0c	ff	(unknown)  '.'
9a0d	ff	(unknown)  '.'
9a0e	ff	(unknown)  '.'
9a0f	ff	(unknown)  '.'
9a10	ff	(unknown)  '.'
9a11	ff	(unknown)  '.'
9a12	ff	(unknown)  '.'
9a13	ff	(unknown)  '.'
9a14	ff	(unknown)  '.'
9a15	ff	(unknown)  '.'
9a16	ff	(unknown)  '.'
9a17	ff	(unknown)  '.'
9a18	ff	(unknown)  '.'
9a19	ff	(unknown)  '.'
9a1a	ff	(unknown)  '.'
9a1b	ff	(unknown)  '.'
9a1c	ff	(unknown)  '.'
9a1d	ff	(unknown)  '.'
9a1e	ff	(unknown)  '.'
9a1f	ff	(unknown)  '.'
9a20	ff	(unknown)  '.'
9a21	ff	(unknown)  '.'
9a22	ff	(unknown)  '.'
9a23	ff	(unknown)  '.'
9a24	ff	(unknown)  '.'
9a25	ff	(unknown)  '.'
9a26	ff	(unknown)  '.'
9a27	ff	(unknown)  '.'
9a28	ff	(unknown)  '.'
9a29	ff	(unknown)  '.'
9a2a	ff	(unknown)  '.'
9a2b	ff	(unknown)  '.'
9a2c	ff	(unknown)  '.'
9a2d	ff	(unknown)  '.'
9a2e	ff	(unknown)  '.'
9a2f	ff	(unknown)  '.'
9a30	ff	(unknown)  '.'
9a31	ff	(unknown)  '.'
9a32	ff	(unknown)  '.'
9a33	ff	(unknown)  '.'
9a34	ff	(unknown)  '.'
9a35	ff	(unknown)  '.'
9a36	ff	(unknown)  '.'
9a37	ff	(unknown)  '.'
9a38	ff	(unknown)  '.'
9a39	ff	(unknown)  '.'
9a3a	ff	(unknown)  '.'
9a3b	ff	(unknown)  '.'
9a3c	ff	(unknown)  '.'
9a3d	ff	(unknown)  '.'
9a3e	ff	(unknown)  '.'
9a3f	ff	(unknown)  '.'
9a40	ff	(unknown)  '.'
9a41	ff	(unknown)  '.'
9a42	ff	(unknown)  '.'
9a43	ff	(unknown)  '.'
9a44	ff	(unknown)  '.'
9a45	ff	(unknown)  '.'
9a46	ff	(unknown)  '.'
9a47	ff	(unknown)  '.'
9a48	ff	(unknown)  '.'
9a49	ff	(unknown)  '.'
9a4a	ff	(unknown)  '.'
9a4b	ff	(unknown)  '.'
9a4c	ff	(unknown)  '.'
9a4d	ff	(unknown)  '.'
9a4e	ff	(unknown)  '.'
9a4f	ff	(unknown)  '.'
9a50	ff	(unknown)  '.'
9a51	ff	(unknown)  '.'
9a52	ff	(unknown)  '.'
9a53	ff	(unknown)  '.'
9a54	ff	(unknown)  '.'
9a55	ff	(unknown)  '.'
9a56	ff	(unknown)  '.'
9a57	ff	(unknown)  '.'
9a58	ff	(unknown)  '.'
9a59	ff	(unknown)  '.'
9a5a	ff	(unknown)  '.'
9a5b	ff	(unknown)  '.'
9a5c	ff	(unknown)  '.'
9a5d	ff	(unknown)  '.'
9a5e	ff	(unknown)  '.'
9a5f	ff	(unknown)  '.'
9a60	ff	(unknown)  '.'
9a61	ff	(unknown)  '.'
9a62	ff	(unknown)  '.'
9a63	ff	(unknown)  '.'
9a64	ff	(unknown)  '.'
9a65	ff	(unknown)  '.'
9a66	ff	(unknown)  '.'
9a67	ff	(unknown)  '.'
9a68	ff	(unknown)  '.'
9a69	ff	(unknown)  '.'
9a6a	ff	(unknown)  '.'
9a6b	ff	(unknown)  '.'
9a6c	ff	(unknown)  '.'
9a6d	ff	(unknown)  '.'
9a6e	ff	(unknown)  '.'
9a6f	ff	(unknown)  '.'
9a70	ff	(unknown)  '.'
9a71	ff	(unknown)  '.'
9a72	ff	(unknown)  '.'
9a73	ff	(unknown)  '.'
9a74	ff	(unknown)  '.'
9a75	ff	(unknown)  '.'
9a76	ff	(unknown)  '.'
9a77	ff	(unknown)  '.'
9a78	ff	(unknown)  '.'
9a79	ff	(unknown)  '.'
9a7a	ff	(unknown)  '.'
9a7b	ff	(unknown)  '.'
9a7c	ff	(unknown)  '.'
9a7d	ff	(unknown)  '.'
9a7e	ff	(unknown)  '.'
9a7f	ff	(unknown)  '.'
9a80	ff	(unknown)  '.'
9a81	ff	(unknown)  '.'
9a82	ff	(unknown)  '.'
9a83	ff	(unknown)  '.'
9a84	ff	(unknown)  '.'
9a85	ff	(unknown)  '.'
9a86	ff	(unknown)  '.'
9a87	ff	(unknown)  '.'
9a88	ff	(unknown)  '.'
9a89	ff	(unknown)  '.'
9a8a	ff	(unknown)  '.'
9a8b	ff	(unknown)  '.'
9a8c	ff	(unknown)  '.'
9a8d	ff	(unknown)  '.'
9a8e	ff	(unknown)  '.'
9a8f	ff	(unknown)  '.'
9a90	ff	(unknown)  '.'
9a91	ff	(unknown)  '.'
9a92	ff	(unknown)  '.'
9a93	ff	(unknown)  '.'
9a94	ff	(unknown)  '.'
9a95	ff	(unknown)  '.'
9a96	ff	(unknown)  '.'
9a97	ff	(unknown)  '.'
9a98	ff	(unknown)  '.'
9a99	ff	(unknown)  '.'
9a9a	ff	(unknown)  '.'
9a9b	ff	(unknown)  '.'
9a9c	ff	(unknown)  '.'
9a9d	ff	(unknown)  '.'
9a9e	ff	(unknown)  '.'
9a9f	ff	(unknown)  '.'
9aa0	ff	(unknown)  '.'
9aa1	ff	(unknown)  '.'
9aa2	ff	(unknown)  '.'
9aa3	ff	(unknown)  '.'
9aa4	ff	(unknown)  '.'
9aa5	ff	(unknown)  '.'
9aa6	ff	(unknown)  '.'
9aa7	ff	(unknown)  '.'
9aa8	ff	(unknown)  '.'
9aa9	ff	(unknown)  '.'
9aaa	ff	(unknown)  '.'
9aab	ff	(unknown)  '.'
9aac	ff	(unknown)  '.'
9aad	ff	(unknown)  '.'
9aae	ff	(unknown)  '.'
9aaf	ff	(unknown)  '.'
9ab0	ff	(unknown)  '.'
9ab1	ff	(unknown)  '.'
9ab2	ff	(unknown)  '.'
9ab3	ff	(unknown)  '.'
9ab4	ff	(unknown)  '.'
9ab5	ff	(unknown)  '.'
9ab6	ff	(unknown)  '.'
9ab7	ff	(unknown)  '.'
9ab8	ff	(unknown)  '.'
9ab9	ff	(unknown)  '.'
9aba	ff	(unknown)  '.'
9abb	ff	(unknown)  '.'
9abc	ff	(unknown)  '.'
9abd	ff	(unknown)  '.'
9abe	ff	(unknown)  '.'
9abf	ff	(unknown)  '.'
9ac0	ff	(unknown)  '.'
9ac1	ff	(unknown)  '.'
9ac2	ff	(unknown)  '.'
9ac3	ff	(unknown)  '.'
9ac4	ff	(unknown)  '.'
9ac5	ff	(unknown)  '.'
9ac6	ff	(unknown)  '.'
9ac7	ff	(unknown)  '.'
9ac8	ff	(unknown)  '.'
9ac9	ff	(unknown)  '.'
9aca	ff	(unknown)  '.'
9acb	ff	(unknown)  '.'
9acc	ff	(unknown)  '.'
9acd	ff	(unknown)  '.'
9ace	ff	(unknown)  '.'
9acf	ff	(unknown)  '.'
9ad0	ff	(unknown)  '.'
9ad1	ff	(unknown)  '.'
9ad2	ff	(unknown)  '.'
9ad3	ff	(unknown)  '.'
9ad4	ff	(unknown)  '.'
9ad5	ff	(unknown)  '.'
9ad6	ff	(unknown)  '.'
9ad7	ff	(unknown)  '.'
9ad8	ff	(unknown)  '.'
9ad9	ff	(unknown)  '.'
9ada	ff	(unknown)  '.'
9adb	ff	(unknown)  '.'
9adc	ff	(unknown)  '.'
9add	ff	(unknown)  '.'
9ade	ff	(unknown)  '.'
9adf	ff	(unknown)  '.'
9ae0	ff	(unknown)  '.'
9ae1	ff	(unknown)  '.'
9ae2	ff	(unknown)  '.'
9ae3	ff	(unknown)  '.'
9ae4	ff	(unknown)  '.'
9ae5	ff	(unknown)  '.'
9ae6	ff	(unknown)  '.'
9ae7	ff	(unknown)  '.'
9ae8	ff	(unknown)  '.'
9ae9	ff	(unknown)  '.'
9aea	ff	(unknown)  '.'
9aeb	ff	(unknown)  '.'
9aec	ff	(unknown)  '.'
9aed	ff	(unknown)  '.'
9aee	ff	(unknown)  '.'
9aef	ff	(unknown)  '.'
9af0	ff	(unknown)  '.'
9af1	ff	(unknown)  '.'
9af2	ff	(unknown)  '.'
9af3	ff	(unknown)  '.'
9af4	ff	(unknown)  '.'
9af5	ff	(unknown)  '.'
9af6	ff	(unknown)  '.'
9af7	ff	(unknown)  '.'
9af8	ff	(unknown)  '.'
9af9	ff	(unknown)  '.'
9afa	ff	(unknown)  '.'
9afb	ff	(unknown)  '.'
9afc	ff	(unknown)  '.'
9afd	ff	(unknown)  '.'
9afe	ff	(unknown)  '.'
9aff	ff	(unknown)  '.'
9b00	ff	(unknown)  '.'
9b01	ff	(unknown)  '.'
9b02	ff	(unknown)  '.'
9b03	ff	(unknown)  '.'
9b04	ff	(unknown)  '.'
9b05	ff	(unknown)  '.'
9b06	ff	(unknown)  '.'
9b07	ff	(unknown)  '.'
9b08	ff	(unknown)  '.'
9b09	ff	(unknown)  '.'
9b0a	ff	(unknown)  '.'
9b0b	ff	(unknown)  '.'
9b0c	ff	(unknown)  '.'
9b0d	ff	(unknown)  '.'
9b0e	ff	(unknown)  '.'
9b0f	ff	(unknown)  '.'
9b10	ff	(unknown)  '.'
9b11	ff	(unknown)  '.'
9b12	ff	(unknown)  '.'
9b13	ff	(unknown)  '.'
9b14	ff	(unknown)  '.'
9b15	ff	(unknown)  '.'
9b16	ff	(unknown)  '.'
9b17	ff	(unknown)  '.'
9b18	ff	(unknown)  '.'
9b19	ff	(unknown)  '.'
9b1a	ff	(unknown)  '.'
9b1b	ff	(unknown)  '.'
9b1c	ff	(unknown)  '.'
9b1d	ff	(unknown)  '.'
9b1e	ff	(unknown)  '.'
9b1f	ff	(unknown)  '.'
9b20	ff	(unknown)  '.'
9b21	ff	(unknown)  '.'
9b22	ff	(unknown)  '.'
9b23	ff	(unknown)  '.'
9b24	ff	(unknown)  '.'
9b25	ff	(unknown)  '.'
9b26	ff	(unknown)  '.'
9b27	ff	(unknown)  '.'
9b28	ff	(unknown)  '.'
9b29	ff	(unknown)  '.'
9b2a	ff	(unknown)  '.'
9b2b	ff	(unknown)  '.'
9b2c	ff	(unknown)  '.'
9b2d	ff	(unknown)  '.'
9b2e	ff	(unknown)  '.'
9b2f	ff	(unknown)  '.'
9b30	ff	(unknown)  '.'
9b31	ff	(unknown)  '.'
9b32	ff	(unknown)  '.'
9b33	ff	(unknown)  '.'
9b34	ff	(unknown)  '.'
9b35	ff	(unknown)  '.'
9b36	ff	(unknown)  '.'
9b37	ff	(unknown)  '.'
9b38	ff	(unknown)  '.'
9b39	ff	(unknown)  '.'
9b3a	ff	(unknown)  '.'
9b3b	ff	(unknown)  '.'
9b3c	ff	(unknown)  '.'
9b3d	ff	(unknown)  '.'
9b3e	ff	(unknown)  '.'
9b3f	ff	(unknown)  '.'
9b40	ff	(unknown)  '.'
9b41	ff	(unknown)  '.'
9b42	ff	(unknown)  '.'
9b43	ff	(unknown)  '.'
9b44	ff	(unknown)  '.'
9b45	ff	(unknown)  '.'
9b46	ff	(unknown)  '.'
9b47	ff	(unknown)  '.'
9b48	ff	(unknown)  '.'
9b49	ff	(unknown)  '.'
9b4a	ff	(unknown)  '.'
9b4b	ff	(unknown)  '.'
9b4c	ff	(unknown)  '.'
9b4d	ff	(unknown)  '.'
9b4e	ff	(unknown)  '.'
9b4f	ff	(unknown)  '.'
9b50	ff	(unknown)  '.'
9b51	ff	(unknown)  '.'
9b52	ff	(unknown)  '.'
9b53	ff	(unknown)  '.'
9b54	ff	(unknown)  '.'
9b55	ff	(unknown)  '.'
9b56	ff	(unknown)  '.'
9b57	ff	(unknown)  '.'
9b58	ff	(unknown)  '.'
9b59	ff	(unknown)  '.'
9b5a	ff	(unknown)  '.'
9b5b	ff	(unknown)  '.'
9b5c	ff	(unknown)  '.'
9b5d	ff	(unknown)  '.'
9b5e	ff	(unknown)  '.'
9b5f	ff	(unknown)  '.'
9b60	ff	(unknown)  '.'
9b61	ff	(unknown)  '.'
9b62	ff	(unknown)  '.'
9b63	ff	(unknown)  '.'
9b64	ff	(unknown)  '.'
9b65	ff	(unknown)  '.'
9b66	ff	(unknown)  '.'
9b67	ff	(unknown)  '.'
9b68	ff	(unknown)  '.'
9b69	ff	(unknown)  '.'
9b6a	ff	(unknown)  '.'
9b6b	ff	(unknown)  '.'
9b6c	ff	(unknown)  '.'
9b6d	ff	(unknown)  '.'
9b6e	ff	(unknown)  '.'
9b6f	ff	(unknown)  '.'
9b70	ff	(unknown)  '.'
9b71	ff	(unknown)  '.'
9b72	ff	(unknown)  '.'
9b73	ff	(unknown)  '.'
9b74	ff	(unknown)  '.'
9b75	ff	(unknown)  '.'
9b76	ff	(unknown)  '.'
9b77	ff	(unknown)  '.'
9b78	ff	(unknown)  '.'
9b79	ff	(unknown)  '.'
9b7a	ff	(unknown)  '.'
9b7b	ff	(unknown)  '.'
9b7c	ff	(unknown)  '.'
9b7d	ff	(unknown)  '.'
9b7e	ff	(unknown)  '.'
9b7f	ff	(unknown)  '.'
9b80	ff	(unknown)  '.'
9b81	ff	(unknown)  '.'
9b82	ff	(unknown)  '.'
9b83	ff	(unknown)  '.'
9b84	ff	(unknown)  '.'
9b85	ff	(unknown)  '.'
9b86	ff	(unknown)  '.'
9b87	ff	(unknown)  '.'
9b88	ff	(unknown)  '.'
9b89	ff	(unknown)  '.'
9b8a	ff	(unknown)  '.'
9b8b	ff	(unknown)  '.'
9b8c	ff	(unknown)  '.'
9b8d	ff	(unknown)  '.'
9b8e	ff	(unknown)  '.'
9b8f	ff	(unknown)  '.'
9b90	ff	(unknown)  '.'
9b91	ff	(unknown)  '.'
9b92	ff	(unknown)  '.'
9b93	ff	(unknown)  '.'
9b94	ff	(unknown)  '.'
9b95	ff	(unknown)  '.'
9b96	ff	(unknown)  '.'
9b97	ff	(unknown)  '.'
9b98	ff	(unknown)  '.'
9b99	ff	(unknown)  '.'
9b9a	ff	(unknown)  '.'
9b9b	ff	(unknown)  '.'
9b9c	ff	(unknown)  '.'
9b9d	ff	(unknown)  '.'
9b9e	ff	(unknown)  '.'
9b9f	ff	(unknown)  '.'
9ba0	ff	(unknown)  '.'
9ba1	ff	(unknown)  '.'
9ba2	ff	(unknown)  '.'
9ba3	ff	(unknown)  '.'
9ba4	ff	(unknown)  '.'
9ba5	ff	(unknown)  '.'
9ba6	ff	(unknown)  '.'
9ba7	ff	(unknown)  '.'
9ba8	ff	(unknown)  '.'
9ba9	ff	(unknown)  '.'
9baa	ff	(unknown)  '.'
9bab	ff	(unknown)  '.'
9bac	ff	(unknown)  '.'
9bad	ff	(unknown)  '.'
9bae	ff	(unknown)  '.'
9baf	ff	(unknown)  '.'
9bb0	ff	(unknown)  '.'
9bb1	ff	(unknown)  '.'
9bb2	ff	(unknown)  '.'
9bb3	ff	(unknown)  '.'
9bb4	ff	(unknown)  '.'
9bb5	ff	(unknown)  '.'
9bb6	ff	(unknown)  '.'
9bb7	ff	(unknown)  '.'
9bb8	ff	(unknown)  '.'
9bb9	ff	(unknown)  '.'
9bba	ff	(unknown)  '.'
9bbb	ff	(unknown)  '.'
9bbc	ff	(unknown)  '.'
9bbd	ff	(unknown)  '.'
9bbe	ff	(unknown)  '.'
9bbf	ff	(unknown)  '.'
9bc0	ff	(unknown)  '.'
9bc1	ff	(unknown)  '.'
9bc2	ff	(unknown)  '.'
9bc3	ff	(unknown)  '.'
9bc4	ff	(unknown)  '.'
9bc5	ff	(unknown)  '.'
9bc6	ff	(unknown)  '.'
9bc7	ff	(unknown)  '.'
9bc8	ff	(unknown)  '.'
9bc9	ff	(unknown)  '.'
9bca	ff	(unknown)  '.'
9bcb	ff	(unknown)  '.'
9bcc	ff	(unknown)  '.'
9bcd	ff	(unknown)  '.'
9bce	ff	(unknown)  '.'
9bcf	ff	(unknown)  '.'
9bd0	ff	(unknown)  '.'
9bd1	ff	(unknown)  '.'
9bd2	ff	(unknown)  '.'
9bd3	ff	(unknown)  '.'
9bd4	ff	(unknown)  '.'
9bd5	ff	(unknown)  '.'
9bd6	ff	(unknown)  '.'
9bd7	ff	(unknown)  '.'
9bd8	ff	(unknown)  '.'
9bd9	ff	(unknown)  '.'
9bda	ff	(unknown)  '.'
9bdb	ff	(unknown)  '.'
9bdc	ff	(unknown)  '.'
9bdd	ff	(unknown)  '.'
9bde	ff	(unknown)  '.'
9bdf	ff	(unknown)  '.'
9be0	ff	(unknown)  '.'
9be1	ff	(unknown)  '.'
9be2	ff	(unknown)  '.'
9be3	ff	(unknown)  '.'
9be4	ff	(unknown)  '.'
9be5	ff	(unknown)  '.'
9be6	ff	(unknown)  '.'
9be7	ff	(unknown)  '.'
9be8	ff	(unknown)  '.'
9be9	ff	(unknown)  '.'
9bea	ff	(unknown)  '.'
9beb	ff	(unknown)  '.'
9bec	ff	(unknown)  '.'
9bed	ff	(unknown)  '.'
9bee	ff	(unknown)  '.'
9bef	ff	(unknown)  '.'
9bf0	ff	(unknown)  '.'
9bf1	ff	(unknown)  '.'
9bf2	ff	(unknown)  '.'
9bf3	ff	(unknown)  '.'
9bf4	ff	(unknown)  '.'
9bf5	ff	(unknown)  '.'
9bf6	ff	(unknown)  '.'
9bf7	ff	(unknown)  '.'
9bf8	ff	(unknown)  '.'
9bf9	ff	(unknown)  '.'
9bfa	ff	(unknown)  '.'
9bfb	ff	(unknown)  '.'
9bfc	ff	(unknown)  '.'
9bfd	ff	(unknown)  '.'
9bfe	ff	(unknown)  '.'
9bff	ff	(unknown)  '.'
9c00	ff	(unknown)  '.'
9c01	ff	(unknown)  '.'
9c02	ff	(unknown)  '.'
9c03	ff	(unknown)  '.'
9c04	ff	(unknown)  '.'
9c05	ff	(unknown)  '.'
9c06	ff	(unknown)  '.'
9c07	ff	(unknown)  '.'
9c08	ff	(unknown)  '.'
9c09	ff	(unknown)  '.'
9c0a	ff	(unknown)  '.'
9c0b	ff	(unknown)  '.'
9c0c	ff	(unknown)  '.'
9c0d	ff	(unknown)  '.'
9c0e	ff	(unknown)  '.'
9c0f	ff	(unknown)  '.'
9c10	ff	(unknown)  '.'
9c11	ff	(unknown)  '.'
9c12	ff	(unknown)  '.'
9c13	ff	(unknown)  '.'
9c14	ff	(unknown)  '.'
9c15	ff	(unknown)  '.'
9c16	ff	(unknown)  '.'
9c17	ff	(unknown)  '.'
9c18	ff	(unknown)  '.'
9c19	ff	(unknown)  '.'
9c1a	ff	(unknown)  '.'
9c1b	ff	(unknown)  '.'
9c1c	ff	(unknown)  '.'
9c1d	ff	(unknown)  '.'
9c1e	ff	(unknown)  '.'
9c1f	ff	(unknown)  '.'
9c20	ff	(unknown)  '.'
9c21	ff	(unknown)  '.'
9c22	ff	(unknown)  '.'
9c23	ff	(unknown)  '.'
9c24	ff	(unknown)  '.'
9c25	ff	(unknown)  '.'
9c26	ff	(unknown)  '.'
9c27	ff	(unknown)  '.'
9c28	ff	(unknown)  '.'
9c29	ff	(unknown)  '.'
9c2a	ff	(unknown)  '.'
9c2b	ff	(unknown)  '.'
9c2c	ff	(unknown)  '.'
9c2d	ff	(unknown)  '.'
9c2e	ff	(unknown)  '.'
9c2f	ff	(unknown)  '.'
9c30	ff	(unknown)  '.'
9c31	ff	(unknown)  '.'
9c32	ff	(unknown)  '.'
9c33	ff	(unknown)  '.'
9c34	ff	(unknown)  '.'
9c35	ff	(unknown)  '.'
9c36	ff	(unknown)  '.'
9c37	ff	(unknown)  '.'
9c38	ff	(unknown)  '.'
9c39	ff	(unknown)  '.'
9c3a	ff	(unknown)  '.'
9c3b	ff	(unknown)  '.'
9c3c	ff	(unknown)  '.'
9c3d	ff	(unknown)  '.'
9c3e	ff	(unknown)  '.'
9c3f	ff	(unknown)  '.'
9c40	ff	(unknown)  '.'
9c41	ff	(unknown)  '.'
9c42	ff	(unknown)  '.'
9c43	ff	(unknown)  '.'
9c44	ff	(unknown)  '.'
9c45	ff	(unknown)  '.'
9c46	ff	(unknown)  '.'
9c47	ff	(unknown)  '.'
9c48	ff	(unknown)  '.'
9c49	ff	(unknown)  '.'
9c4a	ff	(unknown)  '.'
9c4b	ff	(unknown)  '.'
9c4c	ff	(unknown)  '.'
9c4d	ff	(unknown)  '.'
9c4e	ff	(unknown)  '.'
9c4f	ff	(unknown)  '.'
9c50	ff	(unknown)  '.'
9c51	ff	(unknown)  '.'
9c52	ff	(unknown)  '.'
9c53	ff	(unknown)  '.'
9c54	ff	(unknown)  '.'
9c55	ff	(unknown)  '.'
9c56	ff	(unknown)  '.'
9c57	ff	(unknown)  '.'
9c58	ff	(unknown)  '.'
9c59	ff	(unknown)  '.'
9c5a	ff	(unknown)  '.'
9c5b	ff	(unknown)  '.'
9c5c	ff	(unknown)  '.'
9c5d	ff	(unknown)  '.'
9c5e	ff	(unknown)  '.'
9c5f	ff	(unknown)  '.'
9c60	ff	(unknown)  '.'
9c61	ff	(unknown)  '.'
9c62	ff	(unknown)  '.'
9c63	ff	(unknown)  '.'
9c64	ff	(unknown)  '.'
9c65	ff	(unknown)  '.'
9c66	ff	(unknown)  '.'
9c67	ff	(unknown)  '.'
9c68	ff	(unknown)  '.'
9c69	ff	(unknown)  '.'
9c6a	ff	(unknown)  '.'
9c6b	ff	(unknown)  '.'
9c6c	ff	(unknown)  '.'
9c6d	ff	(unknown)  '.'
9c6e	ff	(unknown)  '.'
9c6f	ff	(unknown)  '.'
9c70	ff	(unknown)  '.'
9c71	ff	(unknown)  '.'
9c72	ff	(unknown)  '.'
9c73	ff	(unknown)  '.'
9c74	ff	(unknown)  '.'
9c75	ff	(unknown)  '.'
9c76	ff	(unknown)  '.'
9c77	ff	(unknown)  '.'
9c78	ff	(unknown)  '.'
9c79	ff	(unknown)  '.'
9c7a	ff	(unknown)  '.'
9c7b	ff	(unknown)  '.'
9c7c	ff	(unknown)  '.'
9c7d	ff	(unknown)  '.'
9c7e	ff	(unknown)  '.'
9c7f	ff	(unknown)  '.'
9c80	ff	(unknown)  '.'
9c81	ff	(unknown)  '.'
9c82	ff	(unknown)  '.'
9c83	ff	(unknown)  '.'
9c84	ff	(unknown)  '.'
9c85	ff	(unknown)  '.'
9c86	ff	(unknown)  '.'
9c87	ff	(unknown)  '.'
9c88	ff	(unknown)  '.'
9c89	ff	(unknown)  '.'
9c8a	ff	(unknown)  '.'
9c8b	ff	(unknown)  '.'
9c8c	ff	(unknown)  '.'
9c8d	ff	(unknown)  '.'
9c8e	ff	(unknown)  '.'
9c8f	ff	(unknown)  '.'
9c90	ff	(unknown)  '.'
9c91	ff	(unknown)  '.'
9c92	ff	(unknown)  '.'
9c93	ff	(unknown)  '.'
9c94	ff	(unknown)  '.'
9c95	ff	(unknown)  '.'
9c96	ff	(unknown)  '.'
9c97	ff	(unknown)  '.'
9c98	ff	(unknown)  '.'
9c99	ff	(unknown)  '.'
9c9a	ff	(unknown)  '.'
9c9b	ff	(unknown)  '.'
9c9c	ff	(unknown)  '.'
9c9d	ff	(unknown)  '.'
9c9e	ff	(unknown)  '.'
9c9f	ff	(unknown)  '.'
9ca0	ff	(unknown)  '.'
9ca1	ff	(unknown)  '.'
9ca2	ff	(unknown)  '.'
9ca3	ff	(unknown)  '.'
9ca4	ff	(unknown)  '.'
9ca5	ff	(unknown)  '.'
9ca6	ff	(unknown)  '.'
9ca7	ff	(unknown)  '.'
9ca8	ff	(unknown)  '.'
9ca9	ff	(unknown)  '.'
9caa	ff	(unknown)  '.'
9cab	ff	(unknown)  '.'
9cac	ff	(unknown)  '.'
9cad	ff	(unknown)  '.'
9cae	ff	(unknown)  '.'
9caf	ff	(unknown)  '.'
9cb0	ff	(unknown)  '.'
9cb1	ff	(unknown)  '.'
9cb2	ff	(unknown)  '.'
9cb3	ff	(unknown)  '.'
9cb4	ff	(unknown)  '.'
9cb5	ff	(unknown)  '.'
9cb6	ff	(unknown)  '.'
9cb7	ff	(unknown)  '.'
9cb8	ff	(unknown)  '.'
9cb9	ff	(unknown)  '.'
9cba	ff	(unknown)  '.'
9cbb	ff	(unknown)  '.'
9cbc	ff	(unknown)  '.'
9cbd	ff	(unknown)  '.'
9cbe	ff	(unknown)  '.'
9cbf	ff	(unknown)  '.'
9cc0	ff	(unknown)  '.'
9cc1	ff	(unknown)  '.'
9cc2	ff	(unknown)  '.'
9cc3	ff	(unknown)  '.'
9cc4	ff	(unknown)  '.'
9cc5	ff	(unknown)  '.'
9cc6	ff	(unknown)  '.'
9cc7	ff	(unknown)  '.'
9cc8	ff	(unknown)  '.'
9cc9	ff	(unknown)  '.'
9cca	ff	(unknown)  '.'
9ccb	ff	(unknown)  '.'
9ccc	ff	(unknown)  '.'
9ccd	ff	(unknown)  '.'
9cce	ff	(unknown)  '.'
9ccf	ff	(unknown)  '.'
9cd0	ff	(unknown)  '.'
9cd1	ff	(unknown)  '.'
9cd2	ff	(unknown)  '.'
9cd3	ff	(unknown)  '.'
9cd4	ff	(unknown)  '.'
9cd5	ff	(unknown)  '.'
9cd6	ff	(unknown)  '.'
9cd7	ff	(unknown)  '.'
9cd8	ff	(unknown)  '.'
9cd9	ff	(unknown)  '.'
9cda	ff	(unknown)  '.'
9cdb	ff	(unknown)  '.'
9cdc	ff	(unknown)  '.'
9cdd	ff	(unknown)  '.'
9cde	ff	(unknown)  '.'
9cdf	ff	(unknown)  '.'
9ce0	ff	(unknown)  '.'
9ce1	ff	(unknown)  '.'
9ce2	ff	(unknown)  '.'
9ce3	ff	(unknown)  '.'
9ce4	ff	(unknown)  '.'
9ce5	ff	(unknown)  '.'
9ce6	ff	(unknown)  '.'
9ce7	ff	(unknown)  '.'
9ce8	ff	(unknown)  '.'
9ce9	ff	(unknown)  '.'
9cea	ff	(unknown)  '.'
9ceb	ff	(unknown)  '.'
9cec	ff	(unknown)  '.'
9ced	ff	(unknown)  '.'
9cee	ff	(unknown)  '.'
9cef	ff	(unknown)  '.'
9cf0	ff	(unknown)  '.'
9cf1	ff	(unknown)  '.'
9cf2	ff	(unknown)  '.'
9cf3	ff	(unknown)  '.'
9cf4	ff	(unknown)  '.'
9cf5	ff	(unknown)  '.'
9cf6	ff	(unknown)  '.'
9cf7	ff	(unknown)  '.'
9cf8	ff	(unknown)  '.'
9cf9	ff	(unknown)  '.'
9cfa	ff	(unknown)  '.'
9cfb	ff	(unknown)  '.'
9cfc	ff	(unknown)  '.'
9cfd	ff	(unknown)  '.'
9cfe	ff	(unknown)  '.'
9cff	ff	(unknown)  '.'
9d00	ff	(unknown)  '.'
9d01	ff	(unknown)  '.'
9d02	ff	(unknown)  '.'
9d03	ff	(unknown)  '.'
9d04	ff	(unknown)  '.'
9d05	ff	(unknown)  '.'
9d06	ff	(unknown)  '.'
9d07	ff	(unknown)  '.'
9d08	ff	(unknown)  '.'
9d09	ff	(unknown)  '.'
9d0a	ff	(unknown)  '.'
9d0b	ff	(unknown)  '.'
9d0c	ff	(unknown)  '.'
9d0d	ff	(unknown)  '.'
9d0e	ff	(unknown)  '.'
9d0f	ff	(unknown)  '.'
9d10	ff	(unknown)  '.'
9d11	ff	(unknown)  '.'
9d12	ff	(unknown)  '.'
9d13	ff	(unknown)  '.'
9d14	ff	(unknown)  '.'
9d15	ff	(unknown)  '.'
9d16	ff	(unknown)  '.'
9d17	ff	(unknown)  '.'
9d18	ff	(unknown)  '.'
9d19	ff	(unknown)  '.'
9d1a	ff	(unknown)  '.'
9d1b	ff	(unknown)  '.'
9d1c	ff	(unknown)  '.'
9d1d	ff	(unknown)  '.'
9d1e	ff	(unknown)  '.'
9d1f	ff	(unknown)  '.'
9d20	ff	(unknown)  '.'
9d21	ff	(unknown)  '.'
9d22	ff	(unknown)  '.'
9d23	ff	(unknown)  '.'
9d24	ff	(unknown)  '.'
9d25	ff	(unknown)  '.'
9d26	ff	(unknown)  '.'
9d27	ff	(unknown)  '.'
9d28	ff	(unknown)  '.'
9d29	ff	(unknown)  '.'
9d2a	ff	(unknown)  '.'
9d2b	ff	(unknown)  '.'
9d2c	ff	(unknown)  '.'
9d2d	ff	(unknown)  '.'
9d2e	ff	(unknown)  '.'
9d2f	ff	(unknown)  '.'
9d30	ff	(unknown)  '.'
9d31	ff	(unknown)  '.'
9d32	ff	(unknown)  '.'
9d33	ff	(unknown)  '.'
9d34	ff	(unknown)  '.'
9d35	ff	(unknown)  '.'
9d36	ff	(unknown)  '.'
9d37	ff	(unknown)  '.'
9d38	ff	(unknown)  '.'
9d39	ff	(unknown)  '.'
9d3a	ff	(unknown)  '.'
9d3b	ff	(unknown)  '.'
9d3c	ff	(unknown)  '.'
9d3d	ff	(unknown)  '.'
9d3e	ff	(unknown)  '.'
9d3f	ff	(unknown)  '.'
9d40	ff	(unknown)  '.'
9d41	ff	(unknown)  '.'
9d42	ff	(unknown)  '.'
9d43	ff	(unknown)  '.'
9d44	ff	(unknown)  '.'
9d45	ff	(unknown)  '.'
9d46	ff	(unknown)  '.'
9d47	ff	(unknown)  '.'
9d48	ff	(unknown)  '.'
9d49	ff	(unknown)  '.'
9d4a	ff	(unknown)  '.'
9d4b	ff	(unknown)  '.'
9d4c	ff	(unknown)  '.'
9d4d	ff	(unknown)  '.'
9d4e	ff	(unknown)  '.'
9d4f	ff	(unknown)  '.'
9d50	ff	(unknown)  '.'
9d51	ff	(unknown)  '.'
9d52	ff	(unknown)  '.'
9d53	ff	(unknown)  '.'
9d54	ff	(unknown)  '.'
9d55	ff	(unknown)  '.'
9d56	ff	(unknown)  '.'
9d57	ff	(unknown)  '.'
9d58	ff	(unknown)  '.'
9d59	ff	(unknown)  '.'
9d5a	ff	(unknown)  '.'
9d5b	ff	(unknown)  '.'
9d5c	ff	(unknown)  '.'
9d5d	ff	(unknown)  '.'
9d5e	ff	(unknown)  '.'
9d5f	ff	(unknown)  '.'
9d60	ff	(unknown)  '.'
9d61	ff	(unknown)  '.'
9d62	ff	(unknown)  '.'
9d63	ff	(unknown)  '.'
9d64	ff	(unknown)  '.'
9d65	ff	(unknown)  '.'
9d66	ff	(unknown)  '.'
9d67	ff	(unknown)  '.'
9d68	ff	(unknown)  '.'
9d69	ff	(unknown)  '.'
9d6a	ff	(unknown)  '.'
9d6b	ff	(unknown)  '.'
9d6c	ff	(unknown)  '.'
9d6d	ff	(unknown)  '.'
9d6e	ff	(unknown)  '.'
9d6f	ff	(unknown)  '.'
9d70	ff	(unknown)  '.'
9d71	ff	(unknown)  '.'
9d72	ff	(unknown)  '.'
9d73	ff	(unknown)  '.'
9d74	ff	(unknown)  '.'
9d75	ff	(unknown)  '.'
9d76	ff	(unknown)  '.'
9d77	ff	(unknown)  '.'
9d78	ff	(unknown)  '.'
9d79	ff	(unknown)  '.'
9d7a	ff	(unknown)  '.'
9d7b	ff	(unknown)  '.'
9d7c	ff	(unknown)  '.'
9d7d	ff	(unknown)  '.'
9d7e	ff	(unknown)  '.'
9d7f	ff	(unknown)  '.'
9d80	ff	(unknown)  '.'
9d81	ff	(unknown)  '.'
9d82	ff	(unknown)  '.'
9d83	ff	(unknown)  '.'
9d84	ff	(unknown)  '.'
9d85	ff	(unknown)  '.'
9d86	ff	(unknown)  '.'
9d87	ff	(unknown)  '.'
9d88	ff	(unknown)  '.'
9d89	ff	(unknown)  '.'
9d8a	ff	(unknown)  '.'
9d8b	ff	(unknown)  '.'
9d8c	ff	(unknown)  '.'
9d8d	ff	(unknown)  '.'
9d8e	ff	(unknown)  '.'
9d8f	ff	(unknown)  '.'
9d90	ff	(unknown)  '.'
9d91	ff	(unknown)  '.'
9d92	ff	(unknown)  '.'
9d93	ff	(unknown)  '.'
9d94	ff	(unknown)  '.'
9d95	ff	(unknown)  '.'
9d96	ff	(unknown)  '.'
9d97	ff	(unknown)  '.'
9d98	ff	(unknown)  '.'
9d99	ff	(unknown)  '.'
9d9a	ff	(unknown)  '.'
9d9b	ff	(unknown)  '.'
9d9c	ff	(unknown)  '.'
9d9d	ff	(unknown)  '.'
9d9e	ff	(unknown)  '.'
9d9f	ff	(unknown)  '.'
9da0	ff	(unknown)  '.'
9da1	ff	(unknown)  '.'
9da2	ff	(unknown)  '.'
9da3	ff	(unknown)  '.'
9da4	ff	(unknown)  '.'
9da5	ff	(unknown)  '.'
9da6	ff	(unknown)  '.'
9da7	ff	(unknown)  '.'
9da8	ff	(unknown)  '.'
9da9	ff	(unknown)  '.'
9daa	ff	(unknown)  '.'
9dab	ff	(unknown)  '.'
9dac	ff	(unknown)  '.'
9dad	ff	(unknown)  '.'
9dae	ff	(unknown)  '.'
9daf	ff	(unknown)  '.'
9db0	ff	(unknown)  '.'
9db1	ff	(unknown)  '.'
9db2	ff	(unknown)  '.'
9db3	ff	(unknown)  '.'
9db4	ff	(unknown)  '.'
9db5	ff	(unknown)  '.'
9db6	ff	(unknown)  '.'
9db7	ff	(unknown)  '.'
9db8	ff	(unknown)  '.'
9db9	ff	(unknown)  '.'
9dba	ff	(unknown)  '.'
9dbb	ff	(unknown)  '.'
9dbc	ff	(unknown)  '.'
9dbd	ff	(unknown)  '.'
9dbe	ff	(unknown)  '.'
9dbf	ff	(unknown)  '.'
9dc0	ff	(unknown)  '.'
9dc1	ff	(unknown)  '.'
9dc2	ff	(unknown)  '.'
9dc3	ff	(unknown)  '.'
9dc4	ff	(unknown)  '.'
9dc5	ff	(unknown)  '.'
9dc6	ff	(unknown)  '.'
9dc7	ff	(unknown)  '.'
9dc8	ff	(unknown)  '.'
9dc9	ff	(unknown)  '.'
9dca	ff	(unknown)  '.'
9dcb	ff	(unknown)  '.'
9dcc	ff	(unknown)  '.'
9dcd	ff	(unknown)  '.'
9dce	ff	(unknown)  '.'
9dcf	ff	(unknown)  '.'
9dd0	ff	(unknown)  '.'
9dd1	ff	(unknown)  '.'
9dd2	ff	(unknown)  '.'
9dd3	ff	(unknown)  '.'
9dd4	ff	(unknown)  '.'
9dd5	ff	(unknown)  '.'
9dd6	ff	(unknown)  '.'
9dd7	ff	(unknown)  '.'
9dd8	ff	(unknown)  '.'
9dd9	ff	(unknown)  '.'
9dda	ff	(unknown)  '.'
9ddb	ff	(unknown)  '.'
9ddc	ff	(unknown)  '.'
9ddd	ff	(unknown)  '.'
9dde	ff	(unknown)  '.'
9ddf	ff	(unknown)  '.'
9de0	ff	(unknown)  '.'
9de1	ff	(unknown)  '.'
9de2	ff	(unknown)  '.'
9de3	ff	(unknown)  '.'
9de4	ff	(unknown)  '.'
9de5	ff	(unknown)  '.'
9de6	ff	(unknown)  '.'
9de7	ff	(unknown)  '.'
9de8	ff	(unknown)  '.'
9de9	ff	(unknown)  '.'
9dea	ff	(unknown)  '.'
9deb	ff	(unknown)  '.'
9dec	ff	(unknown)  '.'
9ded	ff	(unknown)  '.'
9dee	ff	(unknown)  '.'
9def	ff	(unknown)  '.'
9df0	ff	(unknown)  '.'
9df1	ff	(unknown)  '.'
9df2	ff	(unknown)  '.'
9df3	ff	(unknown)  '.'
9df4	ff	(unknown)  '.'
9df5	ff	(unknown)  '.'
9df6	ff	(unknown)  '.'
9df7	ff	(unknown)  '.'
9df8	ff	(unknown)  '.'
9df9	ff	(unknown)  '.'
9dfa	ff	(unknown)  '.'
9dfb	ff	(unknown)  '.'
9dfc	ff	(unknown)  '.'
9dfd	ff	(unknown)  '.'
9dfe	ff	(unknown)  '.'
9dff	ff	(unknown)  '.'
9e00	ff	(unknown)  '.'
9e01	ff	(unknown)  '.'
9e02	ff	(unknown)  '.'
9e03	ff	(unknown)  '.'
9e04	ff	(unknown)  '.'
9e05	ff	(unknown)  '.'
9e06	ff	(unknown)  '.'
9e07	ff	(unknown)  '.'
9e08	ff	(unknown)  '.'
9e09	ff	(unknown)  '.'
9e0a	ff	(unknown)  '.'
9e0b	ff	(unknown)  '.'
9e0c	ff	(unknown)  '.'
9e0d	ff	(unknown)  '.'
9e0e	ff	(unknown)  '.'
9e0f	ff	(unknown)  '.'
9e10	ff	(unknown)  '.'
9e11	ff	(unknown)  '.'
9e12	ff	(unknown)  '.'
9e13	ff	(unknown)  '.'
9e14	ff	(unknown)  '.'
9e15	ff	(unknown)  '.'
9e16	ff	(unknown)  '.'
9e17	ff	(unknown)  '.'
9e18	ff	(unknown)  '.'
9e19	ff	(unknown)  '.'
9e1a	ff	(unknown)  '.'
9e1b	ff	(unknown)  '.'
9e1c	ff	(unknown)  '.'
9e1d	ff	(unknown)  '.'
9e1e	ff	(unknown)  '.'
9e1f	ff	(unknown)  '.'
9e20	ff	(unknown)  '.'
9e21	ff	(unknown)  '.'
9e22	ff	(unknown)  '.'
9e23	ff	(unknown)  '.'
9e24	ff	(unknown)  '.'
9e25	ff	(unknown)  '.'
9e26	ff	(unknown)  '.'
9e27	ff	(unknown)  '.'
9e28	ff	(unknown)  '.'
9e29	ff	(unknown)  '.'
9e2a	ff	(unknown)  '.'
9e2b	ff	(unknown)  '.'
9e2c	ff	(unknown)  '.'
9e2d	ff	(unknown)  '.'
9e2e	ff	(unknown)  '.'
9e2f	ff	(unknown)  '.'
9e30	ff	(unknown)  '.'
9e31	ff	(unknown)  '.'
9e32	ff	(unknown)  '.'
9e33	ff	(unknown)  '.'
9e34	ff	(unknown)  '.'
9e35	ff	(unknown)  '.'
9e36	ff	(unknown)  '.'
9e37	ff	(unknown)  '.'
9e38	ff	(unknown)  '.'
9e39	ff	(unknown)  '.'
9e3a	ff	(unknown)  '.'
9e3b	ff	(unknown)  '.'
9e3c	ff	(unknown)  '.'
9e3d	ff	(unknown)  '.'
9e3e	ff	(unknown)  '.'
9e3f	ff	(unknown)  '.'
9e40	ff	(unknown)  '.'
9e41	ff	(unknown)  '.'
9e42	ff	(unknown)  '.'
9e43	ff	(unknown)  '.'
9e44	ff	(unknown)  '.'
9e45	ff	(unknown)  '.'
9e46	ff	(unknown)  '.'
9e47	ff	(unknown)  '.'
9e48	ff	(unknown)  '.'
9e49	ff	(unknown)  '.'
9e4a	ff	(unknown)  '.'
9e4b	ff	(unknown)  '.'
9e4c	ff	(unknown)  '.'
9e4d	ff	(unknown)  '.'
9e4e	ff	(unknown)  '.'
9e4f	ff	(unknown)  '.'
9e50	ff	(unknown)  '.'
9e51	ff	(unknown)  '.'
9e52	ff	(unknown)  '.'
9e53	ff	(unknown)  '.'
9e54	ff	(unknown)  '.'
9e55	ff	(unknown)  '.'
9e56	ff	(unknown)  '.'
9e57	ff	(unknown)  '.'
9e58	ff	(unknown)  '.'
9e59	ff	(unknown)  '.'
9e5a	ff	(unknown)  '.'
9e5b	ff	(unknown)  '.'
9e5c	ff	(unknown)  '.'
9e5d	ff	(unknown)  '.'
9e5e	ff	(unknown)  '.'
9e5f	ff	(unknown)  '.'
9e60	ff	(unknown)  '.'
9e61	ff	(unknown)  '.'
9e62	ff	(unknown)  '.'
9e63	ff	(unknown)  '.'
9e64	ff	(unknown)  '.'
9e65	ff	(unknown)  '.'
9e66	ff	(unknown)  '.'
9e67	ff	(unknown)  '.'
9e68	ff	(unknown)  '.'
9e69	ff	(unknown)  '.'
9e6a	ff	(unknown)  '.'
9e6b	ff	(unknown)  '.'
9e6c	ff	(unknown)  '.'
9e6d	ff	(unknown)  '.'
9e6e	ff	(unknown)  '.'
9e6f	ff	(unknown)  '.'
9e70	ff	(unknown)  '.'
9e71	ff	(unknown)  '.'
9e72	ff	(unknown)  '.'
9e73	ff	(unknown)  '.'
9e74	ff	(unknown)  '.'
9e75	ff	(unknown)  '.'
9e76	ff	(unknown)  '.'
9e77	ff	(unknown)  '.'
9e78	ff	(unknown)  '.'
9e79	ff	(unknown)  '.'
9e7a	ff	(unknown)  '.'
9e7b	ff	(unknown)  '.'
9e7c	ff	(unknown)  '.'
9e7d	ff	(unknown)  '.'
9e7e	ff	(unknown)  '.'
9e7f	ff	(unknown)  '.'
9e80	ff	(unknown)  '.'
9e81	ff	(unknown)  '.'
9e82	ff	(unknown)  '.'
9e83	ff	(unknown)  '.'
9e84	ff	(unknown)  '.'
9e85	ff	(unknown)  '.'
9e86	ff	(unknown)  '.'
9e87	ff	(unknown)  '.'
9e88	ff	(unknown)  '.'
9e89	ff	(unknown)  '.'
9e8a	ff	(unknown)  '.'
9e8b	ff	(unknown)  '.'
9e8c	ff	(unknown)  '.'
9e8d	ff	(unknown)  '.'
9e8e	ff	(unknown)  '.'
9e8f	ff	(unknown)  '.'
9e90	ff	(unknown)  '.'
9e91	ff	(unknown)  '.'
9e92	ff	(unknown)  '.'
9e93	ff	(unknown)  '.'
9e94	ff	(unknown)  '.'
9e95	ff	(unknown)  '.'
9e96	ff	(unknown)  '.'
9e97	ff	(unknown)  '.'
9e98	ff	(unknown)  '.'
9e99	ff	(unknown)  '.'
9e9a	ff	(unknown)  '.'
9e9b	ff	(unknown)  '.'
9e9c	ff	(unknown)  '.'
9e9d	ff	(unknown)  '.'
9e9e	ff	(unknown)  '.'
9e9f	ff	(unknown)  '.'
9ea0	ff	(unknown)  '.'
9ea1	ff	(unknown)  '.'
9ea2	ff	(unknown)  '.'
9ea3	ff	(unknown)  '.'
9ea4	ff	(unknown)  '.'
9ea5	ff	(unknown)  '.'
9ea6	ff	(unknown)  '.'
9ea7	ff	(unknown)  '.'
9ea8	ff	(unknown)  '.'
9ea9	ff	(unknown)  '.'
9eaa	ff	(unknown)  '.'
9eab	ff	(unknown)  '.'
9eac	ff	(unknown)  '.'
9ead	ff	(unknown)  '.'
9eae	ff	(unknown)  '.'
9eaf	ff	(unknown)  '.'
9eb0	ff	(unknown)  '.'
9eb1	ff	(unknown)  '.'
9eb2	ff	(unknown)  '.'
9eb3	ff	(unknown)  '.'
9eb4	ff	(unknown)  '.'
9eb5	ff	(unknown)  '.'
9eb6	ff	(unknown)  '.'
9eb7	ff	(unknown)  '.'
9eb8	ff	(unknown)  '.'
9eb9	ff	(unknown)  '.'
9eba	ff	(unknown)  '.'
9ebb	ff	(unknown)  '.'
9ebc	ff	(unknown)  '.'
9ebd	ff	(unknown)  '.'
9ebe	ff	(unknown)  '.'
9ebf	ff	(unknown)  '.'
9ec0	ff	(unknown)  '.'
9ec1	ff	(unknown)  '.'
9ec2	ff	(unknown)  '.'
9ec3	ff	(unknown)  '.'
9ec4	ff	(unknown)  '.'
9ec5	ff	(unknown)  '.'
9ec6	ff	(unknown)  '.'
9ec7	ff	(unknown)  '.'
9ec8	ff	(unknown)  '.'
9ec9	ff	(unknown)  '.'
9eca	ff	(unknown)  '.'
9ecb	ff	(unknown)  '.'
9ecc	ff	(unknown)  '.'
9ecd	ff	(unknown)  '.'
9ece	ff	(unknown)  '.'
9ecf	ff	(unknown)  '.'
9ed0	ff	(unknown)  '.'
9ed1	ff	(unknown)  '.'
9ed2	ff	(unknown)  '.'
9ed3	ff	(unknown)  '.'
9ed4	ff	(unknown)  '.'
9ed5	ff	(unknown)  '.'
9ed6	ff	(unknown)  '.'
9ed7	ff	(unknown)  '.'
9ed8	ff	(unknown)  '.'
9ed9	ff	(unknown)  '.'
9eda	ff	(unknown)  '.'
9edb	ff	(unknown)  '.'
9edc	ff	(unknown)  '.'
9edd	ff	(unknown)  '.'
9ede	ff	(unknown)  '.'
9edf	ff	(unknown)  '.'
9ee0	ff	(unknown)  '.'
9ee1	ff	(unknown)  '.'
9ee2	ff	(unknown)  '.'
9ee3	ff	(unknown)  '.'
9ee4	ff	(unknown)  '.'
9ee5	ff	(unknown)  '.'
9ee6	ff	(unknown)  '.'
9ee7	ff	(unknown)  '.'
9ee8	ff	(unknown)  '.'
9ee9	ff	(unknown)  '.'
9eea	ff	(unknown)  '.'
9eeb	ff	(unknown)  '.'
9eec	ff	(unknown)  '.'
9eed	ff	(unknown)  '.'
9eee	ff	(unknown)  '.'
9eef	ff	(unknown)  '.'
9ef0	ff	(unknown)  '.'
9ef1	ff	(unknown)  '.'
9ef2	ff	(unknown)  '.'
9ef3	ff	(unknown)  '.'
9ef4	ff	(unknown)  '.'
9ef5	ff	(unknown)  '.'
9ef6	ff	(unknown)  '.'
9ef7	ff	(unknown)  '.'
9ef8	ff	(unknown)  '.'
9ef9	ff	(unknown)  '.'
9efa	ff	(unknown)  '.'
9efb	ff	(unknown)  '.'
9efc	ff	(unknown)  '.'
9efd	ff	(unknown)  '.'
9efe	ff	(unknown)  '.'
9eff	ff	(unknown)  '.'
9f00	ff	(unknown)  '.'
9f01	ff	(unknown)  '.'
9f02	ff	(unknown)  '.'
9f03	ff	(unknown)  '.'
9f04	ff	(unknown)  '.'
9f05	ff	(unknown)  '.'
9f06	ff	(unknown)  '.'
9f07	ff	(unknown)  '.'
9f08	ff	(unknown)  '.'
9f09	ff	(unknown)  '.'
9f0a	ff	(unknown)  '.'
9f0b	ff	(unknown)  '.'
9f0c	ff	(unknown)  '.'
9f0d	ff	(unknown)  '.'
9f0e	ff	(unknown)  '.'
9f0f	ff	(unknown)  '.'
9f10	ff	(unknown)  '.'
9f11	ff	(unknown)  '.'
9f12	ff	(unknown)  '.'
9f13	ff	(unknown)  '.'
9f14	ff	(unknown)  '.'
9f15	ff	(unknown)  '.'
9f16	ff	(unknown)  '.'
9f17	ff	(unknown)  '.'
9f18	ff	(unknown)  '.'
9f19	ff	(unknown)  '.'
9f1a	ff	(unknown)  '.'
9f1b	ff	(unknown)  '.'
9f1c	ff	(unknown)  '.'
9f1d	ff	(unknown)  '.'
9f1e	ff	(unknown)  '.'
9f1f	ff	(unknown)  '.'
9f20	ff	(unknown)  '.'
9f21	ff	(unknown)  '.'
9f22	ff	(unknown)  '.'
9f23	ff	(unknown)  '.'
9f24	ff	(unknown)  '.'
9f25	ff	(unknown)  '.'
9f26	ff	(unknown)  '.'
9f27	ff	(unknown)  '.'
9f28	ff	(unknown)  '.'
9f29	ff	(unknown)  '.'
9f2a	ff	(unknown)  '.'
9f2b	ff	(unknown)  '.'
9f2c	ff	(unknown)  '.'
9f2d	ff	(unknown)  '.'
9f2e	ff	(unknown)  '.'
9f2f	ff	(unknown)  '.'
9f30	ff	(unknown)  '.'
9f31	ff	(unknown)  '.'
9f32	ff	(unknown)  '.'
9f33	ff	(unknown)  '.'
9f34	ff	(unknown)  '.'
9f35	ff	(unknown)  '.'
9f36	ff	(unknown)  '.'
9f37	ff	(unknown)  '.'
9f38	ff	(unknown)  '.'
9f39	ff	(unknown)  '.'
9f3a	ff	(unknown)  '.'
9f3b	ff	(unknown)  '.'
9f3c	ff	(unknown)  '.'
9f3d	ff	(unknown)  '.'
9f3e	ff	(unknown)  '.'
9f3f	ff	(unknown)  '.'
9f40	ff	(unknown)  '.'
9f41	ff	(unknown)  '.'
9f42	ff	(unknown)  '.'
9f43	ff	(unknown)  '.'
9f44	ff	(unknown)  '.'
9f45	ff	(unknown)  '.'
9f46	ff	(unknown)  '.'
9f47	ff	(unknown)  '.'
9f48	ff	(unknown)  '.'
9f49	ff	(unknown)  '.'
9f4a	ff	(unknown)  '.'
9f4b	ff	(unknown)  '.'
9f4c	ff	(unknown)  '.'
9f4d	ff	(unknown)  '.'
9f4e	ff	(unknown)  '.'
9f4f	ff	(unknown)  '.'
9f50	ff	(unknown)  '.'
9f51	ff	(unknown)  '.'
9f52	ff	(unknown)  '.'
9f53	ff	(unknown)  '.'
9f54	ff	(unknown)  '.'
9f55	ff	(unknown)  '.'
9f56	ff	(unknown)  '.'
9f57	ff	(unknown)  '.'
9f58	ff	(unknown)  '.'
9f59	ff	(unknown)  '.'
9f5a	ff	(unknown)  '.'
9f5b	ff	(unknown)  '.'
9f5c	ff	(unknown)  '.'
9f5d	ff	(unknown)  '.'
9f5e	ff	(unknown)  '.'
9f5f	ff	(unknown)  '.'
9f60	ff	(unknown)  '.'
9f61	ff	(unknown)  '.'
9f62	ff	(unknown)  '.'
9f63	ff	(unknown)  '.'
9f64	ff	(unknown)  '.'
9f65	ff	(unknown)  '.'
9f66	ff	(unknown)  '.'
9f67	ff	(unknown)  '.'
9f68	ff	(unknown)  '.'
9f69	ff	(unknown)  '.'
9f6a	ff	(unknown)  '.'
9f6b	ff	(unknown)  '.'
9f6c	ff	(unknown)  '.'
9f6d	ff	(unknown)  '.'
9f6e	ff	(unknown)  '.'
9f6f	ff	(unknown)  '.'
9f70	ff	(unknown)  '.'
9f71	ff	(unknown)  '.'
9f72	ff	(unknown)  '.'
9f73	ff	(unknown)  '.'
9f74	ff	(unknown)  '.'
9f75	ff	(unknown)  '.'
9f76	ff	(unknown)  '.'
9f77	ff	(unknown)  '.'
9f78	ff	(unknown)  '.'
9f79	ff	(unknown)  '.'
9f7a	ff	(unknown)  '.'
9f7b	ff	(unknown)  '.'
9f7c	ff	(unknown)  '.'
9f7d	ff	(unknown)  '.'
9f7e	ff	(unknown)  '.'
9f7f	ff	(unknown)  '.'
9f80	ff	(unknown)  '.'
9f81	ff	(unknown)  '.'
9f82	ff	(unknown)  '.'
9f83	ff	(unknown)  '.'
9f84	ff	(unknown)  '.'
9f85	ff	(unknown)  '.'
9f86	ff	(unknown)  '.'
9f87	ff	(unknown)  '.'
9f88	ff	(unknown)  '.'
9f89	ff	(unknown)  '.'
9f8a	ff	(unknown)  '.'
9f8b	ff	(unknown)  '.'
9f8c	ff	(unknown)  '.'
9f8d	ff	(unknown)  '.'
9f8e	ff	(unknown)  '.'
9f8f	ff	(unknown)  '.'
9f90	ff	(unknown)  '.'
9f91	ff	(unknown)  '.'
9f92	ff	(unknown)  '.'
9f93	ff	(unknown)  '.'
9f94	ff	(unknown)  '.'
9f95	ff	(unknown)  '.'
9f96	ff	(unknown)  '.'
9f97	ff	(unknown)  '.'
9f98	ff	(unknown)  '.'
9f99	ff	(unknown)  '.'
9f9a	ff	(unknown)  '.'
9f9b	ff	(unknown)  '.'
9f9c	ff	(unknown)  '.'
9f9d	ff	(unknown)  '.'
9f9e	ff	(unknown)  '.'
9f9f	ff	(unknown)  '.'
9fa0	ff	(unknown)  '.'
9fa1	ff	(unknown)  '.'
9fa2	ff	(unknown)  '.'
9fa3	ff	(unknown)  '.'
9fa4	ff	(unknown)  '.'
9fa5	ff	(unknown)  '.'
9fa6	ff	(unknown)  '.'
9fa7	ff	(unknown)  '.'
9fa8	ff	(unknown)  '.'
9fa9	ff	(unknown)  '.'
9faa	ff	(unknown)  '.'
9fab	ff	(unknown)  '.'
9fac	ff	(unknown)  '.'
9fad	ff	(unknown)  '.'
9fae	ff	(unknown)  '.'
9faf	ff	(unknown)  '.'
9fb0	ff	(unknown)  '.'
9fb1	ff	(unknown)  '.'
9fb2	ff	(unknown)  '.'
9fb3	ff	(unknown)  '.'
9fb4	ff	(unknown)  '.'
9fb5	ff	(unknown)  '.'
9fb6	ff	(unknown)  '.'
9fb7	ff	(unknown)  '.'
9fb8	ff	(unknown)  '.'
9fb9	ff	(unknown)  '.'
9fba	ff	(unknown)  '.'
9fbb	ff	(unknown)  '.'
9fbc	ff	(unknown)  '.'
9fbd	ff	(unknown)  '.'
9fbe	ff	(unknown)  '.'
9fbf	ff	(unknown)  '.'
9fc0	ff	(unknown)  '.'
9fc1	ff	(unknown)  '.'
9fc2	ff	(unknown)  '.'
9fc3	ff	(unknown)  '.'
9fc4	ff	(unknown)  '.'
9fc5	ff	(unknown)  '.'
9fc6	ff	(unknown)  '.'
9fc7	ff	(unknown)  '.'
9fc8	ff	(unknown)  '.'
9fc9	ff	(unknown)  '.'
9fca	ff	(unknown)  '.'
9fcb	ff	(unknown)  '.'
9fcc	ff	(unknown)  '.'
9fcd	ff	(unknown)  '.'
9fce	ff	(unknown)  '.'
9fcf	ff	(unknown)  '.'
9fd0	ff	(unknown)  '.'
9fd1	ff	(unknown)  '.'
9fd2	ff	(unknown)  '.'
9fd3	ff	(unknown)  '.'
9fd4	ff	(unknown)  '.'
9fd5	ff	(unknown)  '.'
9fd6	ff	(unknown)  '.'
9fd7	ff	(unknown)  '.'
9fd8	ff	(unknown)  '.'
9fd9	ff	(unknown)  '.'
9fda	ff	(unknown)  '.'
9fdb	ff	(unknown)  '.'
9fdc	ff	(unknown)  '.'
9fdd	ff	(unknown)  '.'
9fde	ff	(unknown)  '.'
9fdf	ff	(unknown)  '.'
9fe0	ff	(unknown)  '.'
9fe1	ff	(unknown)  '.'
9fe2	ff	(unknown)  '.'
9fe3	ff	(unknown)  '.'
9fe4	ff	(unknown)  '.'
9fe5	ff	(unknown)  '.'
9fe6	ff	(unknown)  '.'
9fe7	ff	(unknown)  '.'
9fe8	ff	(unknown)  '.'
9fe9	ff	(unknown)  '.'
9fea	ff	(unknown)  '.'
9feb	ff	(unknown)  '.'
9fec	ff	(unknown)  '.'
9fed	ff	(unknown)  '.'
9fee	ff	(unknown)  '.'
9fef	ff	(unknown)  '.'
9ff0	ff	(unknown)  '.'
9ff1	ff	(unknown)  '.'
9ff2	ff	(unknown)  '.'
9ff3	ff	(unknown)  '.'
9ff4	ff	(unknown)  '.'
9ff5	ff	(unknown)  '.'
9ff6	ff	(unknown)  '.'
9ff7	ff	(unknown)  '.'
9ff8	ff	(unknown)  '.'
9ff9	ff	(unknown)  '.'
9ffa	ff	(unknown)  '.'
9ffb	ff	(unknown)  '.'
9ffc	ff	(unknown)  '.'
9ffd	ff	(unknown)  '.'
9ffe	ff	(unknown)  '.'
9fff	ff	(unknown)  '.'
a000	21	(unknown)  '!'
a001	04	(unknown)  '.'
a002	21	(unknown)  '!'
a003	11	(unknown)  '.'
a004	21	(unknown)  '!'
a005	11	(unknown)  '.'
a006	21	(unknown)  '!'
a007	04	(unknown)  '.'
a008	21	(unknown)  '!'
a009	1e	(unknown)  '.'
a00a	21	(unknown)  '!'
a00b	2b	(unknown)  '+'
a00c	21	(unknown)  '!'
a00d	38	(unknown)  '8'
a00e	21	(unknown)  '!'
a00f	38	(unknown)  '8'
a010	21	(unknown)  '!'
a011	45	(unknown)  'E'
a012	21	(unknown)  '!'
a013	4e	(unknown)  'N'
a014	21	(unknown)  '!'
a015	bf	(unknown)  '.'
a016	21	(unknown)  '!'
a017	5b	(unknown)  '['
a018	21	(unknown)  '!'
a019	68	(unknown)  'h'
a01a	21	(unknown)  '!'
a01b	75	(unknown)  'u'
a01c	21	(unknown)  '!'
a01d	75	(unknown)  'u'
a01e	21	(unknown)  '!'
a01f	e6	(unknown)  '.'
a020	21	(unknown)  '!'
a021	82	(unknown)  '.'
a022	21	(unknown)  '!'
a023	75	(unknown)  'u'
a024	21	(unknown)  '!'
a025	e6	(unknown)  '.'
a026	21	(unknown)  '!'
a027	e6	(unknown)  '.'
a028	21	(unknown)  '!'
a029	e6	(unknown)  '.'
a02a	21	(unknown)  '!'
a02b	8b	(unknown)  '.'
a02c	21	(unknown)  '!'
a02d	04	(unknown)  '.'
a02e	21	(unknown)  '!'
a02f	98	(unknown)  '.'
a030	21	(unknown)  '!'
a031	a5	(unknown)  '.'
a032	21	(unknown)  '!'
a033	b2	(unknown)  '.'
a034	21	(unknown)  '!'
a035	bf	(unknown)  '.'
a036	21	(unknown)  '!'
a037	c8	(unknown)  '.'
a038	21	(unknown)  '!'
a039	1e	(unknown)  '.'
a03a	21	(unknown)  '!'
a03b	cc	(unknown)  '.'
a03c	21	(unknown)  '!'
a03d	cc	(unknown)  '.'
a03e	21	(unknown)  '!'
a03f	c8	(unknown)  '.'
a040	21	(unknown)  '!'
a041	c8	(unknown)  '.'
a042	21	(unknown)  '!'
a043	45	(unknown)  'E'
a044	21	(unknown)  '!'
a045	45	(unknown)  'E'
a046	21	(unknown)  '!'
a047	45	(unknown)  'E'
a048	21	(unknown)  '!'
a049	45	(unknown)  'E'
a04a	21	(unknown)  '!'
a04b	d9	(unknown)  '.'
a04c	21	(unknown)  '!'
a04d	e6	(unknown)  '.'
a04e	21	(unknown)  '!'
a04f	11	(unknown)  '.'
a050	21	(unknown)  '!'
a051	45	(unknown)  'E'
a052	21	(unknown)  '!'
a053	f3	(unknown)  '.'
a054	41	(unknown)  'A'
a055	00	(unknown)  '.'
a056	41	(unknown)  'A'
a057	0d	(unknown)  '.'
a058	01	(unknown)  '.'
a059	ea	(unknown)  '.'
a05a	01	(unknown)  '.'
a05b	f7	(unknown)  '.'
a05c	01	(unknown)  '.'
a05d	de	(unknown)  '.'
a05e	01	(unknown)  '.'
a05f	de	(unknown)  '.'
a060	01	(unknown)  '.'
a061	de	(unknown)  '.'
a062	01	(unknown)  '.'
a063	de	(unknown)  '.'
a064	01	(unknown)  '.'
a065	de	(unknown)  '.'
a066	01	(unknown)  '.'
a067	de	(unknown)  '.'
a068	01	(unknown)  '.'
a069	de	(unknown)  '.'
a06a	01	(unknown)  '.'
a06b	de	(unknown)  '.'
a06c	01	(unknown)  '.'
a06d	de	(unknown)  '.'
a06e	01	(unknown)  '.'
a06f	de	(unknown)  '.'
a070	01	(unknown)  '.'
a071	de	(unknown)  '.'
a072	01	(unknown)  '.'
a073	de	(unknown)  '.'
a074	01	(unknown)  '.'
a075	de	(unknown)  '.'
a076	01	(unknown)  '.'
a077	de	(unknown)  '.'
a078	01	(unknown)  '.'
a079	de	(unknown)  '.'
a07a	01	(unknown)  '.'
a07b	de	(unknown)  '.'
a07c	01	(unknown)  '.'
a07d	de	(unknown)  '.'
a07e	01	(unknown)  '.'
a07f	de	(unknown)  '.'
a080	01	(unknown)  '.'
a081	de	(unknown)  '.'
a082	01	(unknown)  '.'
a083	de	(unknown)  '.'
a084	01	(unknown)  '.'
a085	de	(unknown)  '.'
a086	01	(unknown)  '.'
a087	de	(unknown)  '.'
a088	01	(unknown)  '.'
a089	de	(unknown)  '.'
a08a	01	(unknown)  '.'
a08b	de	(unknown)  '.'
a08c	01	(unknown)  '.'
a08d	de	(unknown)  '.'
a08e	01	(unknown)  '.'
a08f	de	(unknown)  '.'
a090	01	(unknown)  '.'
a091	de	(unknown)  '.'
a092	01	(unknown)  '.'
a093	de	(unknown)  '.'
a094	01	(unknown)  '.'
a095	de	(unknown)  '.'
a096	01	(unknown)  '.'
a097	de	(unknown)  '.'
a098	01	(unknown)  '.'
a099	de	(unknown)  '.'
a09a	01	(unknown)  '.'
a09b	de	(unknown)  '.'
a09c	01	(unknown)  '.'
a09d	de	(unknown)  '.'
a09e	01	(unknown)  '.'
a09f	de	(unknown)  '.'
a0a0	01	(unknown)  '.'
a0a1	de	(unknown)  '.'
a0a2	01	(unknown)  '.'
a0a3	de	(unknown)  '.'
a0a4	01	(unknown)  '.'
a0a5	de	(unknown)  '.'
a0a6	01	(unknown)  '.'
a0a7	de	(unknown)  '.'
a0a8	01	(unknown)  '.'
a0a9	de	(unknown)  '.'
a0aa	01	(unknown)  '.'
a0ab	de	(unknown)  '.'
a0ac	01	(unknown)  '.'
a0ad	de	(unknown)  '.'
a0ae	01	(unknown)  '.'
a0af	de	(unknown)  '.'
a0b0	01	(unknown)  '.'
a0b1	de	(unknown)  '.'
a0b2	01	(unknown)  '.'
a0b3	de	(unknown)  '.'
a0b4	01	(unknown)  '.'
a0b5	de	(unknown)  '.'
a0b6	01	(unknown)  '.'
a0b7	de	(unknown)  '.'
a0b8	01	(unknown)  '.'
a0b9	de	(unknown)  '.'
a0ba	01	(unknown)  '.'
a0bb	de	(unknown)  '.'
a0bc	01	(unknown)  '.'
a0bd	de	(unknown)  '.'
a0be	01	(unknown)  '.'
a0bf	de	(unknown)  '.'
a0c0	01	(unknown)  '.'
a0c1	de	(unknown)  '.'
a0c2	01	(unknown)  '.'
a0c3	de	(unknown)  '.'
a0c4	01	(unknown)  '.'
a0c5	de	(unknown)  '.'
a0c6	01	(unknown)  '.'
a0c7	de	(unknown)  '.'
a0c8	01	(unknown)  '.'
a0c9	de	(unknown)  '.'
a0ca	01	(unknown)  '.'
a0cb	de	(unknown)  '.'
a0cc	01	(unknown)  '.'
a0cd	de	(unknown)  '.'
a0ce	01	(unknown)  '.'
a0cf	de	(unknown)  '.'
a0d0	01	(unknown)  '.'
a0d1	de	(unknown)  '.'
a0d2	01	(unknown)  '.'
a0d3	de	(unknown)  '.'
a0d4	01	(unknown)  '.'
a0d5	de	(unknown)  '.'
a0d6	01	(unknown)  '.'
a0d7	de	(unknown)  '.'
a0d8	01	(unknown)  '.'
a0d9	de	(unknown)  '.'
a0da	01	(unknown)  '.'
a0db	de	(unknown)  '.'
a0dc	01	(unknown)  '.'
a0dd	e9	(unknown)  '.'
a0de	74	(unknown)  't'
a0df	10	(unknown)  '.'
a0e0	12	(unknown)  '.'
a0e1	81	(unknown)  '.'
a0e2	06	(unknown)  '.'
a0e3	74	(unknown)  't'
a0e4	3a	(unknown)  ':'
a0e5	12	(unknown)  '.'
a0e6	81	(unknown)  '.'
a0e7	02	(unknown)  '.'
a0e8	22	(unknown)  '"'
a0e9	22	(unknown)  '"'
a0ea	90	(unknown)  '.'
a0eb	98	(unknown)  '.'
a0ec	c3	(unknown)  '.'
a0ed	12	(unknown)  '.'
a0ee	92	(unknown)  '.'
a0ef	34	(unknown)  '4'
a0f0	f6	(unknown)  '.'
a0f1	08	(unknown)  '.'
a0f2	23	(unknown)  '#'
a0f3	90	(unknown)  '.'
a0f4	a2	(unknown)  '.'
a0f5	94	(unknown)  '.'
a0f6	73	(unknown)  's'
a0f7	90	(unknown)  '.'
a0f8	98	(unknown)  '.'
a0f9	55	(unknown)  'U'
a0fa	12	(unknown)  '.'
a0fb	92	(unknown)  '.'
a0fc	34	(unknown)  '4'
a0fd	f6	(unknown)  '.'
a0fe	08	(unknown)  '.'
a0ff	23	(unknown)  '#'
a100	90	(unknown)  '.'
a101	a2	(unknown)  '.'
a102	96	(unknown)  '.'
a103	73	(unknown)  's'
a104	90	(unknown)  '.'
a105	98	(unknown)  '.'
a106	55	(unknown)  'U'
a107	12	(unknown)  '.'
a108	92	(unknown)  '.'
a109	34	(unknown)  '4'
a10a	f6	(unknown)  '.'
a10b	08	(unknown)  '.'
a10c	23	(unknown)  '#'
a10d	90	(unknown)  '.'
a10e	a2	(unknown)  '.'
a10f	7c	(unknown)  '|'
a110	73	(unknown)  's'
a111	90	(unknown)  '.'
a112	96	(unknown)  '.'
a113	82	(unknown)  '.'
a114	12	(unknown)  '.'
a115	92	(unknown)  '.'
a116	34	(unknown)  '4'
a117	f6	(unknown)  '.'
a118	08	(unknown)  '.'
a119	23	(unknown)  '#'
a11a	90	(unknown)  '.'
a11b	a2	(unknown)  '.'
a11c	2c	(unknown)  ','
a11d	73	(unknown)  's'
a11e	90	(unknown)  '.'
a11f	96	(unknown)  '.'
a120	d0	(unknown)  '.'
a121	12	(unknown)  '.'
a122	92	(unknown)  '.'
a123	34	(unknown)  '4'
a124	f6	(unknown)  '.'
a125	08	(unknown)  '.'
a126	23	(unknown)  '#'
a127	90	(unknown)  '.'
a128	a2	(unknown)  '.'
a129	2c	(unknown)  ','
a12a	73	(unknown)  's'
a12b	90	(unknown)  '.'
a12c	98	(unknown)  '.'
a12d	76	(unknown)  'v'
a12e	12	(unknown)  '.'
a12f	92	(unknown)  '.'
a130	34	(unknown)  '4'
a131	f6	(unknown)  '.'
a132	08	(unknown)  '.'
a133	23	(unknown)  '#'
a134	90	(unknown)  '.'
a135	a2	(unknown)  '.'
a136	84	(unknown)  '.'
a137	73	(unknown)  's'
a138	90	(unknown)  '.'
a139	97	(unknown)  '.'
a13a	46	(unknown)  'F'
a13b	12	(unknown)  '.'
a13c	92	(unknown)  '.'
a13d	34	(unknown)  '4'
a13e	f6	(unknown)  '.'
a13f	08	(unknown)  '.'
a140	23	(unknown)  '#'
a141	90	(unknown)  '.'
a142	a2	(unknown)  '.'
a143	3c	(unknown)  '<'
a144	73	(unknown)  's'
a145	90	(unknown)  '.'
a146	96	(unknown)  '.'
a147	cc	(unknown)  '.'
a148	12	(unknown)  '.'
a149	92	(unknown)  '.'
a14a	34	(unknown)  '4'
a14b	f6	(unknown)  '.'
a14c	08	(unknown)  '.'
a14d	22	(unknown)  '"'
a14e	90	(unknown)  '.'
a14f	96	(unknown)  '.'
a150	b4	(unknown)  '.'
a151	12	(unknown)  '.'
a152	92	(unknown)  '.'
a153	34	(unknown)  '4'
a154	f6	(unknown)  '.'
a155	08	(unknown)  '.'
a156	23	(unknown)  '#'
a157	90	(unknown)  '.'
a158	a2	(unknown)  '.'
a159	22	(unknown)  '"'
a15a	73	(unknown)  's'
a15b	90	(unknown)  '.'
a15c	98	(unknown)  '.'
a15d	a5	(unknown)  '.'
a15e	12	(unknown)  '.'
a15f	92	(unknown)  '.'
a160	34	(unknown)  '4'
a161	f6	(unknown)  '.'
a162	08	(unknown)  '.'
a163	23	(unknown)  '#'
a164	90	(unknown)  '.'
a165	a2	(unknown)  '.'
a166	8c	(unknown)  '.'
a167	73	(unknown)  's'
a168	90	(unknown)  '.'
a169	96	(unknown)  '.'
a16a	9d	(unknown)  '.'
a16b	12	(unknown)  '.'
a16c	92	(unknown)  '.'
a16d	34	(unknown)  '4'
a16e	f6	(unknown)  '.'
a16f	08	(unknown)  '.'
a170	23	(unknown)  '#'
a171	90	(unknown)  '.'
a172	a2	(unknown)  '.'
a173	22	(unknown)  '"'
a174	73	(unknown)  's'
a175	90	(unknown)  '.'
a176	98	(unknown)  '.'
a177	6c	(unknown)  'l'
a178	12	(unknown)  '.'
a179	92	(unknown)  '.'
a17a	34	(unknown)  '4'
a17b	f6	(unknown)  '.'
a17c	08	(unknown)  '.'
a17d	23	(unknown)  '#'
a17e	90	(unknown)  '.'
a17f	a2	(unknown)  '.'
a180	82	(unknown)  '.'
a181	73	(unknown)  's'
a182	90	(unknown)  '.'
a183	98	(unknown)  '.'
a184	62	(unknown)  'b'
a185	12	(unknown)  '.'
a186	92	(unknown)  '.'
a187	34	(unknown)  '4'
a188	f6	(unknown)  '.'
a189	08	(unknown)  '.'
a18a	22	(unknown)  '"'
a18b	90	(unknown)  '.'
a18c	98	(unknown)  '.'
a18d	55	(unknown)  'U'
a18e	12	(unknown)  '.'
a18f	92	(unknown)  '.'
a190	34	(unknown)  '4'
a191	f6	(unknown)  '.'
a192	08	(unknown)  '.'
a193	23	(unknown)  '#'
a194	90	(unknown)  '.'
a195	a2	(unknown)  '.'
a196	7e	(unknown)  '~'
a197	73	(unknown)  's'
a198	90	(unknown)  '.'
a199	97	(unknown)  '.'
a19a	55	(unknown)  'U'
a19b	12	(unknown)  '.'
a19c	92	(unknown)  '.'
a19d	34	(unknown)  '4'
a19e	f6	(unknown)  '.'
a19f	08	(unknown)  '.'
a1a0	23	(unknown)  '#'
a1a1	90	(unknown)  '.'
a1a2	a2	(unknown)  '.'
a1a3	42	(unknown)  'B'
a1a4	73	(unknown)  's'
a1a5	90	(unknown)  '.'
a1a6	97	(unknown)  '.'
a1a7	fa	(unknown)  '.'
a1a8	12	(unknown)  '.'
a1a9	92	(unknown)  '.'
a1aa	34	(unknown)  '4'
a1ab	f6	(unknown)  '.'
a1ac	08	(unknown)  '.'
a1ad	23	(unknown)  '#'
a1ae	90	(unknown)  '.'
a1af	a2	(unknown)  '.'
a1b0	66	(unknown)  'f'
a1b1	73	(unknown)  's'
a1b2	90	(unknown)  '.'
a1b3	98	(unknown)  '.'
a1b4	0f	(unknown)  '.'
a1b5	12	(unknown)  '.'
a1b6	92	(unknown)  '.'
a1b7	34	(unknown)  '4'
a1b8	f6	(unknown)  '.'
a1b9	08	(unknown)  '.'
a1ba	23	(unknown)  '#'
a1bb	90	(unknown)  '.'
a1bc	a2	(unknown)  '.'
a1bd	6a	(unknown)  'j'
a1be	73	(unknown)  's'
a1bf	90	(unknown)  '.'
a1c0	96	(unknown)  '.'
a1c1	c7	(unknown)  '.'
a1c2	12	(unknown)  '.'
a1c3	92	(unknown)  '.'
a1c4	34	(unknown)  '4'
a1c5	f6	(unknown)  '.'
a1c6	08	(unknown)  '.'
a1c7	22	(unknown)  '"'
a1c8	e4	(unknown)  '.'
a1c9	f6	(unknown)  '.'
a1ca	08	(unknown)  '.'
a1cb	22	(unknown)  '"'
a1cc	90	(unknown)  '.'
a1cd	98	(unknown)  '.'
a1ce	32	(unknown)  '2'
a1cf	12	(unknown)  '.'
a1d0	92	(unknown)  '.'
a1d1	34	(unknown)  '4'
a1d2	f6	(unknown)  '.'
a1d3	08	(unknown)  '.'
a1d4	23	(unknown)  '#'
a1d5	90	(unknown)  '.'
a1d6	a2	(unknown)  '.'
a1d7	72	(unknown)  'r'
a1d8	73	(unknown)  's'
a1d9	90	(unknown)  '.'
a1da	98	(unknown)  '.'
a1db	b8	(unknown)  '.'
a1dc	12	(unknown)  '.'
a1dd	92	(unknown)  '.'
a1de	34	(unknown)  '4'
a1df	f6	(unknown)  '.'
a1e0	08	(unknown)  '.'
a1e1	23	(unknown)  '#'
a1e2	90	(unknown)  '.'
a1e3	a2	(unknown)  '.'
a1e4	90	(unknown)  '.'
a1e5	73	(unknown)  's'
a1e6	90	(unknown)  '.'
a1e7	98	(unknown)  '.'
a1e8	5c	(unknown)  '\'
a1e9	12	(unknown)  '.'
a1ea	92	(unknown)  '.'
a1eb	34	(unknown)  '4'
a1ec	f6	(unknown)  '.'
a1ed	08	(unknown)  '.'
a1ee	23	(unknown)  '#'
a1ef	90	(unknown)  '.'
a1f0	a2	(unknown)  '.'
a1f1	80	(unknown)  '.'
a1f2	73	(unknown)  's'
a1f3	90	(unknown)  '.'
a1f4	98	(unknown)  '.'
a1f5	38	(unknown)  '8'
a1f6	12	(unknown)  '.'
a1f7	92	(unknown)  '.'
a1f8	34	(unknown)  '4'
a1f9	f6	(unknown)  '.'
a1fa	08	(unknown)  '.'
a1fb	23	(unknown)  '#'
a1fc	90	(unknown)  '.'
a1fd	a2	(unknown)  '.'
a1fe	74	(unknown)  't'
a1ff	73	(unknown)  's'
a200	90	(unknown)  '.'
a201	98	(unknown)  '.'
a202	4d	(unknown)  'M'
a203	12	(unknown)  '.'
a204	92	(unknown)  '.'
a205	34	(unknown)  '4'
a206	f6	(unknown)  '.'
a207	08	(unknown)  '.'
a208	23	(unknown)  '#'
a209	90	(unknown)  '.'
a20a	a2	(unknown)  '.'
a20b	7a	(unknown)  'z'
a20c	73	(unknown)  's'
a20d	90	(unknown)  '.'
a20e	97	(unknown)  '.'
a20f	13	(unknown)  '.'
a210	12	(unknown)  '.'
a211	92	(unknown)  '.'
a212	34	(unknown)  '4'
a213	f6	(unknown)  '.'
a214	08	(unknown)  '.'
a215	23	(unknown)  '#'
a216	90	(unknown)  '.'
a217	a2	(unknown)  '.'
a218	2c	(unknown)  ','
a219	73	(unknown)  's'
a21a	41	(unknown)  'A'
a21b	99	(unknown)  '.'
a21c	41	(unknown)  'A'
a21d	c7	(unknown)  '.'
a21e	61	(unknown)  'a'
a21f	30	(unknown)  '0'
a220	61	(unknown)  'a'
a221	52	(unknown)  'R'
a222	41	(unknown)  'A'
a223	98	(unknown)  '.'
a224	41	(unknown)  'A'
a225	9d	(unknown)  '.'
a226	41	(unknown)  'A'
a227	cb	(unknown)  '.'
a228	61	(unknown)  'a'
a229	34	(unknown)  '4'
a22a	41	(unknown)  'A'
a22b	98	(unknown)  '.'
a22c	41	(unknown)  'A'
a22d	99	(unknown)  '.'
a22e	41	(unknown)  'A'
a22f	c7	(unknown)  '.'
a230	61	(unknown)  'a'
a231	30	(unknown)  '0'
a232	61	(unknown)  'a'
a233	52	(unknown)  'R'
a234	41	(unknown)  'A'
a235	b9	(unknown)  '.'
a236	61	(unknown)  'a'
a237	c1	(unknown)  '.'
a238	61	(unknown)  'a'
a239	ea	(unknown)  '.'
a23a	61	(unknown)  'a'
a23b	e8	(unknown)  '.'
a23c	41	(unknown)  'A'
a23d	98	(unknown)  '.'
a23e	41	(unknown)  'A'
a23f	98	(unknown)  '.'
a240	61	(unknown)  'a'
a241	ee	(unknown)  '.'
a242	41	(unknown)  'A'
a243	99	(unknown)  '.'
a244	41	(unknown)  'A'
a245	c7	(unknown)  '.'
a246	61	(unknown)  'a'
a247	30	(unknown)  '0'
a248	61	(unknown)  'a'
a249	52	(unknown)  'R'
a24a	41	(unknown)  'A'
a24b	9d	(unknown)  '.'
a24c	61	(unknown)  'a'
a24d	87	(unknown)  '.'
a24e	61	(unknown)  'a'
a24f	8b	(unknown)  '.'
a250	41	(unknown)  'A'
a251	b9	(unknown)  '.'
a252	61	(unknown)  'a'
a253	8f	(unknown)  '.'
a254	61	(unknown)  'a'
a255	9f	(unknown)  '.'
a256	61	(unknown)  'a'
a257	b0	(unknown)  '.'
a258	61	(unknown)  'a'
a259	c1	(unknown)  '.'
a25a	61	(unknown)  'a'
a25b	34	(unknown)  '4'
a25c	61	(unknown)  'a'
a25d	d2	(unknown)  '.'
a25e	61	(unknown)  'a'
a25f	d6	(unknown)  '.'
a260	81	(unknown)  '.'
a261	97	(unknown)  '.'
a262	61	(unknown)  'a'
a263	ea	(unknown)  '.'
a264	61	(unknown)  'a'
a265	da	(unknown)  '.'
a266	41	(unknown)  'A'
a267	98	(unknown)  '.'
a268	41	(unknown)  'A'
a269	98	(unknown)  '.'
a26a	61	(unknown)  'a'
a26b	30	(unknown)  '0'
a26c	41	(unknown)  'A'
a26d	98	(unknown)  '.'
a26e	61	(unknown)  'a'
a26f	34	(unknown)  '4'
a270	41	(unknown)  'A'
a271	98	(unknown)  '.'
a272	41	(unknown)  'A'
a273	cb	(unknown)  '.'
a274	41	(unknown)  'A'
a275	99	(unknown)  '.'
a276	41	(unknown)  'A'
a277	c7	(unknown)  '.'
a278	61	(unknown)  'a'
a279	30	(unknown)  '0'
a27a	61	(unknown)  'a'
a27b	30	(unknown)  '0'
a27c	81	(unknown)  '.'
a27d	ee	(unknown)  '.'
a27e	81	(unknown)  '.'
a27f	fb	(unknown)  '.'
a280	81	(unknown)  '.'
a281	78	(unknown)  'x'
a282	81	(unknown)  '.'
a283	4c	(unknown)  'L'
a284	81	(unknown)  '.'
a285	5d	(unknown)  ']'
a286	81	(unknown)  '.'
a287	d8	(unknown)  '.'
a288	81	(unknown)  '.'
a289	e0	(unknown)  '.'
a28a	81	(unknown)  '.'
a28b	e6	(unknown)  '.'
a28c	81	(unknown)  '.'
a28d	76	(unknown)  'v'
a28e	81	(unknown)  '.'
a28f	61	(unknown)  'a'
a290	41	(unknown)  'A'
a291	98	(unknown)  '.'
a292	61	(unknown)  'a'
a293	ee	(unknown)  '.'
a294	61	(unknown)  'a'
a295	56	(unknown)  'V'
a296	81	(unknown)  '.'
a297	af	(unknown)  '.'
a298	22	(unknown)  '"'
a299	05	(unknown)  '.'
a29a	39	(unknown)  '9'
a29b	05	(unknown)  '.'
a29c	39	(unknown)  '9'
a29d	d2	(unknown)  '.'
a29e	d5	(unknown)  '.'
a29f	90	(unknown)  '.'
a2a0	a5	(unknown)  '.'
a2a1	1c	(unknown)  '.'
a2a2	12	(unknown)  '.'
a2a3	92	(unknown)  '.'
a2a4	34	(unknown)  '4'
a2a5	f6	(unknown)  '.'
a2a6	05	(unknown)  '.'
a2a7	39	(unknown)  '9'
a2a8	e5	(unknown)  '.'
a2a9	39	(unknown)  '9'
a2aa	12	(unknown)  '.'
a2ab	81	(unknown)  '.'
a2ac	06	(unknown)  '.'
a2ad	e6	(unknown)  '.'
a2ae	24	(unknown)  '$'
a2af	30	(unknown)  '0'
a2b0	12	(unknown)  '.'
a2b1	81	(unknown)  '.'
a2b2	02	(unknown)  '.'
a2b3	08	(unknown)  '.'
a2b4	05	(unknown)  '.'
a2b5	39	(unknown)  '9'
a2b6	05	(unknown)  '.'
a2b7	39	(unknown)  '9'
a2b8	22	(unknown)  '"'
a2b9	51	(unknown)  'Q'
a2ba	cb	(unknown)  '.'
a2bb	90	(unknown)  '.'
a2bc	a2	(unknown)  '.'
a2bd	c2	(unknown)  '.'
a2be	12	(unknown)  '.'
a2bf	81	(unknown)  '.'
a2c0	00	(unknown)  '.'
a2c1	22	(unknown)  '"'
a2c2	2c	(unknown)  ','
a2c3	41	(unknown)  'A'
a2c4	20	(unknown)  ' '
a2c5	20	(unknown)  ' '
a2c6	00	(unknown)  '.'
a2c7	05	(unknown)  '.'
a2c8	39	(unknown)  '9'
a2c9	05	(unknown)  '.'
a2ca	39	(unknown)  '9'
a2cb	d2	(unknown)  '.'
a2cc	d5	(unknown)  '.'
a2cd	90	(unknown)  '.'
a2ce	a7	(unknown)  '.'
a2cf	93	(unknown)  '.'
a2d0	12	(unknown)  '.'
a2d1	92	(unknown)  '.'
a2d2	34	(unknown)  '4'
a2d3	f6	(unknown)  '.'
a2d4	b4	(unknown)  '.'
a2d5	15	(unknown)  '.'
a2d6	30	(unknown)  '0'
a2d7	08	(unknown)  '.'
a2d8	74	(unknown)  't'
a2d9	02	(unknown)  '.'
a2da	12	(unknown)  '.'
a2db	81	(unknown)  '.'
a2dc	06	(unknown)  '.'
a2dd	7f	(unknown)  '.'
a2de	10	(unknown)  '.'
a2df	74	(unknown)  't'
a2e0	20	(unknown)  ' '
a2e1	12	(unknown)  '.'
a2e2	81	(unknown)  '.'
a2e3	02	(unknown)  '.'
a2e4	df	(unknown)  '.'
a2e5	f9	(unknown)  '.'
a2e6	74	(unknown)  't'
a2e7	02	(unknown)  '.'
a2e8	12	(unknown)  '.'
a2e9	81	(unknown)  '.'
a2ea	06	(unknown)  '.'
a2eb	12	(unknown)  '.'
a2ec	93	(unknown)  '.'
a2ed	7f	(unknown)  '.'
a2ee	f6	(unknown)  '.'
a2ef	e5	(unknown)  '.'
a2f0	39	(unknown)  '9'
a2f1	12	(unknown)  '.'
a2f2	81	(unknown)  '.'
a2f3	06	(unknown)  '.'
a2f4	e6	(unknown)  '.'
a2f5	12	(unknown)  '.'
a2f6	81	(unknown)  '.'
a2f7	04	(unknown)  '.'
a2f8	08	(unknown)  '.'
a2f9	74	(unknown)  't'
a2fa	48	(unknown)  'H'
a2fb	12	(unknown)  '.'
a2fc	81	(unknown)  '.'
a2fd	02	(unknown)  '.'
a2fe	05	(unknown)  '.'
a2ff	39	(unknown)  '9'
a300	05	(unknown)  '.'
a301	39	(unknown)  '9'
a302	05	(unknown)  '.'
a303	39	(unknown)  '9'
a304	05	(unknown)  '.'
a305	39	(unknown)  '9'
a306	22	(unknown)  '"'
a307	e5	(unknown)  '.'
a308	39	(unknown)  '9'
a309	12	(unknown)  '.'
a30a	81	(unknown)  '.'
a30b	06	(unknown)  '.'
a30c	e6	(unknown)  '.'
a30d	90	(unknown)  '.'
a30e	a7	(unknown)  '.'
a30f	93	(unknown)  '.'
a310	12	(unknown)  '.'
a311	92	(unknown)  '.'
a312	05	(unknown)  '.'
a313	08	(unknown)  '.'
a314	12	(unknown)  '.'
a315	94	(unknown)  '.'
a316	1d	(unknown)  '.'
a317	f5	(unknown)  '.'
a318	39	(unknown)  '9'
a319	05	(unknown)  '.'
a31a	39	(unknown)  '9'
a31b	74	(unknown)  't'
a31c	20	(unknown)  ' '
a31d	12	(unknown)  '.'
a31e	81	(unknown)  '.'
a31f	02	(unknown)  '.'
a320	74	(unknown)  't'
a321	20	(unknown)  ' '
a322	12	(unknown)  '.'
a323	81	(unknown)  '.'
a324	02	(unknown)  '.'
a325	74	(unknown)  't'
a326	10	(unknown)  '.'
a327	12	(unknown)  '.'
a328	81	(unknown)  '.'
a329	06	(unknown)  '.'
a32a	74	(unknown)  't'
a32b	10	(unknown)  '.'
a32c	12	(unknown)  '.'
a32d	81	(unknown)  '.'
a32e	06	(unknown)  '.'
a32f	22	(unknown)  '"'
a330	05	(unknown)  '.'
a331	39	(unknown)  '9'
a332	05	(unknown)  '.'
a333	39	(unknown)  '9'
a334	d2	(unknown)  '.'
a335	d5	(unknown)  '.'
a336	90	(unknown)  '.'
a337	a5	(unknown)  '.'
a338	37	(unknown)  '7'
a339	12	(unknown)  '.'
a33a	92	(unknown)  '.'
a33b	34	(unknown)  '4'
a33c	f6	(unknown)  '.'
a33d	05	(unknown)  '.'
a33e	39	(unknown)  '9'
a33f	05	(unknown)  '.'
a340	39	(unknown)  '9'
a341	e5	(unknown)  '.'
a342	39	(unknown)  '9'
a343	12	(unknown)  '.'
a344	81	(unknown)  '.'
a345	06	(unknown)  '.'
a346	e6	(unknown)  '.'
a347	24	(unknown)  '$'
a348	30	(unknown)  '0'
a349	12	(unknown)  '.'
a34a	81	(unknown)  '.'
a34b	02	(unknown)  '.'
a34c	08	(unknown)  '.'
a34d	05	(unknown)  '.'
a34e	39	(unknown)  '9'
a34f	05	(unknown)  '.'
a350	39	(unknown)  '9'
a351	22	(unknown)  '"'
a352	05	(unknown)  '.'
a353	39	(unknown)  '9'
a354	05	(unknown)  '.'
a355	39	(unknown)  '9'
a356	74	(unknown)  't'
a357	02	(unknown)  '.'
a358	12	(unknown)  '.'
a359	81	(unknown)  '.'
a35a	06	(unknown)  '.'
a35b	7f	(unknown)  '.'
a35c	10	(unknown)  '.'
a35d	74	(unknown)  't'
a35e	20	(unknown)  ' '
a35f	12	(unknown)  '.'
a360	81	(unknown)  '.'
a361	02	(unknown)  '.'
a362	df	(unknown)  '.'
a363	f9	(unknown)  '.'
a364	74	(unknown)  't'
a365	02	(unknown)  '.'
a366	12	(unknown)  '.'
a367	81	(unknown)  '.'
a368	06	(unknown)  '.'
a369	12	(unknown)  '.'
a36a	93	(unknown)  '.'
a36b	7f	(unknown)  '.'
a36c	f6	(unknown)  '.'
a36d	05	(unknown)  '.'
a36e	39	(unknown)  '9'
a36f	e5	(unknown)  '.'
a370	39	(unknown)  '9'
a371	12	(unknown)  '.'
a372	81	(unknown)  '.'
a373	06	(unknown)  '.'
a374	e6	(unknown)  '.'
a375	12	(unknown)  '.'
a376	81	(unknown)  '.'
a377	04	(unknown)  '.'
a378	74	(unknown)  't'
a379	48	(unknown)  'H'
a37a	12	(unknown)  '.'
a37b	81	(unknown)  '.'
a37c	02	(unknown)  '.'
a37d	08	(unknown)  '.'
a37e	05	(unknown)  '.'
a37f	39	(unknown)  '9'
a380	05	(unknown)  '.'
a381	39	(unknown)  '9'
a382	05	(unknown)  '.'
a383	39	(unknown)  '9'
a384	05	(unknown)  '.'
a385	39	(unknown)  '9'
a386	22	(unknown)  '"'
a387	51	(unknown)  'Q'
a388	9d	(unknown)  '.'
a389	41	(unknown)  'A'
a38a	cb	(unknown)  '.'
a38b	51	(unknown)  'Q'
a38c	9d	(unknown)  '.'
a38d	61	(unknown)  'a'
a38e	56	(unknown)  'V'
a38f	51	(unknown)  'Q'
a390	cb	(unknown)  '.'
a391	90	(unknown)  '.'
a392	a3	(unknown)  '.'
a393	99	(unknown)  '.'
a394	12	(unknown)  '.'
a395	81	(unknown)  '.'
a396	00	(unknown)  '.'
a397	41	(unknown)  'A'
a398	9d	(unknown)  '.'
a399	2c	(unknown)  ','
a39a	52	(unknown)  'R'
a39b	72	(unknown)  'r'
a39c	20	(unknown)  ' '
a39d	20	(unknown)  ' '
a39e	00	(unknown)  '.'
a39f	51	(unknown)  'Q'
a3a0	cb	(unknown)  '.'
a3a1	90	(unknown)  '.'
a3a2	a3	(unknown)  '.'
a3a3	a9	(unknown)  '.'
a3a4	12	(unknown)  '.'
a3a5	81	(unknown)  '.'
a3a6	00	(unknown)  '.'
a3a7	41	(unknown)  'A'
a3a8	cb	(unknown)  '.'
a3a9	2c	(unknown)  ','
a3aa	64	(unknown)  'd'
a3ab	69	(unknown)  'i'
a3ac	72	(unknown)  'r'
a3ad	20	(unknown)  ' '
a3ae	20	(unknown)  ' '
a3af	00	(unknown)  '.'
a3b0	51	(unknown)  'Q'
a3b1	cb	(unknown)  '.'
a3b2	90	(unknown)  '.'
a3b3	a3	(unknown)  '.'
a3b4	ba	(unknown)  '.'
a3b5	12	(unknown)  '.'
a3b6	81	(unknown)  '.'
a3b7	00	(unknown)  '.'
a3b8	61	(unknown)  'a'
a3b9	34	(unknown)  '4'
a3ba	2c	(unknown)  ','
a3bb	40	(unknown)  '@'
a3bc	52	(unknown)  'R'
a3bd	69	(unknown)  'i'
a3be	20	(unknown)  ' '
a3bf	20	(unknown)  ' '
a3c0	00	(unknown)  '.'
a3c1	51	(unknown)  'Q'
a3c2	cb	(unknown)  '.'
a3c3	90	(unknown)  '.'
a3c4	a3	(unknown)  '.'
a3c5	cb	(unknown)  '.'
a3c6	12	(unknown)  '.'
a3c7	81	(unknown)  '.'
a3c8	00	(unknown)  '.'
a3c9	61	(unknown)  'a'
a3ca	56	(unknown)  'V'
a3cb	2c	(unknown)  ','
a3cc	23	(unknown)  '#'
a3cd	64	(unknown)  'd'
a3ce	38	(unknown)  '8'
a3cf	20	(unknown)  ' '
a3d0	20	(unknown)  ' '
a3d1	00	(unknown)  '.'
a3d2	71	(unknown)  'q'
a3d3	34	(unknown)  '4'
a3d4	41	(unknown)  'A'
a3d5	cb	(unknown)  '.'
a3d6	71	(unknown)  'q'
a3d7	34	(unknown)  '4'
a3d8	61	(unknown)  'a'
a3d9	56	(unknown)  'V'
a3da	71	(unknown)  'q'
a3db	fb	(unknown)  '.'
a3dc	90	(unknown)  '.'
a3dd	a3	(unknown)  '.'
a3de	e3	(unknown)  '.'
a3df	12	(unknown)  '.'
a3e0	81	(unknown)  '.'
a3e1	00	(unknown)  '.'
a3e2	22	(unknown)  '"'
a3e3	2c	(unknown)  ','
a3e4	43	(unknown)  'C'
a3e5	20	(unknown)  ' '
a3e6	20	(unknown)  ' '
a3e7	00	(unknown)  '.'
a3e8	05	(unknown)  '.'
a3e9	39	(unknown)  '9'
a3ea	05	(unknown)  '.'
a3eb	39	(unknown)  '9'
a3ec	05	(unknown)  '.'
a3ed	39	(unknown)  '9'
a3ee	71	(unknown)  'q'
a3ef	fb	(unknown)  '.'
a3f0	74	(unknown)  't'
a3f1	20	(unknown)  ' '
a3f2	12	(unknown)  '.'
a3f3	81	(unknown)  '.'
a3f4	02	(unknown)  '.'
a3f5	74	(unknown)  't'
a3f6	20	(unknown)  ' '
a3f7	12	(unknown)  '.'
a3f8	81	(unknown)  '.'
a3f9	02	(unknown)  '.'
a3fa	22	(unknown)  '"'
a3fb	d2	(unknown)  '.'
a3fc	d5	(unknown)  '.'
a3fd	90	(unknown)  '.'
a3fe	a6	(unknown)  '.'
a3ff	8c	(unknown)  '.'
a400	12	(unknown)  '.'
a401	92	(unknown)  '.'
a402	34	(unknown)  '4'
a403	f6	(unknown)  '.'
a404	b4	(unknown)  '.'
a405	33	(unknown)  '3'
a406	30	(unknown)  '0'
a407	08	(unknown)  '.'
a408	74	(unknown)  't'
a409	02	(unknown)  '.'
a40a	12	(unknown)  '.'
a40b	81	(unknown)  '.'
a40c	06	(unknown)  '.'
a40d	7f	(unknown)  '.'
a40e	10	(unknown)  '.'
a40f	74	(unknown)  't'
a410	20	(unknown)  ' '
a411	12	(unknown)  '.'
a412	81	(unknown)  '.'
a413	02	(unknown)  '.'
a414	df	(unknown)  '.'
a415	f9	(unknown)  '.'
a416	74	(unknown)  't'
a417	02	(unknown)  '.'
a418	12	(unknown)  '.'
a419	81	(unknown)  '.'
a41a	06	(unknown)  '.'
a41b	12	(unknown)  '.'
a41c	93	(unknown)  '.'
a41d	7f	(unknown)  '.'
a41e	f6	(unknown)  '.'
a41f	e5	(unknown)  '.'
a420	39	(unknown)  '9'
a421	12	(unknown)  '.'
a422	81	(unknown)  '.'
a423	06	(unknown)  '.'
a424	e6	(unknown)  '.'
a425	12	(unknown)  '.'
a426	81	(unknown)  '.'
a427	04	(unknown)  '.'
a428	08	(unknown)  '.'
a429	74	(unknown)  't'
a42a	48	(unknown)  'H'
a42b	12	(unknown)  '.'
a42c	81	(unknown)  '.'
a42d	02	(unknown)  '.'
a42e	05	(unknown)  '.'
a42f	39	(unknown)  '9'
a430	05	(unknown)  '.'
a431	39	(unknown)  '9'
a432	05	(unknown)  '.'
a433	39	(unknown)  '9'
a434	05	(unknown)  '.'
a435	39	(unknown)  '9'
a436	22	(unknown)  '"'
a437	e5	(unknown)  '.'
a438	39	(unknown)  '9'
a439	12	(unknown)  '.'
a43a	81	(unknown)  '.'
a43b	06	(unknown)  '.'
a43c	e6	(unknown)  '.'
a43d	90	(unknown)  '.'
a43e	a6	(unknown)  '.'
a43f	8c	(unknown)  '.'
a440	12	(unknown)  '.'
a441	92	(unknown)  '.'
a442	05	(unknown)  '.'
a443	08	(unknown)  '.'
a444	12	(unknown)  '.'
a445	94	(unknown)  '.'
a446	1d	(unknown)  '.'
a447	f5	(unknown)  '.'
a448	39	(unknown)  '9'
a449	05	(unknown)  '.'
a44a	39	(unknown)  '9'
a44b	22	(unknown)  '"'
a44c	71	(unknown)  'q'
a44d	fb	(unknown)  '.'
a44e	90	(unknown)  '.'
a44f	a4	(unknown)  '.'
a450	56	(unknown)  'V'
a451	12	(unknown)  '.'
a452	81	(unknown)  '.'
a453	00	(unknown)  '.'
a454	80	(unknown)  '.'
a455	22	(unknown)  '"'
a456	2c	(unknown)  ','
a457	72	(unknown)  'r'
a458	65	(unknown)  'e'
a459	6c	(unknown)  'l'
a45a	20	(unknown)  ' '
a45b	20	(unknown)  ' '
a45c	00	(unknown)  '.'
a45d	05	(unknown)  '.'
a45e	39	(unknown)  '9'
a45f	05	(unknown)  '.'
a460	39	(unknown)  '9'
a461	51	(unknown)  'Q'
a462	cb	(unknown)  '.'
a463	90	(unknown)  '.'
a464	a4	(unknown)  '.'
a465	6b	(unknown)  'k'
a466	12	(unknown)  '.'
a467	81	(unknown)  '.'
a468	00	(unknown)  '.'
a469	81	(unknown)  '.'
a46a	78	(unknown)  'x'
a46b	2c	(unknown)  ','
a46c	72	(unknown)  'r'
a46d	65	(unknown)  'e'
a46e	6c	(unknown)  'l'
a46f	20	(unknown)  ' '
a470	20	(unknown)  ' '
a471	00	(unknown)  '.'
a472	51	(unknown)  'Q'
a473	cb	(unknown)  '.'
a474	80	(unknown)  '.'
a475	02	(unknown)  '.'
a476	51	(unknown)  'Q'
a477	9d	(unknown)  '.'
a478	d2	(unknown)  '.'
a479	d5	(unknown)  '.'
a47a	90	(unknown)  '.'
a47b	a5	(unknown)  '.'
a47c	42	(unknown)  'B'
a47d	12	(unknown)  '.'
a47e	92	(unknown)  '.'
a47f	34	(unknown)  '4'
a480	f6	(unknown)  '.'
a481	e5	(unknown)  '.'
a482	39	(unknown)  '9'
a483	12	(unknown)  '.'
a484	81	(unknown)  '.'
a485	06	(unknown)  '.'
a486	74	(unknown)  't'
a487	4c	(unknown)  'L'
a488	12	(unknown)  '.'
a489	81	(unknown)  '.'
a48a	02	(unknown)  '.'
a48b	e6	(unknown)  '.'
a48c	12	(unknown)  '.'
a48d	81	(unknown)  '.'
a48e	04	(unknown)  '.'
a48f	08	(unknown)  '.'
a490	05	(unknown)  '.'
a491	39	(unknown)  '9'
a492	05	(unknown)  '.'
a493	39	(unknown)  '9'
a494	05	(unknown)  '.'
a495	39	(unknown)  '9'
a496	22	(unknown)  '"'
a497	05	(unknown)  '.'
a498	39	(unknown)  '9'
a499	05	(unknown)  '.'
a49a	39	(unknown)  '9'
a49b	05	(unknown)  '.'
a49c	39	(unknown)  '9'
a49d	05	(unknown)  '.'
a49e	39	(unknown)  '9'
a49f	05	(unknown)  '.'
a4a0	39	(unknown)  '9'
a4a1	05	(unknown)  '.'
a4a2	39	(unknown)  '9'
a4a3	d2	(unknown)  '.'
a4a4	d5	(unknown)  '.'
a4a5	90	(unknown)  '.'
a4a6	a6	(unknown)  '.'
a4a7	45	(unknown)  'E'
a4a8	12	(unknown)  '.'
a4a9	92	(unknown)  '.'
a4aa	34	(unknown)  '4'
a4ab	f6	(unknown)  '.'
a4ac	70	(unknown)  'p'
a4ad	1c	(unknown)  '.'
a4ae	08	(unknown)  '.'
a4af	15	(unknown)  '.'
a4b0	39	(unknown)  '9'
a4b1	71	(unknown)  'q'
a4b2	56	(unknown)  'V'
a4b3	74	(unknown)  't'
a4b4	10	(unknown)  '.'
a4b5	12	(unknown)  '.'
a4b6	81	(unknown)  '.'
a4b7	06	(unknown)  '.'
a4b8	90	(unknown)  '.'
a4b9	a4	(unknown)  '.'
a4ba	c6	(unknown)  '.'
a4bb	12	(unknown)  '.'
a4bc	81	(unknown)  '.'
a4bd	00	(unknown)  '.'
a4be	15	(unknown)  '.'
a4bf	39	(unknown)  '9'
a4c0	15	(unknown)  '.'
a4c1	39	(unknown)  '9'
a4c2	15	(unknown)  '.'
a4c3	39	(unknown)  '9'
a4c4	61	(unknown)  'a'
a4c5	56	(unknown)  'V'
a4c6	2e	(unknown)  '.'
a4c7	2e	(unknown)  '.'
a4c8	48	(unknown)  'H'
a4c9	00	(unknown)  '.'
a4ca	e5	(unknown)  '.'
a4cb	39	(unknown)  '9'
a4cc	12	(unknown)  '.'
a4cd	81	(unknown)  '.'
a4ce	06	(unknown)  '.'
a4cf	e6	(unknown)  '.'
a4d0	90	(unknown)  '.'
a4d1	a6	(unknown)  '.'
a4d2	45	(unknown)  'E'
a4d3	12	(unknown)  '.'
a4d4	92	(unknown)  '.'
a4d5	05	(unknown)  '.'
a4d6	08	(unknown)  '.'
a4d7	22	(unknown)  '"'
a4d8	05	(unknown)  '.'
a4d9	39	(unknown)  '9'
a4da	05	(unknown)  '.'
a4db	39	(unknown)  '9'
a4dc	71	(unknown)  'q'
a4dd	56	(unknown)  'V'
a4de	81	(unknown)  '.'
a4df	63	(unknown)  'c'
a4e0	51	(unknown)  'Q'
a4e1	9d	(unknown)  '.'
a4e2	71	(unknown)  'q'
a4e3	56	(unknown)  'V'
a4e4	81	(unknown)  '.'
a4e5	63	(unknown)  'c'
a4e6	71	(unknown)  'q'
a4e7	34	(unknown)  '4'
a4e8	15	(unknown)  '.'
a4e9	39	(unknown)  '9'
a4ea	71	(unknown)  'q'
a4eb	56	(unknown)  'V'
a4ec	80	(unknown)  '.'
a4ed	8a	(unknown)  '.'
a4ee	91	(unknown)  '.'
a4ef	78	(unknown)  'x'
a4f0	74	(unknown)  't'
a4f1	20	(unknown)  ' '
a4f2	12	(unknown)  '.'
a4f3	81	(unknown)  '.'
a4f4	02	(unknown)  '.'
a4f5	74	(unknown)  't'
a4f6	20	(unknown)  ' '
a4f7	12	(unknown)  '.'
a4f8	81	(unknown)  '.'
a4f9	02	(unknown)  '.'
a4fa	22	(unknown)  '"'
a4fb	d2	(unknown)  '.'
a4fc	d5	(unknown)  '.'
a4fd	90	(unknown)  '.'
a4fe	a8	(unknown)  '.'
a4ff	04	(unknown)  '.'
a500	12	(unknown)  '.'
a501	92	(unknown)  '.'
a502	34	(unknown)  '4'
a503	f6	(unknown)  '.'
a504	e5	(unknown)  '.'
a505	39	(unknown)  '9'
a506	12	(unknown)  '.'
a507	81	(unknown)  '.'
a508	06	(unknown)  '.'
a509	e6	(unknown)  '.'
a50a	90	(unknown)  '.'
a50b	a8	(unknown)  '.'
a50c	04	(unknown)  '.'
a50d	12	(unknown)  '.'
a50e	92	(unknown)  '.'
a50f	05	(unknown)  '.'
a510	08	(unknown)  '.'
a511	74	(unknown)  't'
a512	20	(unknown)  ' '
a513	12	(unknown)  '.'
a514	81	(unknown)  '.'
a515	02	(unknown)  '.'
a516	74	(unknown)  't'
a517	20	(unknown)  ' '
a518	12	(unknown)  '.'
a519	81	(unknown)  '.'
a51a	02	(unknown)  '.'
a51b	22	(unknown)  '"'
a51c	03	(unknown)  '.'
a51d	05	(unknown)  '.'
a51e	08	(unknown)  '.'
a51f	52	(unknown)  'R'
a520	30	(unknown)  '0'
a521	20	(unknown)  ' '
a522	52	(unknown)  'R'
a523	31	(unknown)  '1'
a524	20	(unknown)  ' '
a525	52	(unknown)  'R'
a526	32	(unknown)  '2'
a527	20	(unknown)  ' '
a528	52	(unknown)  'R'
a529	33	(unknown)  '3'
a52a	20	(unknown)  ' '
a52b	52	(unknown)  'R'
a52c	34	(unknown)  '4'
a52d	20	(unknown)  ' '
a52e	52	(unknown)  'R'
a52f	35	(unknown)  '5'
a530	20	(unknown)  ' '
a531	52	(unknown)  'R'
a532	36	(unknown)  '6'
a533	20	(unknown)  ' '
a534	52	(unknown)  'R'
a535	37	(unknown)  '7'
a536	20	(unknown)  ' '
a537	04	(unknown)  '.'
a538	02	(unknown)  '.'
a539	02	(unknown)  '.'
a53a	40	(unknown)  '@'
a53b	52	(unknown)  'R'
a53c	30	(unknown)  '0'
a53d	20	(unknown)  ' '
a53e	40	(unknown)  '@'
a53f	52	(unknown)  'R'
a540	31	(unknown)  '1'
a541	20	(unknown)  ' '
a542	04	(unknown)  '.'
a543	04	(unknown)  '.'
a544	40	(unknown)  '@'
a545	4c	(unknown)  'L'
a546	30	(unknown)  '0'
a547	30	(unknown)  '0'
a548	20	(unknown)  ' '
a549	4c	(unknown)  'L'
a54a	30	(unknown)  '0'
a54b	31	(unknown)  '1'
a54c	20	(unknown)  ' '
a54d	4c	(unknown)  'L'
a54e	30	(unknown)  '0'
a54f	32	(unknown)  '2'
a550	20	(unknown)  ' '
a551	4c	(unknown)  'L'
a552	30	(unknown)  '0'
a553	33	(unknown)  '3'
a554	20	(unknown)  ' '
a555	4c	(unknown)  'L'
a556	30	(unknown)  '0'
a557	34	(unknown)  '4'
a558	20	(unknown)  ' '
a559	4c	(unknown)  'L'
a55a	30	(unknown)  '0'
a55b	35	(unknown)  '5'
a55c	20	(unknown)  ' '
a55d	4c	(unknown)  'L'
a55e	30	(unknown)  '0'
a55f	36	(unknown)  '6'
a560	20	(unknown)  ' '
a561	4c	(unknown)  'L'
a562	30	(unknown)  '0'
a563	37	(unknown)  '7'
a564	20	(unknown)  ' '
a565	4c	(unknown)  'L'
a566	30	(unknown)  '0'
a567	38	(unknown)  '8'
a568	20	(unknown)  ' '
a569	4c	(unknown)  'L'
a56a	30	(unknown)  '0'
a56b	39	(unknown)  '9'
a56c	20	(unknown)  ' '
a56d	4c	(unknown)  'L'
a56e	30	(unknown)  '0'
a56f	41	(unknown)  'A'
a570	20	(unknown)  ' '
a571	4c	(unknown)  'L'
a572	30	(unknown)  '0'
a573	42	(unknown)  'B'
a574	20	(unknown)  ' '
a575	4c	(unknown)  'L'
a576	30	(unknown)  '0'
a577	43	(unknown)  'C'
a578	20	(unknown)  ' '
a579	4c	(unknown)  'L'
a57a	30	(unknown)  '0'
a57b	44	(unknown)  'D'
a57c	20	(unknown)  ' '
a57d	4c	(unknown)  'L'
a57e	30	(unknown)  '0'
a57f	45	(unknown)  'E'
a580	20	(unknown)  ' '
a581	4c	(unknown)  'L'
a582	30	(unknown)  '0'
a583	46	(unknown)  'F'
a584	20	(unknown)  ' '
a585	4c	(unknown)  'L'
a586	31	(unknown)  '1'
a587	30	(unknown)  '0'
a588	20	(unknown)  ' '
a589	4c	(unknown)  'L'
a58a	31	(unknown)  '1'
a58b	31	(unknown)  '1'
a58c	20	(unknown)  ' '
a58d	4c	(unknown)  'L'
a58e	31	(unknown)  '1'
a58f	32	(unknown)  '2'
a590	20	(unknown)  ' '
a591	4c	(unknown)  'L'
a592	31	(unknown)  '1'
a593	33	(unknown)  '3'
a594	20	(unknown)  ' '
a595	4c	(unknown)  'L'
a596	31	(unknown)  '1'
a597	34	(unknown)  '4'
a598	20	(unknown)  ' '
a599	4c	(unknown)  'L'
a59a	31	(unknown)  '1'
a59b	35	(unknown)  '5'
a59c	20	(unknown)  ' '
a59d	4c	(unknown)  'L'
a59e	31	(unknown)  '1'
a59f	36	(unknown)  '6'
a5a0	20	(unknown)  ' '
a5a1	4c	(unknown)  'L'
a5a2	31	(unknown)  '1'
a5a3	37	(unknown)  '7'
a5a4	20	(unknown)  ' '
a5a5	4c	(unknown)  'L'
a5a6	31	(unknown)  '1'
a5a7	38	(unknown)  '8'
a5a8	20	(unknown)  ' '
a5a9	4c	(unknown)  'L'
a5aa	31	(unknown)  '1'
a5ab	39	(unknown)  '9'
a5ac	20	(unknown)  ' '
a5ad	4c	(unknown)  'L'
a5ae	31	(unknown)  '1'
a5af	41	(unknown)  'A'
a5b0	20	(unknown)  ' '
a5b1	4c	(unknown)  'L'
a5b2	31	(unknown)  '1'
a5b3	42	(unknown)  'B'
a5b4	20	(unknown)  ' '
a5b5	4c	(unknown)  'L'
a5b6	31	(unknown)  '1'
a5b7	43	(unknown)  'C'
a5b8	20	(unknown)  ' '
a5b9	4c	(unknown)  'L'
a5ba	31	(unknown)  '1'
a5bb	44	(unknown)  'D'
a5bc	20	(unknown)  ' '
a5bd	4c	(unknown)  'L'
a5be	31	(unknown)  '1'
a5bf	45	(unknown)  'E'
a5c0	20	(unknown)  ' '
a5c1	4c	(unknown)  'L'
a5c2	31	(unknown)  '1'
a5c3	46	(unknown)  'F'
a5c4	20	(unknown)  ' '
a5c5	4c	(unknown)  'L'
a5c6	32	(unknown)  '2'
a5c7	30	(unknown)  '0'
a5c8	20	(unknown)  ' '
a5c9	4c	(unknown)  'L'
a5ca	32	(unknown)  '2'
a5cb	31	(unknown)  '1'
a5cc	20	(unknown)  ' '
a5cd	4c	(unknown)  'L'
a5ce	32	(unknown)  '2'
a5cf	32	(unknown)  '2'
a5d0	20	(unknown)  ' '
a5d1	4c	(unknown)  'L'
a5d2	32	(unknown)  '2'
a5d3	33	(unknown)  '3'
a5d4	20	(unknown)  ' '
a5d5	4c	(unknown)  'L'
a5d6	32	(unknown)  '2'
a5d7	34	(unknown)  '4'
a5d8	20	(unknown)  ' '
a5d9	4c	(unknown)  'L'
a5da	32	(unknown)  '2'
a5db	35	(unknown)  '5'
a5dc	20	(unknown)  ' '
a5dd	4c	(unknown)  'L'
a5de	32	(unknown)  '2'
a5df	36	(unknown)  '6'
a5e0	20	(unknown)  ' '
a5e1	4c	(unknown)  'L'
a5e2	32	(unknown)  '2'
a5e3	37	(unknown)  '7'
a5e4	20	(unknown)  ' '
a5e5	4c	(unknown)  'L'
a5e6	32	(unknown)  '2'
a5e7	38	(unknown)  '8'
a5e8	20	(unknown)  ' '
a5e9	4c	(unknown)  'L'
a5ea	32	(unknown)  '2'
a5eb	39	(unknown)  '9'
a5ec	20	(unknown)  ' '
a5ed	4c	(unknown)  'L'
a5ee	32	(unknown)  '2'
a5ef	41	(unknown)  'A'
a5f0	20	(unknown)  ' '
a5f1	4c	(unknown)  'L'
a5f2	32	(unknown)  '2'
a5f3	42	(unknown)  'B'
a5f4	20	(unknown)  ' '
a5f5	4c	(unknown)  'L'
a5f6	32	(unknown)  '2'
a5f7	43	(unknown)  'C'
a5f8	20	(unknown)  ' '
a5f9	4c	(unknown)  'L'
a5fa	32	(unknown)  '2'
a5fb	44	(unknown)  'D'
a5fc	20	(unknown)  ' '
a5fd	4c	(unknown)  'L'
a5fe	32	(unknown)  '2'
a5ff	45	(unknown)  'E'
a600	20	(unknown)  ' '
a601	4c	(unknown)  'L'
a602	32	(unknown)  '2'
a603	46	(unknown)  'F'
a604	20	(unknown)  ' '
a605	4c	(unknown)  'L'
a606	33	(unknown)  '3'
a607	30	(unknown)  '0'
a608	20	(unknown)  ' '
a609	4c	(unknown)  'L'
a60a	33	(unknown)  '3'
a60b	31	(unknown)  '1'
a60c	20	(unknown)  ' '
a60d	4c	(unknown)  'L'
a60e	33	(unknown)  '3'
a60f	32	(unknown)  '2'
a610	20	(unknown)  ' '
a611	4c	(unknown)  'L'
a612	33	(unknown)  '3'
a613	33	(unknown)  '3'
a614	20	(unknown)  ' '
a615	4c	(unknown)  'L'
a616	33	(unknown)  '3'
a617	34	(unknown)  '4'
a618	20	(unknown)  ' '
a619	4c	(unknown)  'L'
a61a	33	(unknown)  '3'
a61b	35	(unknown)  '5'
a61c	20	(unknown)  ' '
a61d	4c	(unknown)  'L'
a61e	33	(unknown)  '3'
a61f	36	(unknown)  '6'
a620	20	(unknown)  ' '
a621	4c	(unknown)  'L'
a622	33	(unknown)  '3'
a623	37	(unknown)  '7'
a624	20	(unknown)  ' '
a625	4c	(unknown)  'L'
a626	33	(unknown)  '3'
a627	38	(unknown)  '8'
a628	20	(unknown)  ' '
a629	4c	(unknown)  'L'
a62a	33	(unknown)  '3'
a62b	39	(unknown)  '9'
a62c	20	(unknown)  ' '
a62d	4c	(unknown)  'L'
a62e	33	(unknown)  '3'
a62f	41	(unknown)  'A'
a630	20	(unknown)  ' '
a631	4c	(unknown)  'L'
a632	33	(unknown)  '3'
a633	42	(unknown)  'B'
a634	20	(unknown)  ' '
a635	4c	(unknown)  'L'
a636	33	(unknown)  '3'
a637	43	(unknown)  'C'
a638	20	(unknown)  ' '
a639	4c	(unknown)  'L'
a63a	33	(unknown)  '3'
a63b	44	(unknown)  'D'
a63c	20	(unknown)  ' '
a63d	4c	(unknown)  'L'
a63e	33	(unknown)  '3'
a63f	45	(unknown)  'E'
a640	20	(unknown)  ' '
a641	4c	(unknown)  'L'
a642	33	(unknown)  '3'
a643	46	(unknown)  'F'
a644	20	(unknown)  ' '
a645	04	(unknown)  '.'
a646	04	(unknown)  '.'
a647	11	(unknown)  '.'
a648	68	(unknown)  'h'
a649	65	(unknown)  'e'
a64a	78	(unknown)  'x'
a64b	20	(unknown)  ' '
a64c	4c	(unknown)  'L'
a64d	30	(unknown)  '0'
a64e	30	(unknown)  '0'
a64f	20	(unknown)  ' '
a650	4c	(unknown)  'L'
a651	30	(unknown)  '0'
a652	31	(unknown)  '1'
a653	20	(unknown)  ' '
a654	4c	(unknown)  'L'
a655	30	(unknown)  '0'
a656	32	(unknown)  '2'
a657	20	(unknown)  ' '
a658	4c	(unknown)  'L'
a659	30	(unknown)  '0'
a65a	33	(unknown)  '3'
a65b	20	(unknown)  ' '
a65c	4c	(unknown)  'L'
a65d	30	(unknown)  '0'
a65e	34	(unknown)  '4'
a65f	20	(unknown)  ' '
a660	4c	(unknown)  'L'
a661	30	(unknown)  '0'
a662	35	(unknown)  '5'
a663	20	(unknown)  ' '
a664	4c	(unknown)  'L'
a665	30	(unknown)  '0'
a666	36	(unknown)  '6'
a667	20	(unknown)  ' '
a668	4c	(unknown)  'L'
a669	30	(unknown)  '0'
a66a	37	(unknown)  '7'
a66b	20	(unknown)  ' '
a66c	4c	(unknown)  'L'
a66d	30	(unknown)  '0'
a66e	38	(unknown)  '8'
a66f	20	(unknown)  ' '
a670	4c	(unknown)  'L'
a671	30	(unknown)  '0'
a672	39	(unknown)  '9'
a673	20	(unknown)  ' '
a674	4c	(unknown)  'L'
a675	30	(unknown)  '0'
a676	41	(unknown)  'A'
a677	20	(unknown)  ' '
a678	4c	(unknown)  'L'
a679	30	(unknown)  '0'
a67a	42	(unknown)  'B'
a67b	20	(unknown)  ' '
a67c	4c	(unknown)  'L'
a67d	30	(unknown)  '0'
a67e	43	(unknown)  'C'
a67f	20	(unknown)  ' '
a680	4c	(unknown)  'L'
a681	30	(unknown)  '0'
a682	44	(unknown)  'D'
a683	20	(unknown)  ' '
a684	4c	(unknown)  'L'
a685	30	(unknown)  '0'
a686	45	(unknown)  'E'
a687	20	(unknown)  ' '
a688	4c	(unknown)  'L'
a689	30	(unknown)  '0'
a68a	46	(unknown)  'F'
a68b	20	(unknown)  ' '
a68c	05	(unknown)  '.'
a68d	03	(unknown)  '.'
a68e	34	(unknown)  '4'
a68f	50	(unknown)  'P'
a690	31	(unknown)  '1'
a691	2e	(unknown)  '.'
a692	30	(unknown)  '0'
a693	20	(unknown)  ' '
a694	50	(unknown)  'P'
a695	31	(unknown)  '1'
a696	2e	(unknown)  '.'
a697	31	(unknown)  '1'
a698	20	(unknown)  ' '
a699	50	(unknown)  'P'
a69a	31	(unknown)  '1'
a69b	2e	(unknown)  '.'
a69c	32	(unknown)  '2'
a69d	20	(unknown)  ' '
a69e	50	(unknown)  'P'
a69f	31	(unknown)  '1'
a6a0	2e	(unknown)  '.'
a6a1	33	(unknown)  '3'
a6a2	20	(unknown)  ' '
a6a3	50	(unknown)  'P'
a6a4	31	(unknown)  '1'
a6a5	2e	(unknown)  '.'
a6a6	34	(unknown)  '4'
a6a7	20	(unknown)  ' '
a6a8	50	(unknown)  'P'
a6a9	31	(unknown)  '1'
a6aa	2e	(unknown)  '.'
a6ab	35	(unknown)  '5'
a6ac	20	(unknown)  ' '
a6ad	50	(unknown)  'P'
a6ae	31	(unknown)  '1'
a6af	2e	(unknown)  '.'
a6b0	36	(unknown)  '6'
a6b1	20	(unknown)  ' '
a6b2	50	(unknown)  'P'
a6b3	31	(unknown)  '1'
a6b4	2e	(unknown)  '.'
a6b5	37	(unknown)  '7'
a6b6	20	(unknown)  ' '
a6b7	50	(unknown)  'P'
a6b8	33	(unknown)  '3'
a6b9	2e	(unknown)  '.'
a6ba	30	(unknown)  '0'
a6bb	20	(unknown)  ' '
a6bc	50	(unknown)  'P'
a6bd	33	(unknown)  '3'
a6be	2e	(unknown)  '.'
a6bf	31	(unknown)  '1'
a6c0	20	(unknown)  ' '
a6c1	50	(unknown)  'P'
a6c2	33	(unknown)  '3'
a6c3	2e	(unknown)  '.'
a6c4	32	(unknown)  '2'
a6c5	20	(unknown)  ' '
a6c6	50	(unknown)  'P'
a6c7	33	(unknown)  '3'
a6c8	2e	(unknown)  '.'
a6c9	33	(unknown)  '3'
a6ca	20	(unknown)  ' '
a6cb	50	(unknown)  'P'
a6cc	33	(unknown)  '3'
a6cd	2e	(unknown)  '.'
a6ce	34	(unknown)  '4'
a6cf	20	(unknown)  ' '
a6d0	50	(unknown)  'P'
a6d1	33	(unknown)  '3'
a6d2	2e	(unknown)  '.'
a6d3	35	(unknown)  '5'
a6d4	20	(unknown)  ' '
a6d5	50	(unknown)  'P'
a6d6	33	(unknown)  '3'
a6d7	2e	(unknown)  '.'
a6d8	36	(unknown)  '6'
a6d9	20	(unknown)  ' '
a6da	50	(unknown)  'P'
a6db	33	(unknown)  '3'
a6dc	2e	(unknown)  '.'
a6dd	37	(unknown)  '7'
a6de	20	(unknown)  ' '
a6df	50	(unknown)  'P'
a6e0	20	(unknown)  ' '
a6e1	20	(unknown)  ' '
a6e2	20	(unknown)  ' '
a6e3	20	(unknown)  ' '
a6e4	50	(unknown)  'P'
a6e5	53	(unknown)  'S'
a6e6	57	(unknown)  'W'
a6e7	2e	(unknown)  '.'
a6e8	31	(unknown)  '1'
a6e9	20	(unknown)  ' '
a6ea	4f	(unknown)  'O'
a6eb	56	(unknown)  'V'
a6ec	20	(unknown)  ' '
a6ed	20	(unknown)  ' '
a6ee	52	(unknown)  'R'
a6ef	53	(unknown)  'S'
a6f0	30	(unknown)  '0'
a6f1	20	(unknown)  ' '
a6f2	20	(unknown)  ' '
a6f3	52	(unknown)  'R'
a6f4	53	(unknown)  'S'
a6f5	31	(unknown)  '1'
a6f6	20	(unknown)  ' '
a6f7	20	(unknown)  ' '
a6f8	46	(unknown)  'F'
a6f9	30	(unknown)  '0'
a6fa	20	(unknown)  ' '
a6fb	20	(unknown)  ' '
a6fc	20	(unknown)  ' '
a6fd	41	(unknown)  'A'
a6fe	43	(unknown)  'C'
a6ff	20	(unknown)  ' '
a700	20	(unknown)  ' '
a701	20	(unknown)  ' '
a702	43	(unknown)  'C'
a703	59	(unknown)  'Y'
a704	20	(unknown)  ' '
a705	20	(unknown)  ' '
a706	20	(unknown)  ' '
a707	50	(unknown)  'P'
a708	58	(unknown)  'X'
a709	30	(unknown)  '0'
a70a	20	(unknown)  ' '
a70b	20	(unknown)  ' '
a70c	50	(unknown)  'P'
a70d	54	(unknown)  'T'
a70e	30	(unknown)  '0'
a70f	20	(unknown)  ' '
a710	20	(unknown)  ' '
a711	50	(unknown)  'P'
a712	58	(unknown)  'X'
a713	31	(unknown)  '1'
a714	20	(unknown)  ' '
a715	20	(unknown)  ' '
a716	50	(unknown)  'P'
a717	54	(unknown)  'T'
a718	31	(unknown)  '1'
a719	20	(unknown)  ' '
a71a	20	(unknown)  ' '
a71b	50	(unknown)  'P'
a71c	53	(unknown)  'S'
a71d	20	(unknown)  ' '
a71e	20	(unknown)  ' '
a71f	20	(unknown)  ' '
a720	45	(unknown)  'E'
a721	58	(unknown)  'X'
a722	30	(unknown)  '0'
a723	20	(unknown)  ' '
a724	20	(unknown)  ' '
a725	45	(unknown)  'E'
a726	54	(unknown)  'T'
a727	30	(unknown)  '0'
a728	20	(unknown)  ' '
a729	20	(unknown)  ' '
a72a	45	(unknown)  'E'
a72b	58	(unknown)  'X'
a72c	31	(unknown)  '1'
a72d	20	(unknown)  ' '
a72e	20	(unknown)  ' '
a72f	45	(unknown)  'E'
a730	54	(unknown)  'T'
a731	31	(unknown)  '1'
a732	20	(unknown)  ' '
a733	20	(unknown)  ' '
a734	45	(unknown)  'E'
a735	53	(unknown)  'S'
a736	20	(unknown)  ' '
a737	20	(unknown)  ' '
a738	20	(unknown)  ' '
a739	45	(unknown)  'E'
a73a	41	(unknown)  'A'
a73b	20	(unknown)  ' '
a73c	20	(unknown)  ' '
a73d	20	(unknown)  ' '
a73e	49	(unknown)  'I'
a73f	54	(unknown)  'T'
a740	30	(unknown)  '0'
a741	20	(unknown)  ' '
a742	20	(unknown)  ' '
a743	49	(unknown)  'I'
a744	45	(unknown)  'E'
a745	30	(unknown)  '0'
a746	20	(unknown)  ' '
a747	20	(unknown)  ' '
a748	49	(unknown)  'I'
a749	54	(unknown)  'T'
a74a	31	(unknown)  '1'
a74b	20	(unknown)  ' '
a74c	20	(unknown)  ' '
a74d	49	(unknown)  'I'
a74e	45	(unknown)  'E'
a74f	31	(unknown)  '1'
a750	20	(unknown)  ' '
a751	20	(unknown)  ' '
a752	54	(unknown)  'T'
a753	52	(unknown)  'R'
a754	30	(unknown)  '0'
a755	20	(unknown)  ' '
a756	20	(unknown)  ' '
a757	54	(unknown)  'T'
a758	46	(unknown)  'F'
a759	30	(unknown)  '0'
a75a	20	(unknown)  ' '
a75b	20	(unknown)  ' '
a75c	54	(unknown)  'T'
a75d	52	(unknown)  'R'
a75e	31	(unknown)  '1'
a75f	20	(unknown)  ' '
a760	20	(unknown)  ' '
a761	54	(unknown)  'T'
a762	46	(unknown)  'F'
a763	31	(unknown)  '1'
a764	20	(unknown)  ' '
a765	20	(unknown)  ' '
a766	52	(unknown)  'R'
a767	49	(unknown)  'I'
a768	20	(unknown)  ' '
a769	20	(unknown)  ' '
a76a	20	(unknown)  ' '
a76b	54	(unknown)  'T'
a76c	49	(unknown)  'I'
a76d	20	(unknown)  ' '
a76e	20	(unknown)  ' '
a76f	20	(unknown)  ' '
a770	52	(unknown)  'R'
a771	42	(unknown)  'B'
a772	38	(unknown)  '8'
a773	20	(unknown)  ' '
a774	20	(unknown)  ' '
a775	54	(unknown)  'T'
a776	42	(unknown)  'B'
a777	38	(unknown)  '8'
a778	20	(unknown)  ' '
a779	20	(unknown)  ' '
a77a	52	(unknown)  'R'
a77b	45	(unknown)  'E'
a77c	4e	(unknown)  'N'
a77d	20	(unknown)  ' '
a77e	20	(unknown)  ' '
a77f	53	(unknown)  'S'
a780	4d	(unknown)  'M'
a781	32	(unknown)  '2'
a782	20	(unknown)  ' '
a783	20	(unknown)  ' '
a784	53	(unknown)  'S'
a785	4d	(unknown)  'M'
a786	31	(unknown)  '1'
a787	20	(unknown)  ' '
a788	20	(unknown)  ' '
a789	53	(unknown)  'S'
a78a	4d	(unknown)  'M'
a78b	30	(unknown)  '0'
a78c	20	(unknown)  ' '
a78d	20	(unknown)  ' '
a78e	68	(unknown)  'h'
a78f	65	(unknown)  'e'
a790	78	(unknown)  'x'
a791	20	(unknown)  ' '
a792	20	(unknown)  ' '
a793	05	(unknown)  '.'
a794	03	(unknown)  '.'
a795	16	(unknown)  '.'
a796	41	(unknown)  'A'
a797	43	(unknown)  'C'
a798	43	(unknown)  'C'
a799	20	(unknown)  ' '
a79a	20	(unknown)  ' '
a79b	42	(unknown)  'B'
a79c	20	(unknown)  ' '
a79d	20	(unknown)  ' '
a79e	20	(unknown)  ' '
a79f	20	(unknown)  ' '
a7a0	50	(unknown)  'P'
a7a1	53	(unknown)  'S'
a7a2	57	(unknown)  'W'
a7a3	20	(unknown)  ' '
a7a4	20	(unknown)  ' '
a7a5	53	(unknown)  'S'
a7a6	50	(unknown)  'P'
a7a7	20	(unknown)  ' '
a7a8	20	(unknown)  ' '
a7a9	20	(unknown)  ' '
a7aa	44	(unknown)  'D'
a7ab	50	(unknown)  'P'
a7ac	4c	(unknown)  'L'
a7ad	20	(unknown)  ' '
a7ae	20	(unknown)  ' '
a7af	44	(unknown)  'D'
a7b0	50	(unknown)  'P'
a7b1	48	(unknown)  'H'
a7b2	20	(unknown)  ' '
a7b3	20	(unknown)  ' '
a7b4	50	(unknown)  'P'
a7b5	30	(unknown)  '0'
a7b6	20	(unknown)  ' '
a7b7	20	(unknown)  ' '
a7b8	20	(unknown)  ' '
a7b9	50	(unknown)  'P'
a7ba	31	(unknown)  '1'
a7bb	20	(unknown)  ' '
a7bc	20	(unknown)  ' '
a7bd	20	(unknown)  ' '
a7be	50	(unknown)  'P'
a7bf	32	(unknown)  '2'
a7c0	20	(unknown)  ' '
a7c1	20	(unknown)  ' '
a7c2	20	(unknown)  ' '
a7c3	50	(unknown)  'P'
a7c4	33	(unknown)  '3'
a7c5	20	(unknown)  ' '
a7c6	20	(unknown)  ' '
a7c7	20	(unknown)  ' '
a7c8	49	(unknown)  'I'
a7c9	50	(unknown)  'P'
a7ca	20	(unknown)  ' '
a7cb	20	(unknown)  ' '
a7cc	20	(unknown)  ' '
a7cd	49	(unknown)  'I'
a7ce	45	(unknown)  'E'
a7cf	20	(unknown)  ' '
a7d0	20	(unknown)  ' '
a7d1	20	(unknown)  ' '
a7d2	54	(unknown)  'T'
a7d3	4d	(unknown)  'M'
a7d4	4f	(unknown)  'O'
a7d5	44	(unknown)  'D'
a7d6	20	(unknown)  ' '
a7d7	54	(unknown)  'T'
a7d8	43	(unknown)  'C'
a7d9	4f	(unknown)  'O'
a7da	4e	(unknown)  'N'
a7db	20	(unknown)  ' '
a7dc	54	(unknown)  'T'
a7dd	48	(unknown)  'H'
a7de	30	(unknown)  '0'
a7df	20	(unknown)  ' '
a7e0	20	(unknown)  ' '
a7e1	54	(unknown)  'T'
a7e2	4c	(unknown)  'L'
a7e3	30	(unknown)  '0'
a7e4	20	(unknown)  ' '
a7e5	20	(unknown)  ' '
a7e6	54	(unknown)  'T'
a7e7	48	(unknown)  'H'
a7e8	31	(unknown)  '1'
a7e9	20	(unknown)  ' '
a7ea	20	(unknown)  ' '
a7eb	54	(unknown)  'T'
a7ec	4c	(unknown)  'L'
a7ed	31	(unknown)  '1'
a7ee	20	(unknown)  ' '
a7ef	20	(unknown)  ' '
a7f0	53	(unknown)  'S'
a7f1	43	(unknown)  'C'
a7f2	4f	(unknown)  'O'
a7f3	4e	(unknown)  'N'
a7f4	20	(unknown)  ' '
a7f5	53	(unknown)  'S'
a7f6	42	(unknown)  'B'
a7f7	55	(unknown)  'U'
a7f8	46	(unknown)  'F'
a7f9	20	(unknown)  ' '
a7fa	50	(unknown)  'P'
a7fb	43	(unknown)  'C'
a7fc	4f	(unknown)  'O'
a7fd	4e	(unknown)  'N'
a7fe	20	(unknown)  ' '
a7ff	68	(unknown)  'h'
a800	65	(unknown)  'e'
a801	78	(unknown)  'x'
a802	20	(unknown)  ' '
a803	20	(unknown)  ' '
a804	08	(unknown)  '.'
a805	02	(unknown)  '.'
a806	26	(unknown)  '&'
a807	57	(unknown)  'W'
a808	52	(unknown)  'R'
a809	5f	(unknown)  '_'
a80a	54	(unknown)  'T'
a80b	45	(unknown)  'E'
a80c	58	(unknown)  'X'
a80d	54	(unknown)  'T'
a80e	20	(unknown)  ' '
a80f	57	(unknown)  'W'
a810	52	(unknown)  'R'
a811	5f	(unknown)  '_'
a812	44	(unknown)  'D'
a813	41	(unknown)  'A'
a814	54	(unknown)  'T'
a815	41	(unknown)  'A'
a816	20	(unknown)  ' '
a817	57	(unknown)  'W'
a818	52	(unknown)  'R'
a819	5f	(unknown)  '_'
a81a	48	(unknown)  'H'
a81b	45	(unknown)  'E'
a81c	58	(unknown)  'X'
a81d	20	(unknown)  ' '
a81e	20	(unknown)  ' '
a81f	57	(unknown)  'W'
a820	52	(unknown)  'R'
a821	5f	(unknown)  '_'
a822	49	(unknown)  'I'
a823	4e	(unknown)  'N'
a824	53	(unknown)  'S'
a825	54	(unknown)  'T'
a826	20	(unknown)  ' '
a827	4c	(unknown)  'L'
a828	43	(unknown)  'C'
a829	44	(unknown)  'D'
a82a	5f	(unknown)  '_'
a82b	49	(unknown)  'I'
a82c	4e	(unknown)  'N'
a82d	49	(unknown)  'I'
a82e	20	(unknown)  ' '
a82f	4c	(unknown)  'L'
a830	43	(unknown)  'C'
a831	44	(unknown)  'D'
a832	5f	(unknown)  '_'
a833	4f	(unknown)  'O'
a834	46	(unknown)  'F'
a835	46	(unknown)  'F'
a836	20	(unknown)  ' '
a837	4c	(unknown)  'L'
a838	43	(unknown)  'C'
a839	44	(unknown)  'D'
a83a	5f	(unknown)  '_'
a83b	43	(unknown)  'C'
a83c	4c	(unknown)  'L'
a83d	52	(unknown)  'R'
a83e	20	(unknown)  ' '
a83f	44	(unknown)  'D'
a840	45	(unknown)  'E'
a841	4c	(unknown)  'L'
a842	5f	(unknown)  '_'
a843	55	(unknown)  'U'
a844	53	(unknown)  'S'
a845	20	(unknown)  ' '
a846	20	(unknown)  ' '
a847	44	(unknown)  'D'
a848	45	(unknown)  'E'
a849	4c	(unknown)  'L'
a84a	5f	(unknown)  '_'
a84b	4d	(unknown)  'M'
a84c	53	(unknown)  'S'
a84d	20	(unknown)  ' '
a84e	20	(unknown)  ' '
a84f	44	(unknown)  'D'
a850	45	(unknown)  'E'
a851	4c	(unknown)  'L'
a852	5f	(unknown)  '_'
a853	31	(unknown)  '1'
a854	30	(unknown)  '0'
a855	30	(unknown)  '0'
a856	20	(unknown)  ' '
a857	57	(unknown)  'W'
a858	41	(unknown)  'A'
a859	49	(unknown)  'I'
a85a	54	(unknown)  'T'
a85b	5f	(unknown)  '_'
a85c	45	(unknown)  'E'
a85d	4e	(unknown)  'N'
a85e	20	(unknown)  ' '
a85f	57	(unknown)  'W'
a860	5f	(unknown)  '_'
a861	45	(unknown)  'E'
a862	4e	(unknown)  'N'
a863	5f	(unknown)  '_'
a864	4e	(unknown)  'N'
a865	57	(unknown)  'W'
a866	20	(unknown)  ' '
a867	54	(unknown)  'T'
a868	45	(unknown)  'E'
a869	53	(unknown)  'S'
a86a	54	(unknown)  'T'
a86b	5f	(unknown)  '_'
a86c	45	(unknown)  'E'
a86d	4e	(unknown)  'N'
a86e	20	(unknown)  ' '
a86f	57	(unknown)  'W'
a870	5f	(unknown)  '_'
a871	45	(unknown)  'E'
a872	4e	(unknown)  'N'
a873	5f	(unknown)  '_'
a874	45	(unknown)  'E'
a875	53	(unknown)  'S'
a876	20	(unknown)  ' '
a877	57	(unknown)  'W'
a878	5f	(unknown)  '_'
a879	4b	(unknown)  'K'
a87a	45	(unknown)  'E'
a87b	59	(unknown)  'Y'
a87c	20	(unknown)  ' '
a87d	20	(unknown)  ' '
a87e	20	(unknown)  ' '
a87f	47	(unknown)  'G'
a880	45	(unknown)  'E'
a881	54	(unknown)  'T'
a882	5f	(unknown)  '_'
a883	4e	(unknown)  'N'
a884	55	(unknown)  'U'
a885	4d	(unknown)  'M'
a886	20	(unknown)  ' '
a887	42	(unknown)  'B'
a888	43	(unknown)  'C'
a889	44	(unknown)  'D'
a88a	5f	(unknown)  '_'
a88b	48	(unknown)  'H'
a88c	45	(unknown)  'E'
a88d	58	(unknown)  'X'
a88e	20	(unknown)  ' '
a88f	48	(unknown)  'H'
a890	45	(unknown)  'E'
a891	58	(unknown)  'X'
a892	5f	(unknown)  '_'
a893	42	(unknown)  'B'
a894	43	(unknown)  'C'
a895	44	(unknown)  'D'
a896	20	(unknown)  ' '
a897	4d	(unknown)  'M'
a898	55	(unknown)  'U'
a899	4c	(unknown)  'L'
a89a	5f	(unknown)  '_'
a89b	32	(unknown)  '2'
a89c	5f	(unknown)  '_'
a89d	32	(unknown)  '2'
a89e	20	(unknown)  ' '
a89f	4d	(unknown)  'M'
a8a0	55	(unknown)  'U'
a8a1	4c	(unknown)  'L'
a8a2	5f	(unknown)  '_'
a8a3	33	(unknown)  '3'
a8a4	5f	(unknown)  '_'
a8a5	31	(unknown)  '1'
a8a6	20	(unknown)  ' '
a8a7	44	(unknown)  'D'
a8a8	49	(unknown)  'I'
a8a9	56	(unknown)  'V'
a8aa	5f	(unknown)  '_'
a8ab	32	(unknown)  '2'
a8ac	5f	(unknown)  '_'
a8ad	31	(unknown)  '1'
a8ae	20	(unknown)  ' '
a8af	44	(unknown)  'D'
a8b0	49	(unknown)  'I'
a8b1	56	(unknown)  'V'
a8b2	5f	(unknown)  '_'
a8b3	34	(unknown)  '4'
a8b4	5f	(unknown)  '_'
a8b5	32	(unknown)  '2'
a8b6	20	(unknown)  ' '
a8b7	4c	(unknown)  'L'
a8b8	30	(unknown)  '0'
a8b9	30	(unknown)  '0'
a8ba	20	(unknown)  ' '
a8bb	20	(unknown)  ' '
a8bc	20	(unknown)  ' '
a8bd	20	(unknown)  ' '
a8be	20	(unknown)  ' '
a8bf	4c	(unknown)  'L'
a8c0	30	(unknown)  '0'
a8c1	31	(unknown)  '1'
a8c2	20	(unknown)  ' '
a8c3	20	(unknown)  ' '
a8c4	20	(unknown)  ' '
a8c5	20	(unknown)  ' '
a8c6	20	(unknown)  ' '
a8c7	4c	(unknown)  'L'
a8c8	30	(unknown)  '0'
a8c9	32	(unknown)  '2'
a8ca	20	(unknown)  ' '
a8cb	20	(unknown)  ' '
a8cc	20	(unknown)  ' '
a8cd	20	(unknown)  ' '
a8ce	20	(unknown)  ' '
a8cf	4c	(unknown)  'L'
a8d0	30	(unknown)  '0'
a8d1	33	(unknown)  '3'
a8d2	20	(unknown)  ' '
a8d3	20	(unknown)  ' '
a8d4	20	(unknown)  ' '
a8d5	20	(unknown)  ' '
a8d6	20	(unknown)  ' '
a8d7	4c	(unknown)  'L'
a8d8	30	(unknown)  '0'
a8d9	34	(unknown)  '4'
a8da	20	(unknown)  ' '
a8db	20	(unknown)  ' '
a8dc	20	(unknown)  ' '
a8dd	20	(unknown)  ' '
a8de	20	(unknown)  ' '
a8df	4c	(unknown)  'L'
a8e0	30	(unknown)  '0'
a8e1	35	(unknown)  '5'
a8e2	20	(unknown)  ' '
a8e3	20	(unknown)  ' '
a8e4	20	(unknown)  ' '
a8e5	20	(unknown)  ' '
a8e6	20	(unknown)  ' '
a8e7	4c	(unknown)  'L'
a8e8	30	(unknown)  '0'
a8e9	36	(unknown)  '6'
a8ea	20	(unknown)  ' '
a8eb	20	(unknown)  ' '
a8ec	20	(unknown)  ' '
a8ed	20	(unknown)  ' '
a8ee	20	(unknown)  ' '
a8ef	4c	(unknown)  'L'
a8f0	30	(unknown)  '0'
a8f1	37	(unknown)  '7'
a8f2	20	(unknown)  ' '
a8f3	20	(unknown)  ' '
a8f4	20	(unknown)  ' '
a8f5	20	(unknown)  ' '
a8f6	20	(unknown)  ' '
a8f7	4c	(unknown)  'L'
a8f8	30	(unknown)  '0'
a8f9	38	(unknown)  '8'
a8fa	20	(unknown)  ' '
a8fb	20	(unknown)  ' '
a8fc	20	(unknown)  ' '
a8fd	20	(unknown)  ' '
a8fe	20	(unknown)  ' '
a8ff	4c	(unknown)  'L'
a900	30	(unknown)  '0'
a901	39	(unknown)  '9'
a902	20	(unknown)  ' '
a903	20	(unknown)  ' '
a904	20	(unknown)  ' '
a905	20	(unknown)  ' '
a906	20	(unknown)  ' '
a907	4c	(unknown)  'L'
a908	30	(unknown)  '0'
a909	41	(unknown)  'A'
a90a	20	(unknown)  ' '
a90b	20	(unknown)  ' '
a90c	20	(unknown)  ' '
a90d	20	(unknown)  ' '
a90e	20	(unknown)  ' '
a90f	4c	(unknown)  'L'
a910	30	(unknown)  '0'
a911	42	(unknown)  'B'
a912	20	(unknown)  ' '
a913	20	(unknown)  ' '
a914	20	(unknown)  ' '
a915	20	(unknown)  ' '
a916	20	(unknown)  ' '
a917	4c	(unknown)  'L'
a918	30	(unknown)  '0'
a919	43	(unknown)  'C'
a91a	20	(unknown)  ' '
a91b	20	(unknown)  ' '
a91c	20	(unknown)  ' '
a91d	20	(unknown)  ' '
a91e	20	(unknown)  ' '
a91f	4c	(unknown)  'L'
a920	30	(unknown)  '0'
a921	44	(unknown)  'D'
a922	20	(unknown)  ' '
a923	20	(unknown)  ' '
a924	20	(unknown)  ' '
a925	20	(unknown)  ' '
a926	20	(unknown)  ' '
a927	4c	(unknown)  'L'
a928	30	(unknown)  '0'
a929	45	(unknown)  'E'
a92a	20	(unknown)  ' '
a92b	20	(unknown)  ' '
a92c	20	(unknown)  ' '
a92d	20	(unknown)  ' '
a92e	20	(unknown)  ' '
a92f	4c	(unknown)  'L'
a930	30	(unknown)  '0'
a931	46	(unknown)  'F'
a932	20	(unknown)  ' '
a933	20	(unknown)  ' '
a934	20	(unknown)  ' '
a935	20	(unknown)  ' '
a936	20	(unknown)  ' '
a937	04      			inc A
a938	83      			movc A, @A+PC
a939	22      			ret
a93a	11	(unknown)  '.'
a93b	28	(unknown)  '('
a93c	25	(unknown)  '%'
a93d	26	(unknown)  '&'
a93e	24	(unknown)  '$'
a93f	38	(unknown)  '8'
a940	35	(unknown)  '5'
a941	36	(unknown)  '6'
a942	34	(unknown)  '4'
a943	01	(unknown)  '.'
a944	58	(unknown)  'X'
a945	55	(unknown)  'U'
a946	56	(unknown)  'V'
a947	54	(unknown)  'T'
a948	52	(unknown)  'R'
a949	53	(unknown)  'S'
a94a	82	(unknown)  '.'
a94b	b0	(unknown)  '.'
a94c	b5	(unknown)  '.'
a94d	b4	(unknown)  '.'
a94e	b8	(unknown)  '.'
a94f	b6	(unknown)  '.'
a950	e4	(unknown)  '.'
a951	c3	(unknown)  '.'
a952	c2	(unknown)  '.'
a953	f4	(unknown)  '.'
a954	b3	(unknown)  '.'
a955	b2	(unknown)  '.'
a956	d4	(unknown)  '.'
a957	14	(unknown)  '.'
a958	18	(unknown)  '.'
a959	15	(unknown)  '.'
a95a	16	(unknown)  '.'
a95b	84	(unknown)  '.'
a95c	d8	(unknown)  '.'
a95d	d5	(unknown)  '.'
a95e	04	(unknown)  '.'
a95f	08	(unknown)  '.'
a960	05	(unknown)  '.'
a961	06	(unknown)  '.'
a962	a3	(unknown)  '.'
a963	20	(unknown)  ' '
a964	10	(unknown)  '.'
a965	40	(unknown)  '@'
a966	73	(unknown)  's'
a967	30	(unknown)  '0'
a968	50	(unknown)  'P'
a969	70	(unknown)  'p'
a96a	60	(unknown)  '`'
a96b	12	(unknown)  '.'
a96c	02	(unknown)  '.'
a96d	e8	(unknown)  '.'
a96e	e5	(unknown)  '.'
a96f	e6	(unknown)  '.'
a970	74	(unknown)  't'
a971	f8	(unknown)  '.'
a972	a8	(unknown)  '.'
a973	78	(unknown)  'x'
a974	f5	(unknown)  '.'
a975	88	(unknown)  '.'
a976	85	(unknown)  '.'
a977	86	(unknown)  '.'
a978	75	(unknown)  'u'
a979	f6	(unknown)  '.'
a97a	a6	(unknown)  '.'
a97b	76	(unknown)  'v'
a97c	90	(unknown)  '.'
a97d	a2	(unknown)  '.'
a97e	92	(unknown)  '.'
a97f	93	(unknown)  '.'
a980	83	(unknown)  '.'
a981	e2	(unknown)  '.'
a982	e0	(unknown)  '.'
a983	f2	(unknown)  '.'
a984	f0	(unknown)  '.'
a985	a4	(unknown)  '.'
a986	00	(unknown)  '.'
a987	48	(unknown)  'H'
a988	45	(unknown)  'E'
a989	46	(unknown)  'F'
a98a	44	(unknown)  'D'
a98b	42	(unknown)  'B'
a98c	43	(unknown)  'C'
a98d	72	(unknown)  'r'
a98e	a0	(unknown)  '.'
a98f	d0	(unknown)  '.'
a990	c0	(unknown)  '.'
a991	22	(unknown)  '"'
a992	32	(unknown)  '2'
a993	23	(unknown)  '#'
a994	33	(unknown)  '3'
a995	03	(unknown)  '.'
a996	13	(unknown)  '.'
a997	d3	(unknown)  '.'
a998	d2	(unknown)  '.'
a999	80	(unknown)  '.'
a99a	98	(unknown)  '.'
a99b	95	(unknown)  '.'
a99c	96	(unknown)  '.'
a99d	94	(unknown)  '.'
a99e	c4	(unknown)  '.'
a99f	c8	(unknown)  '.'
a9a0	c5	(unknown)  '.'
a9a1	c6	(unknown)  '.'
a9a2	d6	(unknown)  '.'
a9a3	68	(unknown)  'h'
a9a4	65	(unknown)  'e'
a9a5	66	(unknown)  'f'
a9a6	64	(unknown)  'd'
a9a7	62	(unknown)  'b'
a9a8	63	(unknown)  'c'
a9a9	00	(unknown)  '.'
a9aa	04      			inc A
a9ab	83      			movc A, @A+PC
a9ac	22      			ret
a9ad	00	(unknown)  '.'
a9ae	01	(unknown)  '.'
a9af	05	(unknown)  '.'
a9b0	09	(unknown)  '.'
a9b1	0a	(unknown)  '.'
a9b2	12	(unknown)  '.'
a9b3	16	(unknown)  '.'
a9b4	19	(unknown)  '.'
a9b5	1c	(unknown)  '.'
a9b6	1d	(unknown)  '.'
a9b7	21	(unknown)  '!'
a9b8	22	(unknown)  '"'
a9b9	24	(unknown)  '$'
a9ba	29	(unknown)  ')'
a9bb	2a	(unknown)  '*'
a9bc	2b	(unknown)  '+'
a9bd	2c	(unknown)  ','
a9be	2d	(unknown)  '-'
a9bf	2e	(unknown)  '.'
a9c0	2f	(unknown)  '/'
a9c1	30	(unknown)  '0'
a9c2	31	(unknown)  '1'
a9c3	32	(unknown)  '2'
a9c4	33	(unknown)  '3'
a9c5	45	(unknown)  'E'
a9c6	47	(unknown)  'G'
a9c7	4b	(unknown)  'K'
a9c8	4c	(unknown)  'L'
a9c9	4d	(unknown)  'M'
a9ca	55	(unknown)  'U'
a9cb	56	(unknown)  'V'
a9cc	57	(unknown)  'W'
a9cd	58	(unknown)  'X'
a9ce	59	(unknown)  'Y'
a9cf	5a	(unknown)  'Z'
a9d0	5b	(unknown)  '['
a9d1	5c	(unknown)  '\'
a9d2	5d	(unknown)  ']'
a9d3	5f	(unknown)  '_'
a9d4	60	(unknown)  '`'
a9d5	64	(unknown)  'd'
a9d6	65	(unknown)  'e'
a9d7	68	(unknown)  'h'
a9d8	69	(unknown)  'i'
a9d9	6f	(unknown)  'o'
a9da	04	(unknown)  '.'
a9db	83	(unknown)  '.'
a9dc	22	(unknown)  '"'
a9dd	e0	(unknown)  '.'
a9de	f0	(unknown)  '.'
a9df	d0	(unknown)  '.'
a9e0	81	(unknown)  '.'
a9e1	82	(unknown)  '.'
a9e2	83	(unknown)  '.'
a9e3	80	(unknown)  '.'
a9e4	90	(unknown)  '.'
a9e5	a0	(unknown)  '.'
a9e6	b0	(unknown)  '.'
a9e7	b8	(unknown)  '.'
a9e8	a8	(unknown)  '.'
a9e9	89	(unknown)  '.'
a9ea	88	(unknown)  '.'
a9eb	8c	(unknown)  '.'
a9ec	8a	(unknown)  '.'
a9ed	8d	(unknown)  '.'
a9ee	8b	(unknown)  '.'
a9ef	98	(unknown)  '.'
a9f0	99	(unknown)  '.'
a9f1	87	(unknown)  '.'
a9f2	04	(unknown)  '.'
a9f3	83	(unknown)  '.'
a9f4	22	(unknown)  '"'
a9f5	90	(unknown)  '.'
a9f6	91	(unknown)  '.'
a9f7	92	(unknown)  '.'
a9f8	93	(unknown)  '.'
a9f9	94	(unknown)  '.'
a9fa	95	(unknown)  '.'
a9fb	96	(unknown)  '.'
a9fc	97	(unknown)  '.'
a9fd	b0	(unknown)  '.'
a9fe	b1	(unknown)  '.'
a9ff	b2	(unknown)  '.'
aa00	b3	(unknown)  '.'
aa01	b4	(unknown)  '.'
aa02	b5	(unknown)  '.'
aa03	b6	(unknown)  '.'
aa04	b7	(unknown)  '.'
aa05	d0	(unknown)  '.'
aa06	d1	(unknown)  '.'
aa07	d2	(unknown)  '.'
aa08	d3	(unknown)  '.'
aa09	d4	(unknown)  '.'
aa0a	d5	(unknown)  '.'
aa0b	d6	(unknown)  '.'
aa0c	d7	(unknown)  '.'
aa0d	b8	(unknown)  '.'
aa0e	b9	(unknown)  '.'
aa0f	ba	(unknown)  '.'
aa10	bb	(unknown)  '.'
aa11	bc	(unknown)  '.'
aa12	a8	(unknown)  '.'
aa13	a9	(unknown)  '.'
aa14	aa	(unknown)  '.'
aa15	ab	(unknown)  '.'
aa16	ac	(unknown)  '.'
aa17	af	(unknown)  '.'
aa18	88	(unknown)  '.'
aa19	89	(unknown)  '.'
aa1a	8a	(unknown)  '.'
aa1b	8b	(unknown)  '.'
aa1c	8c	(unknown)  '.'
aa1d	8d	(unknown)  '.'
aa1e	8e	(unknown)  '.'
aa1f	8f	(unknown)  '.'
aa20	98	(unknown)  '.'
aa21	99	(unknown)  '.'
aa22	9a	(unknown)  '.'
aa23	9b	(unknown)  '.'
aa24	9c	(unknown)  '.'
aa25	9d	(unknown)  '.'
aa26	9e	(unknown)  '.'
aa27	9f	(unknown)  '.'
aa28	73      			jmp @A+DPTR
aa29	61 81   			ajmp $ 0381h (ab81)
aa2b	61	(unknown)  'a'
aa2c	0a	(unknown)  '.'
aa2d	61	(unknown)  'a'
aa2e	23	(unknown)  '#'
aa2f	61	(unknown)  'a'
aa30	0a	(unknown)  '.'
aa31	61	(unknown)  'a'
aa32	48	(unknown)  'H'
aa33	61	(unknown)  'a'
aa34	0a	(unknown)  '.'
aa35	61	(unknown)  'a'
aa36	23	(unknown)  '#'
aa37	61	(unknown)  'a'
aa38	0a	(unknown)  '.'
aa39	61	(unknown)  'a'
aa3a	48	(unknown)  'H'
aa3b	61	(unknown)  'a'
aa3c	81	(unknown)  '.'
aa3d	61	(unknown)  'a'
aa3e	0a	(unknown)  '.'
aa3f	61	(unknown)  'a'
aa40	23	(unknown)  '#'
aa41	61	(unknown)  'a'
aa42	0a	(unknown)  '.'
aa43	61	(unknown)  'a'
aa44	48	(unknown)  'H'
aa45	61	(unknown)  'a'
aa46	23	(unknown)  '#'
aa47	61	(unknown)  'a'
aa48	40	(unknown)  '@'
aa49	61	(unknown)  'a'
aa4a	53	(unknown)  'S'
aa4b	61	(unknown)  'a'
aa4c	53	(unknown)  'S'
aa4d	61	(unknown)  'a'
aa4e	44	(unknown)  'D'
aa4f	61	(unknown)  'a'
aa50	4f	(unknown)  'O'
aa51	61	(unknown)  'a'
aa52	19	(unknown)  '.'
aa53	61	(unknown)  'a'
aa54	19	(unknown)  '.'
aa55	61	(unknown)  'a'
aa56	09	(unknown)  '.'
aa57	61	(unknown)  'a'
aa58	09	(unknown)  '.'
aa59	61	(unknown)  'a'
aa5a	53	(unknown)  'S'
aa5b	61	(unknown)  'a'
aa5c	09	(unknown)  '.'
aa5d	61	(unknown)  'a'
aa5e	09	(unknown)  '.'
aa5f	61	(unknown)  'a'
aa60	53	(unknown)  'S'
aa61	61	(unknown)  'a'
aa62	09	(unknown)  '.'
aa63	61	(unknown)  'a'
aa64	09	(unknown)  '.'
aa65	61	(unknown)  'a'
aa66	0a	(unknown)  '.'
aa67	61	(unknown)  'a'
aa68	23	(unknown)  '#'
aa69	61	(unknown)  'a'
aa6a	0a	(unknown)  '.'
aa6b	61	(unknown)  'a'
aa6c	09	(unknown)  '.'
aa6d	61	(unknown)  'a'
aa6e	1f	(unknown)  '.'
aa6f	61	(unknown)  'a'
aa70	44	(unknown)  'D'
aa71	61	(unknown)  'a'
aa72	09	(unknown)  '.'
aa73	61	(unknown)  'a'
aa74	0a	(unknown)  '.'
aa75	61	(unknown)  'a'
aa76	23	(unknown)  '#'
aa77	61	(unknown)  'a'
aa78	0a	(unknown)  '.'
aa79	61	(unknown)  'a'
aa7a	09	(unknown)  '.'
aa7b	61	(unknown)  'a'
aa7c	64	(unknown)  'd'
aa7d	61	(unknown)  'a'
aa7e	64	(unknown)  'd'
aa7f	61	(unknown)  'a'
aa80	68	(unknown)  'h'
aa81	61	(unknown)  'a'
aa82	09	(unknown)  '.'
aa83	61	(unknown)  'a'
aa84	64	(unknown)  'd'
aa85	61	(unknown)  'a'
aa86	68	(unknown)  'h'
aa87	61	(unknown)  'a'
aa88	68	(unknown)  'h'
aa89	61	(unknown)  'a'
aa8a	68	(unknown)  'h'
aa8b	61	(unknown)  'a'
aa8c	aa	(unknown)  '.'
aa8d	61	(unknown)  'a'
aa8e	98	(unknown)  '.'
aa8f	61	(unknown)  'a'
aa90	0a	(unknown)  '.'
aa91	61	(unknown)  'a'
aa92	23	(unknown)  '#'
aa93	61	(unknown)  'a'
aa94	0a	(unknown)  '.'
aa95	61	(unknown)  'a'
aa96	48	(unknown)  'H'
aa97	61	(unknown)  'a'
aa98	0a	(unknown)  '.'
aa99	61	(unknown)  'a'
aa9a	11	(unknown)  '.'
aa9b	61	(unknown)  'a'
aa9c	15	(unknown)  '.'
aa9d	61	(unknown)  'a'
aa9e	23	(unknown)  '#'
aa9f	61	(unknown)  'a'
aaa0	34	(unknown)  '4'
aaa1	61	(unknown)  'a'
aaa2	39	(unknown)  '9'
aaa3	61	(unknown)  'a'
aaa4	34	(unknown)  '4'
aaa5	61	(unknown)  'a'
aaa6	40	(unknown)  '@'
aaa7	61	(unknown)  'a'
aaa8	0a	(unknown)  '.'
aaa9	61	(unknown)  'a'
aaaa	23	(unknown)  '#'
aaab	61	(unknown)  'a'
aaac	48	(unknown)  'H'
aaad	61	(unknown)  'a'
aaae	bf	(unknown)  '.'
aaaf	61	(unknown)  'a'
aab0	53	(unknown)  'S'
aab1	61	(unknown)  'a'
aab2	53	(unknown)  'S'
aab3	61	(unknown)  'a'
aab4	09	(unknown)  '.'
aab5	61	(unknown)  'a'
aab6	09	(unknown)  '.'
aab7	61	(unknown)  'a'
aab8	0a	(unknown)  '.'
aab9	61	(unknown)  'a'
aaba	09	(unknown)  '.'
aabb	61	(unknown)  'a'
aabc	0a	(unknown)  '.'
aabd	61	(unknown)  'a'
aabe	09	(unknown)  '.'
aabf	61	(unknown)  'a'
aac0	09	(unknown)  '.'
aac1	61	(unknown)  'a'
aac2	09	(unknown)  '.'
aac3	61	(unknown)  'a'
aac4	0a	(unknown)  '.'
aac5	61	(unknown)  'a'
aac6	23	(unknown)  '#'
aac7	61	(unknown)  'a'
aac8	0a	(unknown)  '.'
aac9	61	(unknown)  'a'
aaca	48	(unknown)  'H'
aacb	61	(unknown)  'a'
aacc	23	(unknown)  '#'
aacd	61	(unknown)  'a'
aace	40	(unknown)  '@'
aacf	61	(unknown)  'a'
aad0	53	(unknown)  'S'
aad1	61	(unknown)  'a'
aad2	53	(unknown)  'S'
aad3	61	(unknown)  'a'
aad4	23	(unknown)  '#'
aad5	61	(unknown)  'a'
aad6	23	(unknown)  '#'
aad7	61	(unknown)  'a'
aad8	09	(unknown)  '.'
aad9	61	(unknown)  'a'
aada	09	(unknown)  '.'
aadb	61	(unknown)  'a'
aadc	09	(unknown)  '.'
aadd	61	(unknown)  'a'
aade	09	(unknown)  '.'
aadf	61	(unknown)  'a'
aae0	09	(unknown)  '.'
aae1	61	(unknown)  'a'
aae2	09	(unknown)  '.'
aae3	61	(unknown)  'a'
aae4	09	(unknown)  '.'
aae5	61	(unknown)  'a'
aae6	53	(unknown)  'S'
aae7	61	(unknown)  'a'
aae8	68	(unknown)  'h'
aae9	61	(unknown)  'a'
aaea	0a	(unknown)  '.'
aaeb	61	(unknown)  'a'
aaec	23	(unknown)  '#'
aaed	61	(unknown)  'a'
aaee	0a	(unknown)  '.'
aaef	61	(unknown)  'a'
aaf0	48	(unknown)  'H'
aaf1	61	(unknown)  'a'
aaf2	09	(unknown)  '.'
aaf3	61	(unknown)  'a'
aaf4	0a	(unknown)  '.'
aaf5	61	(unknown)  'a'
aaf6	23	(unknown)  '#'
aaf7	61	(unknown)  'a'
aaf8	0a	(unknown)  '.'
aaf9	61	(unknown)  'a'
aafa	0a	(unknown)  '.'
aafb	61	(unknown)  'a'
aafc	0a	(unknown)  '.'
aafd	61	(unknown)  'a'
aafe	23	(unknown)  '#'
aaff	61	(unknown)  'a'
ab00	0a	(unknown)  '.'
ab01	61	(unknown)  'a'
ab02	48	(unknown)  'H'
ab03	61	(unknown)  'a'
ab04	23	(unknown)  '#'
ab05	61	(unknown)  'a'
ab06	40	(unknown)  '@'
ab07	61	(unknown)  'a'
ab08	7c	(unknown)  '|'
ab09	22	(unknown)  '"'
ab0a	19	(unknown)  '.'
ab0b	e7	(unknown)  '.'
ab0c	26	(unknown)  '&'
ab0d	f7	(unknown)  '.'
ab0e	08	(unknown)  '.'
ab0f	09	(unknown)  '.'
ab10	22	(unknown)  '"'
ab11	71	(unknown)  'q'
ab12	0a	(unknown)  '.'
ab13	61	(unknown)  'a'
ab14	23	(unknown)  '#'
ab15	71	(unknown)  'q'
ab16	0a	(unknown)  '.'
ab17	61	(unknown)  'a'
ab18	48	(unknown)  'H'
ab19	71	(unknown)  'q'
ab1a	0a	(unknown)  '.'
ab1b	71	(unknown)  'q'
ab1c	48	(unknown)  'H'
ab1d	61	(unknown)  'a'
ab1e	68	(unknown)  'h'
ab1f	71	(unknown)  'q'
ab20	0a	(unknown)  '.'
ab21	61	(unknown)  'a'
ab22	68	(unknown)  'h'
ab23	05	(unknown)  '.'
ab24	3e	(unknown)  '>'
ab25	e6	(unknown)  '.'
ab26	08	(unknown)  '.'
ab27	b4	(unknown)  '.'
ab28	15	(unknown)  '.'
ab29	05	(unknown)  '.'
ab2a	e6	(unknown)  '.'
ab2b	08	(unknown)  '.'
ab2c	f7	(unknown)  '.'
ab2d	09	(unknown)  '.'
ab2e	22	(unknown)  '"'
ab2f	31	(unknown)  '1'
ab30	da	(unknown)  '.'
ab31	f7	(unknown)  '.'
ab32	09	(unknown)  '.'
ab33	22	(unknown)  '"'
ab34	71	(unknown)  'q'
ab35	23	(unknown)  '#'
ab36	19	(unknown)  '.'
ab37	61	(unknown)  'a'
ab38	0a	(unknown)  '.'
ab39	09	(unknown)  '.'
ab3a	71	(unknown)  'q'
ab3b	23	(unknown)  '#'
ab3c	19	(unknown)  '.'
ab3d	19	(unknown)  '.'
ab3e	61	(unknown)  'a'
ab3f	23	(unknown)  '#'
ab40	71	(unknown)  'q'
ab41	23	(unknown)  '#'
ab42	61	(unknown)  'a'
ab43	48	(unknown)  'H'
ab44	71	(unknown)  'q'
ab45	23	(unknown)  '#'
ab46	61	(unknown)  'a'
ab47	68	(unknown)  'h'
ab48	05	(unknown)  '.'
ab49	3e	(unknown)  '>'
ab4a	e6	(unknown)  '.'
ab4b	08	(unknown)  '.'
ab4c	f7	(unknown)  '.'
ab4d	09	(unknown)  '.'
ab4e	22	(unknown)  '"'
ab4f	71	(unknown)  'q'
ab50	48	(unknown)  'H'
ab51	61	(unknown)  'a'
ab52	68	(unknown)  'h'
ab53	05	(unknown)  '.'
ab54	3e	(unknown)  '>'
ab55	e6	(unknown)  '.'
ab56	08	(unknown)  '.'
ab57	b4	(unknown)  '.'
ab58	33	(unknown)  '3'
ab59	05	(unknown)  '.'
ab5a	e6	(unknown)  '.'
ab5b	08	(unknown)  '.'
ab5c	f7	(unknown)  '.'
ab5d	09	(unknown)  '.'
ab5e	22	(unknown)  '"'
ab5f	31	(unknown)  '1'
ab60	f2	(unknown)  '.'
ab61	f7	(unknown)  '.'
ab62	09	(unknown)  '.'
ab63	22	(unknown)  '"'
ab64	71	(unknown)  'q'
ab65	53	(unknown)  'S'
ab66	61	(unknown)  'a'
ab67	68	(unknown)  'h'
ab68	05	(unknown)  '.'
ab69	3e	(unknown)  '>'
ab6a	e6	(unknown)  '.'
ab6b	08	(unknown)  '.'
ab6c	23	(unknown)  '#'
ab6d	f5	(unknown)  '.'
ab6e	82	(unknown)  '.'
ab6f	75	(unknown)  'u'
ab70	83	(unknown)  '.'
ab71	77	(unknown)  'w'
ab72	a3	(unknown)  '.'
ab73	e0	(unknown)  '.'
ab74	c3	(unknown)  '.'
ab75	95	(unknown)  '.'
ab76	3e	(unknown)  '>'
ab77	c3	(unknown)  '.'
ab78	9d	(unknown)  '.'
ab79	f7	(unknown)  '.'
ab7a	09	(unknown)  '.'
ab7b	22	(unknown)  '"'
ab7c	15	(unknown)  '.'
ab7d	3e	(unknown)  '>'
ab7e	19	(unknown)  '.'
ab7f	61	(unknown)  'a'
ab80	48	(unknown)  'H'
ab81	e6      			mov A, @R0
ab82	23      			rl A
ab83	f5 82   			mov DPL, A
ab85	75 83 77			mov DPH, # 77h
ab88	e0      			movx A, @DPTR
ab89	54 07   			anl A, # 07h
ab8b	03      			rr A
ab8c	03      			rr A
ab8d	03      			rr A
ab8e	19      			dec R1
ab8f	27      			add A, @R1
ab90	f7      			mov @R1, A
ab91	a3      			inc DPTR
ab92	09      			inc R1
ab93	e0      			movx A, @DPTR
ab94	f7      			mov @R1, A
ab95	05 3e   			inc $ 3e
ab97	22      			ret
ab98	e6	(unknown)  '.'
ab99	23	(unknown)  '#'
ab9a	f5	(unknown)  '.'
ab9b	82	(unknown)  '.'
ab9c	75	(unknown)  'u'
ab9d	83	(unknown)  '.'
ab9e	77	(unknown)  'w'
ab9f	e0	(unknown)  '.'
aba0	f7	(unknown)  '.'
aba1	a3	(unknown)  '.'
aba2	09	(unknown)  '.'
aba3	05	(unknown)  '.'
aba4	3e	(unknown)  '>'
aba5	e0	(unknown)  '.'
aba6	f7	(unknown)  '.'
aba7	05	(unknown)  '.'
aba8	3e	(unknown)  '>'
aba9	22	(unknown)  '"'
abaa	e6	(unknown)  '.'
abab	08	(unknown)  '.'
abac	b4	(unknown)  '.'
abad	16	(unknown)  '.'
abae	00	(unknown)  '.'
abaf	40	(unknown)  '@'
abb0	04	(unknown)  '.'
abb1	94	(unknown)  '.'
abb2	16	(unknown)  '.'
abb3	80	(unknown)  '.'
abb4	e4	(unknown)  '.'
abb5	77	(unknown)  'w'
abb6	81	(unknown)  '.'
abb7	09	(unknown)  '.'
abb8	23	(unknown)  '#'
abb9	f7	(unknown)  '.'
abba	05	(unknown)  '.'
abbb	3e	(unknown)  '>'
abbc	05	(unknown)  '.'
abbd	3e	(unknown)  '>'
abbe	22	(unknown)  '"'
abbf	e6	(unknown)  '.'
abc0	60	(unknown)  '`'
abc1	03	(unknown)  '.'
abc2	14	(unknown)  '.'
abc3	61	(unknown)  'a'
abc4	99	(unknown)  '.'
abc5	08	(unknown)  '.'
abc6	71	(unknown)  'q'
abc7	48	(unknown)  'H'
abc8	61	(unknown)  'a'
abc9	48	(unknown)  'H'
abca	91 0a   			acall $ 040ah (ac0a)
abcc	90 00 0b			mov DPTR, # 000b (11)
abcf	74 02   			mov A, # 02h
abd1	f0      			movx @DPTR, A
abd2	a3      			inc DPTR
abd3	74 01   			mov A, # 01h
abd5	f0      			movx @DPTR, A
abd6	a3      			inc DPTR
abd7	74 0b   			mov A, # 0bh
abd9	f0      			movx @DPTR, A
abda	12 88 07			lcall $ 8807h
abdd	75 81 07			mov SP, # 07h
abe0	e4      			clr A
abe1	f5 d0   			mov PSW, A
abe3	02 01 00			ljmp $ 0100h
abe6	91 0a   			acall $ 040ah (ac0a)
abe8	90 00 0b			mov DPTR, # 000b (11)
abeb	74 02   			mov A, # 02h
abed	f0      			movx @DPTR, A
abee	a3      			inc DPTR
abef	74 01   			mov A, # 01h
abf1	f0      			movx @DPTR, A
abf2	a3      			inc DPTR
abf3	74 0b   			mov A, # 0bh
abf5	f0      			movx @DPTR, A
abf6	12 88 07			lcall $ 8807h
abf9	75 81 07			mov SP, # 07h
abfc	e4      			clr A
abfd	f5 d0   			mov PSW, A
abff	c2 88   			clr 0x88
ac01	d2 a8   			setb 0xa8
ac03	d2 af   			setb EA
ac05	c2 b2   			clr 0xb2
ac07	02 01 00			ljmp $ 0100h
ac0a	12 81 0c			lcall $ 810ch
ac0d	7a 80   			mov R2, # 80h
ac0f	90 77 00			mov DPTR, # 7700 (30464)
ac12	e4      			clr A
ac13	f0      			movx @DPTR, A
ac14	a3      			inc DPTR
ac15	da fc   			djnz R2, $ -04h (ac13)
ac17	d2 09   			setb 0x09
ac19	90 01 00			mov DPTR, # 0100 (256)
ac1c	75 3a 00			mov $ 3a, # 00h
ac1f	ad 82   			mov R5, DPL
ac21	ae 83   			mov R6, DPH
ac23	12 91 92			lcall $ 9192h
ac26	78 30   			mov R0, # 30h
ac28	79 3b   			mov R1, # 3bh
ac2a	75 3e 01			mov $ 3e, # 01h
ac2d	e6      			mov A, @R0
ac2e	08      			inc R0
ac2f	b4 2d 0a			cjne a, # 2dh, $ 0ah (ac3c)
ac32	08      			inc R0
ac33	86 83   			mov DPH, @R0
ac35	05 83   			inc DPH
ac37	08      			inc R0
ac38	86 82   			mov DPL, @R0
ac3a	80 34   			sjmp $ 34h (ac70)
ac3c	40 13   			jc $ 13h (ac51)
ac3e	94 2e   			subb A, # 2eh
ac40	23      			rl A
ac41	f5 82   			mov DPL, A
ac43	75 83 77			mov DPH, # 77h
ac46	ee      			mov A, R6
ac47	f0      			movx @DPTR, A
ac48	a3      			inc DPTR
ac49	ed      			mov A, R5
ac4a	f0      			movx @DPTR, A
ac4b	8d 82   			mov DPL, R5
ac4d	8e 83   			mov DPH, R6
ac4f	80 1f   			sjmp $ 1fh (ac70)
ac51	31 aa   			acall $ 01aah (a9aa)
ac53	26      			add A, @R0
ac54	08      			inc R0
ac55	c0 e0   			push ACC
ac57	31 37   			acall $ 0137h (a937)
ac59	f7      			mov @R1, A
ac5a	09      			inc R1
ac5b	d0 e0   			pop ACC
ac5d	23      			rl A
ac5e	90 aa 29			mov DPTR, # aa29 (43561)
ac61	51 28   			acall $ 0228h (aa28)
ac63	8d 82   			mov DPL, R5
ac65	8e 83   			mov DPH, R6
ac67	79 3b   			mov R1, # 3bh
ac69	e7      			mov A, @R1
ac6a	f0      			movx @DPTR, A
ac6b	09      			inc R1
ac6c	a3      			inc DPTR
ac6d	d5 3e f9			djnz $ 3e, $ -07h (ac69)
ac70	05 3a   			inc $ 3a
ac72	e5 3a   			mov A, $ 3a
ac74	b5 38 a8			cjne $ 38, $ -58h (ac1f)
ac77	10 09 9f			jbc 0x09, $ -61h (ac19)
ac7a	22      			ret
ac7b	ff	(unknown)  '.'
ac7c	ff	(unknown)  '.'
ac7d	ff	(unknown)  '.'
ac7e	ff	(unknown)  '.'
ac7f	ff	(unknown)  '.'
ac80	ff	(unknown)  '.'
ac81	ff	(unknown)  '.'
ac82	ff	(unknown)  '.'
ac83	ff	(unknown)  '.'
ac84	ff	(unknown)  '.'
ac85	ff	(unknown)  '.'
ac86	ff	(unknown)  '.'
ac87	ff	(unknown)  '.'
ac88	ff	(unknown)  '.'
ac89	ff	(unknown)  '.'
ac8a	ff	(unknown)  '.'
ac8b	ff	(unknown)  '.'
ac8c	ff	(unknown)  '.'
ac8d	ff	(unknown)  '.'
ac8e	ff	(unknown)  '.'
ac8f	ff	(unknown)  '.'
ac90	ff	(unknown)  '.'
ac91	ff	(unknown)  '.'
ac92	ff	(unknown)  '.'
ac93	ff	(unknown)  '.'
ac94	ff	(unknown)  '.'
ac95	ff	(unknown)  '.'
ac96	ff	(unknown)  '.'
ac97	ff	(unknown)  '.'
ac98	ff	(unknown)  '.'
ac99	ff	(unknown)  '.'
ac9a	ff	(unknown)  '.'
ac9b	ff	(unknown)  '.'
ac9c	ff	(unknown)  '.'
ac9d	ff	(unknown)  '.'
ac9e	ff	(unknown)  '.'
ac9f	ff	(unknown)  '.'
aca0	ff	(unknown)  '.'
aca1	ff	(unknown)  '.'
aca2	ff	(unknown)  '.'
aca3	ff	(unknown)  '.'
aca4	ff	(unknown)  '.'
aca5	ff	(unknown)  '.'
aca6	ff	(unknown)  '.'
aca7	ff	(unknown)  '.'
aca8	ff	(unknown)  '.'
aca9	ff	(unknown)  '.'
acaa	ff	(unknown)  '.'
acab	ff	(unknown)  '.'
acac	ff	(unknown)  '.'
acad	ff	(unknown)  '.'
acae	ff	(unknown)  '.'
acaf	ff	(unknown)  '.'
acb0	ff	(unknown)  '.'
acb1	ff	(unknown)  '.'
acb2	ff	(unknown)  '.'
acb3	ff	(unknown)  '.'
acb4	ff	(unknown)  '.'
acb5	ff	(unknown)  '.'
acb6	ff	(unknown)  '.'
acb7	ff	(unknown)  '.'
acb8	ff	(unknown)  '.'
acb9	ff	(unknown)  '.'
acba	ff	(unknown)  '.'
acbb	ff	(unknown)  '.'
acbc	ff	(unknown)  '.'
acbd	ff	(unknown)  '.'
acbe	ff	(unknown)  '.'
acbf	ff	(unknown)  '.'
acc0	ff	(unknown)  '.'
acc1	ff	(unknown)  '.'
acc2	ff	(unknown)  '.'
acc3	ff	(unknown)  '.'
acc4	ff	(unknown)  '.'
acc5	ff	(unknown)  '.'
acc6	ff	(unknown)  '.'
acc7	ff	(unknown)  '.'
acc8	ff	(unknown)  '.'
acc9	ff	(unknown)  '.'
acca	ff	(unknown)  '.'
accb	ff	(unknown)  '.'
accc	ff	(unknown)  '.'
accd	ff	(unknown)  '.'
acce	ff	(unknown)  '.'
accf	ff	(unknown)  '.'
acd0	ff	(unknown)  '.'
acd1	ff	(unknown)  '.'
acd2	ff	(unknown)  '.'
acd3	ff	(unknown)  '.'
acd4	ff	(unknown)  '.'
acd5	ff	(unknown)  '.'
acd6	ff	(unknown)  '.'
acd7	ff	(unknown)  '.'
acd8	ff	(unknown)  '.'
acd9	ff	(unknown)  '.'
acda	ff	(unknown)  '.'
acdb	ff	(unknown)  '.'
acdc	ff	(unknown)  '.'
acdd	ff	(unknown)  '.'
acde	ff	(unknown)  '.'
acdf	ff	(unknown)  '.'
ace0	ff	(unknown)  '.'
ace1	ff	(unknown)  '.'
ace2	ff	(unknown)  '.'
ace3	ff	(unknown)  '.'
ace4	ff	(unknown)  '.'
ace5	ff	(unknown)  '.'
ace6	ff	(unknown)  '.'
ace7	ff	(unknown)  '.'
ace8	ff	(unknown)  '.'
ace9	ff	(unknown)  '.'
acea	ff	(unknown)  '.'
aceb	ff	(unknown)  '.'
acec	ff	(unknown)  '.'
aced	ff	(unknown)  '.'
acee	ff	(unknown)  '.'
acef	ff	(unknown)  '.'
acf0	ff	(unknown)  '.'
acf1	ff	(unknown)  '.'
acf2	ff	(unknown)  '.'
acf3	ff	(unknown)  '.'
acf4	ff	(unknown)  '.'
acf5	ff	(unknown)  '.'
acf6	ff	(unknown)  '.'
acf7	ff	(unknown)  '.'
acf8	ff	(unknown)  '.'
acf9	ff	(unknown)  '.'
acfa	ff	(unknown)  '.'
acfb	ff	(unknown)  '.'
acfc	ff	(unknown)  '.'
acfd	ff	(unknown)  '.'
acfe	ff	(unknown)  '.'
acff	ff	(unknown)  '.'
ad00	ff	(unknown)  '.'
ad01	ff	(unknown)  '.'
ad02	ff	(unknown)  '.'
ad03	ff	(unknown)  '.'
ad04	ff	(unknown)  '.'
ad05	ff	(unknown)  '.'
ad06	ff	(unknown)  '.'
ad07	ff	(unknown)  '.'
ad08	ff	(unknown)  '.'
ad09	ff	(unknown)  '.'
ad0a	ff	(unknown)  '.'
ad0b	ff	(unknown)  '.'
ad0c	ff	(unknown)  '.'
ad0d	ff	(unknown)  '.'
ad0e	ff	(unknown)  '.'
ad0f	ff	(unknown)  '.'
ad10	ff	(unknown)  '.'
ad11	ff	(unknown)  '.'
ad12	ff	(unknown)  '.'
ad13	ff	(unknown)  '.'
ad14	ff	(unknown)  '.'
ad15	ff	(unknown)  '.'
ad16	ff	(unknown)  '.'
ad17	ff	(unknown)  '.'
ad18	ff	(unknown)  '.'
ad19	ff	(unknown)  '.'
ad1a	ff	(unknown)  '.'
ad1b	ff	(unknown)  '.'
ad1c	ff	(unknown)  '.'
ad1d	ff	(unknown)  '.'
ad1e	ff	(unknown)  '.'
ad1f	ff	(unknown)  '.'
ad20	ff	(unknown)  '.'
ad21	ff	(unknown)  '.'
ad22	ff	(unknown)  '.'
ad23	ff	(unknown)  '.'
ad24	ff	(unknown)  '.'
ad25	ff	(unknown)  '.'
ad26	ff	(unknown)  '.'
ad27	ff	(unknown)  '.'
ad28	ff	(unknown)  '.'
ad29	ff	(unknown)  '.'
ad2a	ff	(unknown)  '.'
ad2b	ff	(unknown)  '.'
ad2c	ff	(unknown)  '.'
ad2d	ff	(unknown)  '.'
ad2e	ff	(unknown)  '.'
ad2f	ff	(unknown)  '.'
ad30	ff	(unknown)  '.'
ad31	ff	(unknown)  '.'
ad32	ff	(unknown)  '.'
ad33	ff	(unknown)  '.'
ad34	ff	(unknown)  '.'
ad35	ff	(unknown)  '.'
ad36	ff	(unknown)  '.'
ad37	ff	(unknown)  '.'
ad38	ff	(unknown)  '.'
ad39	ff	(unknown)  '.'
ad3a	ff	(unknown)  '.'
ad3b	ff	(unknown)  '.'
ad3c	ff	(unknown)  '.'
ad3d	ff	(unknown)  '.'
ad3e	ff	(unknown)  '.'
ad3f	ff	(unknown)  '.'
ad40	ff	(unknown)  '.'
ad41	ff	(unknown)  '.'
ad42	ff	(unknown)  '.'
ad43	ff	(unknown)  '.'
ad44	ff	(unknown)  '.'
ad45	ff	(unknown)  '.'
ad46	ff	(unknown)  '.'
ad47	ff	(unknown)  '.'
ad48	ff	(unknown)  '.'
ad49	ff	(unknown)  '.'
ad4a	ff	(unknown)  '.'
ad4b	ff	(unknown)  '.'
ad4c	ff	(unknown)  '.'
ad4d	ff	(unknown)  '.'
ad4e	ff	(unknown)  '.'
ad4f	ff	(unknown)  '.'
ad50	ff	(unknown)  '.'
ad51	ff	(unknown)  '.'
ad52	ff	(unknown)  '.'
ad53	ff	(unknown)  '.'
ad54	ff	(unknown)  '.'
ad55	ff	(unknown)  '.'
ad56	ff	(unknown)  '.'
ad57	ff	(unknown)  '.'
ad58	ff	(unknown)  '.'
ad59	ff	(unknown)  '.'
ad5a	ff	(unknown)  '.'
ad5b	ff	(unknown)  '.'
ad5c	ff	(unknown)  '.'
ad5d	ff	(unknown)  '.'
ad5e	ff	(unknown)  '.'
ad5f	ff	(unknown)  '.'
ad60	ff	(unknown)  '.'
ad61	ff	(unknown)  '.'
ad62	ff	(unknown)  '.'
ad63	ff	(unknown)  '.'
ad64	ff	(unknown)  '.'
ad65	ff	(unknown)  '.'
ad66	ff	(unknown)  '.'
ad67	ff	(unknown)  '.'
ad68	ff	(unknown)  '.'
ad69	ff	(unknown)  '.'
ad6a	ff	(unknown)  '.'
ad6b	ff	(unknown)  '.'
ad6c	ff	(unknown)  '.'
ad6d	ff	(unknown)  '.'
ad6e	ff	(unknown)  '.'
ad6f	ff	(unknown)  '.'
ad70	ff	(unknown)  '.'
ad71	ff	(unknown)  '.'
ad72	ff	(unknown)  '.'
ad73	ff	(unknown)  '.'
ad74	ff	(unknown)  '.'
ad75	ff	(unknown)  '.'
ad76	ff	(unknown)  '.'
ad77	ff	(unknown)  '.'
ad78	ff	(unknown)  '.'
ad79	ff	(unknown)  '.'
ad7a	ff	(unknown)  '.'
ad7b	ff	(unknown)  '.'
ad7c	ff	(unknown)  '.'
ad7d	ff	(unknown)  '.'
ad7e	ff	(unknown)  '.'
ad7f	ff	(unknown)  '.'
ad80	ff	(unknown)  '.'
ad81	ff	(unknown)  '.'
ad82	ff	(unknown)  '.'
ad83	ff	(unknown)  '.'
ad84	ff	(unknown)  '.'
ad85	ff	(unknown)  '.'
ad86	ff	(unknown)  '.'
ad87	ff	(unknown)  '.'
ad88	ff	(unknown)  '.'
ad89	ff	(unknown)  '.'
ad8a	ff	(unknown)  '.'
ad8b	ff	(unknown)  '.'
ad8c	ff	(unknown)  '.'
ad8d	ff	(unknown)  '.'
ad8e	ff	(unknown)  '.'
ad8f	ff	(unknown)  '.'
ad90	ff	(unknown)  '.'
ad91	ff	(unknown)  '.'
ad92	ff	(unknown)  '.'
ad93	ff	(unknown)  '.'
ad94	ff	(unknown)  '.'
ad95	ff	(unknown)  '.'
ad96	ff	(unknown)  '.'
ad97	ff	(unknown)  '.'
ad98	ff	(unknown)  '.'
ad99	ff	(unknown)  '.'
ad9a	ff	(unknown)  '.'
ad9b	ff	(unknown)  '.'
ad9c	ff	(unknown)  '.'
ad9d	ff	(unknown)  '.'
ad9e	ff	(unknown)  '.'
ad9f	ff	(unknown)  '.'
ada0	ff	(unknown)  '.'
ada1	ff	(unknown)  '.'
ada2	ff	(unknown)  '.'
ada3	ff	(unknown)  '.'
ada4	ff	(unknown)  '.'
ada5	ff	(unknown)  '.'
ada6	ff	(unknown)  '.'
ada7	ff	(unknown)  '.'
ada8	ff	(unknown)  '.'
ada9	ff	(unknown)  '.'
adaa	ff	(unknown)  '.'
adab	ff	(unknown)  '.'
adac	ff	(unknown)  '.'
adad	ff	(unknown)  '.'
adae	ff	(unknown)  '.'
adaf	ff	(unknown)  '.'
adb0	ff	(unknown)  '.'
adb1	ff	(unknown)  '.'
adb2	ff	(unknown)  '.'
adb3	ff	(unknown)  '.'
adb4	ff	(unknown)  '.'
adb5	ff	(unknown)  '.'
adb6	ff	(unknown)  '.'
adb7	ff	(unknown)  '.'
adb8	ff	(unknown)  '.'
adb9	ff	(unknown)  '.'
adba	ff	(unknown)  '.'
adbb	ff	(unknown)  '.'
adbc	ff	(unknown)  '.'
adbd	ff	(unknown)  '.'
adbe	ff	(unknown)  '.'
adbf	ff	(unknown)  '.'
adc0	ff	(unknown)  '.'
adc1	ff	(unknown)  '.'
adc2	ff	(unknown)  '.'
adc3	ff	(unknown)  '.'
adc4	ff	(unknown)  '.'
adc5	ff	(unknown)  '.'
adc6	ff	(unknown)  '.'
adc7	ff	(unknown)  '.'
adc8	ff	(unknown)  '.'
adc9	ff	(unknown)  '.'
adca	ff	(unknown)  '.'
adcb	ff	(unknown)  '.'
adcc	ff	(unknown)  '.'
adcd	ff	(unknown)  '.'
adce	ff	(unknown)  '.'
adcf	ff	(unknown)  '.'
add0	ff	(unknown)  '.'
add1	ff	(unknown)  '.'
add2	ff	(unknown)  '.'
add3	ff	(unknown)  '.'
add4	ff	(unknown)  '.'
add5	ff	(unknown)  '.'
add6	ff	(unknown)  '.'
add7	ff	(unknown)  '.'
add8	ff	(unknown)  '.'
add9	ff	(unknown)  '.'
adda	ff	(unknown)  '.'
addb	ff	(unknown)  '.'
addc	ff	(unknown)  '.'
addd	ff	(unknown)  '.'
adde	ff	(unknown)  '.'
addf	ff	(unknown)  '.'
ade0	ff	(unknown)  '.'
ade1	ff	(unknown)  '.'
ade2	ff	(unknown)  '.'
ade3	ff	(unknown)  '.'
ade4	ff	(unknown)  '.'
ade5	ff	(unknown)  '.'
ade6	ff	(unknown)  '.'
ade7	ff	(unknown)  '.'
ade8	ff	(unknown)  '.'
ade9	ff	(unknown)  '.'
adea	ff	(unknown)  '.'
adeb	ff	(unknown)  '.'
adec	ff	(unknown)  '.'
aded	ff	(unknown)  '.'
adee	ff	(unknown)  '.'
adef	ff	(unknown)  '.'
adf0	ff	(unknown)  '.'
adf1	ff	(unknown)  '.'
adf2	ff	(unknown)  '.'
adf3	ff	(unknown)  '.'
adf4	ff	(unknown)  '.'
adf5	ff	(unknown)  '.'
adf6	ff	(unknown)  '.'
adf7	ff	(unknown)  '.'
adf8	ff	(unknown)  '.'
adf9	ff	(unknown)  '.'
adfa	ff	(unknown)  '.'
adfb	ff	(unknown)  '.'
adfc	ff	(unknown)  '.'
adfd	ff	(unknown)  '.'
adfe	ff	(unknown)  '.'
adff	ff	(unknown)  '.'
ae00	ff	(unknown)  '.'
ae01	ff	(unknown)  '.'
ae02	ff	(unknown)  '.'
ae03	ff	(unknown)  '.'
ae04	ff	(unknown)  '.'
ae05	ff	(unknown)  '.'
ae06	ff	(unknown)  '.'
ae07	ff	(unknown)  '.'
ae08	ff	(unknown)  '.'
ae09	ff	(unknown)  '.'
ae0a	ff	(unknown)  '.'
ae0b	ff	(unknown)  '.'
ae0c	ff	(unknown)  '.'
ae0d	ff	(unknown)  '.'
ae0e	ff	(unknown)  '.'
ae0f	ff	(unknown)  '.'
ae10	ff	(unknown)  '.'
ae11	ff	(unknown)  '.'
ae12	ff	(unknown)  '.'
ae13	ff	(unknown)  '.'
ae14	ff	(unknown)  '.'
ae15	ff	(unknown)  '.'
ae16	ff	(unknown)  '.'
ae17	ff	(unknown)  '.'
ae18	ff	(unknown)  '.'
ae19	ff	(unknown)  '.'
ae1a	ff	(unknown)  '.'
ae1b	ff	(unknown)  '.'
ae1c	ff	(unknown)  '.'
ae1d	ff	(unknown)  '.'
ae1e	ff	(unknown)  '.'
ae1f	ff	(unknown)  '.'
ae20	ff	(unknown)  '.'
ae21	ff	(unknown)  '.'
ae22	ff	(unknown)  '.'
ae23	ff	(unknown)  '.'
ae24	ff	(unknown)  '.'
ae25	ff	(unknown)  '.'
ae26	ff	(unknown)  '.'
ae27	ff	(unknown)  '.'
ae28	ff	(unknown)  '.'
ae29	ff	(unknown)  '.'
ae2a	ff	(unknown)  '.'
ae2b	ff	(unknown)  '.'
ae2c	ff	(unknown)  '.'
ae2d	ff	(unknown)  '.'
ae2e	ff	(unknown)  '.'
ae2f	ff	(unknown)  '.'
ae30	ff	(unknown)  '.'
ae31	ff	(unknown)  '.'
ae32	ff	(unknown)  '.'
ae33	ff	(unknown)  '.'
ae34	ff	(unknown)  '.'
ae35	ff	(unknown)  '.'
ae36	ff	(unknown)  '.'
ae37	ff	(unknown)  '.'
ae38	ff	(unknown)  '.'
ae39	ff	(unknown)  '.'
ae3a	ff	(unknown)  '.'
ae3b	ff	(unknown)  '.'
ae3c	ff	(unknown)  '.'
ae3d	ff	(unknown)  '.'
ae3e	ff	(unknown)  '.'
ae3f	ff	(unknown)  '.'
ae40	ff	(unknown)  '.'
ae41	ff	(unknown)  '.'
ae42	ff	(unknown)  '.'
ae43	ff	(unknown)  '.'
ae44	ff	(unknown)  '.'
ae45	ff	(unknown)  '.'
ae46	ff	(unknown)  '.'
ae47	ff	(unknown)  '.'
ae48	ff	(unknown)  '.'
ae49	ff	(unknown)  '.'
ae4a	ff	(unknown)  '.'
ae4b	ff	(unknown)  '.'
ae4c	ff	(unknown)  '.'
ae4d	ff	(unknown)  '.'
ae4e	ff	(unknown)  '.'
ae4f	ff	(unknown)  '.'
ae50	ff	(unknown)  '.'
ae51	ff	(unknown)  '.'
ae52	ff	(unknown)  '.'
ae53	ff	(unknown)  '.'
ae54	ff	(unknown)  '.'
ae55	ff	(unknown)  '.'
ae56	ff	(unknown)  '.'
ae57	ff	(unknown)  '.'
ae58	ff	(unknown)  '.'
ae59	ff	(unknown)  '.'
ae5a	ff	(unknown)  '.'
ae5b	ff	(unknown)  '.'
ae5c	ff	(unknown)  '.'
ae5d	ff	(unknown)  '.'
ae5e	ff	(unknown)  '.'
ae5f	ff	(unknown)  '.'
ae60	ff	(unknown)  '.'
ae61	ff	(unknown)  '.'
ae62	ff	(unknown)  '.'
ae63	ff	(unknown)  '.'
ae64	ff	(unknown)  '.'
ae65	ff	(unknown)  '.'
ae66	ff	(unknown)  '.'
ae67	ff	(unknown)  '.'
ae68	ff	(unknown)  '.'
ae69	ff	(unknown)  '.'
ae6a	ff	(unknown)  '.'
ae6b	ff	(unknown)  '.'
ae6c	ff	(unknown)  '.'
ae6d	ff	(unknown)  '.'
ae6e	ff	(unknown)  '.'
ae6f	ff	(unknown)  '.'
ae70	ff	(unknown)  '.'
ae71	ff	(unknown)  '.'
ae72	ff	(unknown)  '.'
ae73	ff	(unknown)  '.'
ae74	ff	(unknown)  '.'
ae75	ff	(unknown)  '.'
ae76	ff	(unknown)  '.'
ae77	ff	(unknown)  '.'
ae78	ff	(unknown)  '.'
ae79	ff	(unknown)  '.'
ae7a	ff	(unknown)  '.'
ae7b	ff	(unknown)  '.'
ae7c	ff	(unknown)  '.'
ae7d	ff	(unknown)  '.'
ae7e	ff	(unknown)  '.'
ae7f	ff	(unknown)  '.'
ae80	ff	(unknown)  '.'
ae81	ff	(unknown)  '.'
ae82	ff	(unknown)  '.'
ae83	ff	(unknown)  '.'
ae84	ff	(unknown)  '.'
ae85	ff	(unknown)  '.'
ae86	ff	(unknown)  '.'
ae87	ff	(unknown)  '.'
ae88	ff	(unknown)  '.'
ae89	ff	(unknown)  '.'
ae8a	ff	(unknown)  '.'
ae8b	ff	(unknown)  '.'
ae8c	ff	(unknown)  '.'
ae8d	ff	(unknown)  '.'
ae8e	ff	(unknown)  '.'
ae8f	ff	(unknown)  '.'
ae90	ff	(unknown)  '.'
ae91	ff	(unknown)  '.'
ae92	ff	(unknown)  '.'
ae93	ff	(unknown)  '.'
ae94	ff	(unknown)  '.'
ae95	ff	(unknown)  '.'
ae96	ff	(unknown)  '.'
ae97	ff	(unknown)  '.'
ae98	ff	(unknown)  '.'
ae99	ff	(unknown)  '.'
ae9a	ff	(unknown)  '.'
ae9b	ff	(unknown)  '.'
ae9c	ff	(unknown)  '.'
ae9d	ff	(unknown)  '.'
ae9e	ff	(unknown)  '.'
ae9f	ff	(unknown)  '.'
aea0	ff	(unknown)  '.'
aea1	ff	(unknown)  '.'
aea2	ff	(unknown)  '.'
aea3	ff	(unknown)  '.'
aea4	ff	(unknown)  '.'
aea5	ff	(unknown)  '.'
aea6	ff	(unknown)  '.'
aea7	ff	(unknown)  '.'
aea8	ff	(unknown)  '.'
aea9	ff	(unknown)  '.'
aeaa	ff	(unknown)  '.'
aeab	ff	(unknown)  '.'
aeac	ff	(unknown)  '.'
aead	ff	(unknown)  '.'
aeae	ff	(unknown)  '.'
aeaf	ff	(unknown)  '.'
aeb0	ff	(unknown)  '.'
aeb1	ff	(unknown)  '.'
aeb2	ff	(unknown)  '.'
aeb3	ff	(unknown)  '.'
aeb4	ff	(unknown)  '.'
aeb5	ff	(unknown)  '.'
aeb6	ff	(unknown)  '.'
aeb7	ff	(unknown)  '.'
aeb8	ff	(unknown)  '.'
aeb9	ff	(unknown)  '.'
aeba	ff	(unknown)  '.'
aebb	ff	(unknown)  '.'
aebc	ff	(unknown)  '.'
aebd	ff	(unknown)  '.'
aebe	ff	(unknown)  '.'
aebf	ff	(unknown)  '.'
aec0	ff	(unknown)  '.'
aec1	ff	(unknown)  '.'
aec2	ff	(unknown)  '.'
aec3	ff	(unknown)  '.'
aec4	ff	(unknown)  '.'
aec5	ff	(unknown)  '.'
aec6	ff	(unknown)  '.'
aec7	ff	(unknown)  '.'
aec8	ff	(unknown)  '.'
aec9	ff	(unknown)  '.'
aeca	ff	(unknown)  '.'
aecb	ff	(unknown)  '.'
aecc	ff	(unknown)  '.'
aecd	ff	(unknown)  '.'
aece	ff	(unknown)  '.'
aecf	ff	(unknown)  '.'
aed0	ff	(unknown)  '.'
aed1	ff	(unknown)  '.'
aed2	ff	(unknown)  '.'
aed3	ff	(unknown)  '.'
aed4	ff	(unknown)  '.'
aed5	ff	(unknown)  '.'
aed6	ff	(unknown)  '.'
aed7	ff	(unknown)  '.'
aed8	ff	(unknown)  '.'
aed9	ff	(unknown)  '.'
aeda	ff	(unknown)  '.'
aedb	ff	(unknown)  '.'
aedc	ff	(unknown)  '.'
aedd	ff	(unknown)  '.'
aede	ff	(unknown)  '.'
aedf	ff	(unknown)  '.'
aee0	ff	(unknown)  '.'
aee1	ff	(unknown)  '.'
aee2	ff	(unknown)  '.'
aee3	ff	(unknown)  '.'
aee4	ff	(unknown)  '.'
aee5	ff	(unknown)  '.'
aee6	ff	(unknown)  '.'
aee7	ff	(unknown)  '.'
aee8	ff	(unknown)  '.'
aee9	ff	(unknown)  '.'
aeea	ff	(unknown)  '.'
aeeb	ff	(unknown)  '.'
aeec	ff	(unknown)  '.'
aeed	ff	(unknown)  '.'
aeee	ff	(unknown)  '.'
aeef	ff	(unknown)  '.'
aef0	ff	(unknown)  '.'
aef1	ff	(unknown)  '.'
aef2	ff	(unknown)  '.'
aef3	ff	(unknown)  '.'
aef4	ff	(unknown)  '.'
aef5	ff	(unknown)  '.'
aef6	ff	(unknown)  '.'
aef7	ff	(unknown)  '.'
aef8	ff	(unknown)  '.'
aef9	ff	(unknown)  '.'
aefa	ff	(unknown)  '.'
aefb	ff	(unknown)  '.'
aefc	ff	(unknown)  '.'
aefd	ff	(unknown)  '.'
aefe	ff	(unknown)  '.'
aeff	ff	(unknown)  '.'
af00	ff	(unknown)  '.'
af01	ff	(unknown)  '.'
af02	ff	(unknown)  '.'
af03	ff	(unknown)  '.'
af04	ff	(unknown)  '.'
af05	ff	(unknown)  '.'
af06	ff	(unknown)  '.'
af07	ff	(unknown)  '.'
af08	ff	(unknown)  '.'
af09	ff	(unknown)  '.'
af0a	ff	(unknown)  '.'
af0b	ff	(unknown)  '.'
af0c	ff	(unknown)  '.'
af0d	ff	(unknown)  '.'
af0e	ff	(unknown)  '.'
af0f	ff	(unknown)  '.'
af10	ff	(unknown)  '.'
af11	ff	(unknown)  '.'
af12	ff	(unknown)  '.'
af13	ff	(unknown)  '.'
af14	ff	(unknown)  '.'
af15	ff	(unknown)  '.'
af16	ff	(unknown)  '.'
af17	ff	(unknown)  '.'
af18	ff	(unknown)  '.'
af19	ff	(unknown)  '.'
af1a	ff	(unknown)  '.'
af1b	ff	(unknown)  '.'
af1c	ff	(unknown)  '.'
af1d	ff	(unknown)  '.'
af1e	ff	(unknown)  '.'
af1f	ff	(unknown)  '.'
af20	ff	(unknown)  '.'
af21	ff	(unknown)  '.'
af22	ff	(unknown)  '.'
af23	ff	(unknown)  '.'
af24	ff	(unknown)  '.'
af25	ff	(unknown)  '.'
af26	ff	(unknown)  '.'
af27	ff	(unknown)  '.'
af28	ff	(unknown)  '.'
af29	ff	(unknown)  '.'
af2a	ff	(unknown)  '.'
af2b	ff	(unknown)  '.'
af2c	ff	(unknown)  '.'
af2d	ff	(unknown)  '.'
af2e	ff	(unknown)  '.'
af2f	ff	(unknown)  '.'
af30	ff	(unknown)  '.'
af31	ff	(unknown)  '.'
af32	ff	(unknown)  '.'
af33	ff	(unknown)  '.'
af34	ff	(unknown)  '.'
af35	ff	(unknown)  '.'
af36	ff	(unknown)  '.'
af37	ff	(unknown)  '.'
af38	ff	(unknown)  '.'
af39	ff	(unknown)  '.'
af3a	ff	(unknown)  '.'
af3b	ff	(unknown)  '.'
af3c	ff	(unknown)  '.'
af3d	ff	(unknown)  '.'
af3e	ff	(unknown)  '.'
af3f	ff	(unknown)  '.'
af40	ff	(unknown)  '.'
af41	ff	(unknown)  '.'
af42	ff	(unknown)  '.'
af43	ff	(unknown)  '.'
af44	ff	(unknown)  '.'
af45	ff	(unknown)  '.'
af46	ff	(unknown)  '.'
af47	ff	(unknown)  '.'
af48	ff	(unknown)  '.'
af49	ff	(unknown)  '.'
af4a	ff	(unknown)  '.'
af4b	ff	(unknown)  '.'
af4c	ff	(unknown)  '.'
af4d	ff	(unknown)  '.'
af4e	ff	(unknown)  '.'
af4f	ff	(unknown)  '.'
af50	ff	(unknown)  '.'
af51	ff	(unknown)  '.'
af52	ff	(unknown)  '.'
af53	ff	(unknown)  '.'
af54	ff	(unknown)  '.'
af55	ff	(unknown)  '.'
af56	ff	(unknown)  '.'
af57	ff	(unknown)  '.'
af58	ff	(unknown)  '.'
af59	ff	(unknown)  '.'
af5a	ff	(unknown)  '.'
af5b	ff	(unknown)  '.'
af5c	ff	(unknown)  '.'
af5d	ff	(unknown)  '.'
af5e	ff	(unknown)  '.'
af5f	ff	(unknown)  '.'
af60	ff	(unknown)  '.'
af61	ff	(unknown)  '.'
af62	ff	(unknown)  '.'
af63	ff	(unknown)  '.'
af64	ff	(unknown)  '.'
af65	ff	(unknown)  '.'
af66	ff	(unknown)  '.'
af67	ff	(unknown)  '.'
af68	ff	(unknown)  '.'
af69	ff	(unknown)  '.'
af6a	ff	(unknown)  '.'
af6b	ff	(unknown)  '.'
af6c	ff	(unknown)  '.'
af6d	ff	(unknown)  '.'
af6e	ff	(unknown)  '.'
af6f	ff	(unknown)  '.'
af70	ff	(unknown)  '.'
af71	ff	(unknown)  '.'
af72	ff	(unknown)  '.'
af73	ff	(unknown)  '.'
af74	ff	(unknown)  '.'
af75	ff	(unknown)  '.'
af76	ff	(unknown)  '.'
af77	ff	(unknown)  '.'
af78	ff	(unknown)  '.'
af79	ff	(unknown)  '.'
af7a	ff	(unknown)  '.'
af7b	ff	(unknown)  '.'
af7c	ff	(unknown)  '.'
af7d	ff	(unknown)  '.'
af7e	ff	(unknown)  '.'
af7f	ff	(unknown)  '.'
af80	ff	(unknown)  '.'
af81	ff	(unknown)  '.'
af82	ff	(unknown)  '.'
af83	ff	(unknown)  '.'
af84	ff	(unknown)  '.'
af85	ff	(unknown)  '.'
af86	ff	(unknown)  '.'
af87	ff	(unknown)  '.'
af88	ff	(unknown)  '.'
af89	ff	(unknown)  '.'
af8a	ff	(unknown)  '.'
af8b	ff	(unknown)  '.'
af8c	ff	(unknown)  '.'
af8d	ff	(unknown)  '.'
af8e	ff	(unknown)  '.'
af8f	ff	(unknown)  '.'
af90	ff	(unknown)  '.'
af91	ff	(unknown)  '.'
af92	ff	(unknown)  '.'
af93	ff	(unknown)  '.'
af94	ff	(unknown)  '.'
af95	ff	(unknown)  '.'
af96	ff	(unknown)  '.'
af97	ff	(unknown)  '.'
af98	ff	(unknown)  '.'
af99	ff	(unknown)  '.'
af9a	ff	(unknown)  '.'
af9b	ff	(unknown)  '.'
af9c	ff	(unknown)  '.'
af9d	ff	(unknown)  '.'
af9e	ff	(unknown)  '.'
af9f	ff	(unknown)  '.'
afa0	ff	(unknown)  '.'
afa1	ff	(unknown)  '.'
afa2	ff	(unknown)  '.'
afa3	ff	(unknown)  '.'
afa4	ff	(unknown)  '.'
afa5	ff	(unknown)  '.'
afa6	ff	(unknown)  '.'
afa7	ff	(unknown)  '.'
afa8	ff	(unknown)  '.'
afa9	ff	(unknown)  '.'
afaa	ff	(unknown)  '.'
afab	ff	(unknown)  '.'
afac	ff	(unknown)  '.'
afad	ff	(unknown)  '.'
afae	ff	(unknown)  '.'
afaf	ff	(unknown)  '.'
afb0	ff	(unknown)  '.'
afb1	ff	(unknown)  '.'
afb2	ff	(unknown)  '.'
afb3	ff	(unknown)  '.'
afb4	ff	(unknown)  '.'
afb5	ff	(unknown)  '.'
afb6	ff	(unknown)  '.'
afb7	ff	(unknown)  '.'
afb8	ff	(unknown)  '.'
afb9	ff	(unknown)  '.'
afba	ff	(unknown)  '.'
afbb	ff	(unknown)  '.'
afbc	ff	(unknown)  '.'
afbd	ff	(unknown)  '.'
afbe	ff	(unknown)  '.'
afbf	ff	(unknown)  '.'
afc0	ff	(unknown)  '.'
afc1	ff	(unknown)  '.'
afc2	ff	(unknown)  '.'
afc3	ff	(unknown)  '.'
afc4	ff	(unknown)  '.'
afc5	ff	(unknown)  '.'
afc6	ff	(unknown)  '.'
afc7	ff	(unknown)  '.'
afc8	ff	(unknown)  '.'
afc9	ff	(unknown)  '.'
afca	ff	(unknown)  '.'
afcb	ff	(unknown)  '.'
afcc	ff	(unknown)  '.'
afcd	ff	(unknown)  '.'
afce	ff	(unknown)  '.'
afcf	ff	(unknown)  '.'
afd0	ff	(unknown)  '.'
afd1	ff	(unknown)  '.'
afd2	ff	(unknown)  '.'
afd3	ff	(unknown)  '.'
afd4	ff	(unknown)  '.'
afd5	ff	(unknown)  '.'
afd6	ff	(unknown)  '.'
afd7	ff	(unknown)  '.'
afd8	ff	(unknown)  '.'
afd9	ff	(unknown)  '.'
afda	ff	(unknown)  '.'
afdb	ff	(unknown)  '.'
afdc	ff	(unknown)  '.'
afdd	ff	(unknown)  '.'
afde	ff	(unknown)  '.'
afdf	ff	(unknown)  '.'
afe0	ff	(unknown)  '.'
afe1	ff	(unknown)  '.'
afe2	ff	(unknown)  '.'
afe3	ff	(unknown)  '.'
afe4	ff	(unknown)  '.'
afe5	ff	(unknown)  '.'
afe6	ff	(unknown)  '.'
afe7	ff	(unknown)  '.'
afe8	ff	(unknown)  '.'
afe9	ff	(unknown)  '.'
afea	ff	(unknown)  '.'
afeb	ff	(unknown)  '.'
afec	ff	(unknown)  '.'
afed	ff	(unknown)  '.'
afee	ff	(unknown)  '.'
afef	ff	(unknown)  '.'
aff0	ff	(unknown)  '.'
aff1	ff	(unknown)  '.'
aff2	ff	(unknown)  '.'
aff3	ff	(unknown)  '.'
aff4	ff	(unknown)  '.'
aff5	ff	(unknown)  '.'
aff6	ff	(unknown)  '.'
aff7	ff	(unknown)  '.'
aff8	ff	(unknown)  '.'
aff9	ff	(unknown)  '.'
affa	ff	(unknown)  '.'
affb	ff	(unknown)  '.'
affc	ff	(unknown)  '.'
affd	ff	(unknown)  '.'
affe	ff	(unknown)  '.'
afff	ff	(unknown)  '.'
b000	90	(unknown)  '.'
b001	b0	(unknown)  '.'
b002	05	(unknown)  '.'
b003	93	(unknown)  '.'
b004	22	(unknown)  '"'
b005	1b	(unknown)  '.'
b006	03	(unknown)  '.'
b007	16	(unknown)  '.'
b008	23	(unknown)  '#'
b009	0c	(unknown)  '.'
b00a	0c	(unknown)  '.'
b00b	0c	(unknown)  '.'
b00c	0c	(unknown)  '.'
b00d	0c	(unknown)  '.'
b00e	0c	(unknown)  '.'
b00f	0c	(unknown)  '.'
b010	0c	(unknown)  '.'
b011	0c	(unknown)  '.'
b012	0c	(unknown)  '.'
b013	0c	(unknown)  '.'
b014	0c	(unknown)  '.'
b015	0e	(unknown)  '.'
b016	00	(unknown)  '.'
b017	15	(unknown)  '.'
b018	24	(unknown)  '$'
b019	09	(unknown)  '.'
b01a	09	(unknown)  '.'
b01b	09	(unknown)  '.'
b01c	09	(unknown)  '.'
b01d	09	(unknown)  '.'
b01e	09	(unknown)  '.'
b01f	09	(unknown)  '.'
b020	09	(unknown)  '.'
b021	09	(unknown)  '.'
b022	09	(unknown)  '.'
b023	09	(unknown)  '.'
b024	09	(unknown)  '.'
b025	0d	(unknown)  '.'
b026	03	(unknown)  '.'
b027	1f	(unknown)  '.'
b028	21	(unknown)  '!'
b029	01	(unknown)  '.'
b02a	01	(unknown)  '.'
b02b	01	(unknown)  '.'
b02c	01	(unknown)  '.'
b02d	01	(unknown)  '.'
b02e	01	(unknown)  '.'
b02f	01	(unknown)  '.'
b030	01	(unknown)  '.'
b031	01	(unknown)  '.'
b032	01	(unknown)  '.'
b033	01	(unknown)  '.'
b034	01	(unknown)  '.'
b035	11	(unknown)  '.'
b036	00	(unknown)  '.'
b037	20	(unknown)  ' '
b038	22	(unknown)  '"'
b039	02	(unknown)  '.'
b03a	02	(unknown)  '.'
b03b	02	(unknown)  '.'
b03c	02	(unknown)  '.'
b03d	02	(unknown)  '.'
b03e	02	(unknown)  '.'
b03f	02	(unknown)  '.'
b040	02	(unknown)  '.'
b041	02	(unknown)  '.'
b042	02	(unknown)  '.'
b043	02	(unknown)  '.'
b044	02	(unknown)  '.'
b045	0f	(unknown)  '.'
b046	03	(unknown)  '.'
b047	1c	(unknown)  '.'
b048	1c	(unknown)  '.'
b049	1c	(unknown)  '.'
b04a	1c	(unknown)  '.'
b04b	1c	(unknown)  '.'
b04c	1c	(unknown)  '.'
b04d	1c	(unknown)  '.'
b04e	1c	(unknown)  '.'
b04f	1c	(unknown)  '.'
b050	1c	(unknown)  '.'
b051	1c	(unknown)  '.'
b052	1c	(unknown)  '.'
b053	1c	(unknown)  '.'
b054	1c	(unknown)  '.'
b055	12	(unknown)  '.'
b056	00	(unknown)  '.'
b057	04	(unknown)  '.'
b058	04	(unknown)  '.'
b059	04	(unknown)  '.'
b05a	04	(unknown)  '.'
b05b	04	(unknown)  '.'
b05c	04	(unknown)  '.'
b05d	04	(unknown)  '.'
b05e	04	(unknown)  '.'
b05f	04	(unknown)  '.'
b060	04	(unknown)  '.'
b061	04	(unknown)  '.'
b062	04	(unknown)  '.'
b063	04	(unknown)  '.'
b064	04	(unknown)  '.'
b065	14	(unknown)  '.'
b066	03	(unknown)  '.'
b067	2b	(unknown)  '+'
b068	2b	(unknown)  '+'
b069	2b	(unknown)  '+'
b06a	2b	(unknown)  '+'
b06b	2b	(unknown)  '+'
b06c	2b	(unknown)  '+'
b06d	2b	(unknown)  '+'
b06e	2b	(unknown)  '+'
b06f	2b	(unknown)  '+'
b070	2b	(unknown)  '+'
b071	2b	(unknown)  '+'
b072	2b	(unknown)  '+'
b073	2b	(unknown)  '+'
b074	2b	(unknown)  '+'
b075	13	(unknown)  '.'
b076	00	(unknown)  '.'
b077	1c	(unknown)  '.'
b078	10	(unknown)  '.'
b079	17	(unknown)  '.'
b07a	17	(unknown)  '.'
b07b	17	(unknown)  '.'
b07c	17	(unknown)  '.'
b07d	17	(unknown)  '.'
b07e	17	(unknown)  '.'
b07f	17	(unknown)  '.'
b080	17	(unknown)  '.'
b081	17	(unknown)  '.'
b082	17	(unknown)  '.'
b083	17	(unknown)  '.'
b084	17	(unknown)  '.'
b085	26	(unknown)  '&'
b086	03	(unknown)  '.'
b087	04	(unknown)  '.'
b088	18	(unknown)  '.'
b089	0a	(unknown)  '.'
b08a	17	(unknown)  '.'
b08b	17	(unknown)  '.'
b08c	17	(unknown)  '.'
b08d	17	(unknown)  '.'
b08e	17	(unknown)  '.'
b08f	17	(unknown)  '.'
b090	17	(unknown)  '.'
b091	17	(unknown)  '.'
b092	17	(unknown)  '.'
b093	17	(unknown)  '.'
b094	17	(unknown)  '.'
b095	17	(unknown)  '.'
b096	00	(unknown)  '.'
b097	17	(unknown)  '.'
b098	18	(unknown)  '.'
b099	27	(unknown)  '''
b09a	27	(unknown)  '''
b09b	27	(unknown)  '''
b09c	27	(unknown)  '''
b09d	27	(unknown)  '''
b09e	27	(unknown)  '''
b09f	27	(unknown)  '''
b0a0	27	(unknown)  '''
b0a1	27	(unknown)  '''
b0a2	27	(unknown)  '''
b0a3	27	(unknown)  '''
b0a4	27	(unknown)  '''
b0a5	1c	(unknown)  '.'
b0a6	03	(unknown)  '.'
b0a7	17	(unknown)  '.'
b0a8	0c	(unknown)  '.'
b0a9	1a	(unknown)  '.'
b0aa	2c	(unknown)  ','
b0ab	17	(unknown)  '.'
b0ac	17	(unknown)  '.'
b0ad	17	(unknown)  '.'
b0ae	17	(unknown)  '.'
b0af	17	(unknown)  '.'
b0b0	17	(unknown)  '.'
b0b1	17	(unknown)  '.'
b0b2	17	(unknown)  '.'
b0b3	17	(unknown)  '.'
b0b4	17	(unknown)  '.'
b0b5	04	(unknown)  '.'
b0b6	00	(unknown)  '.'
b0b7	07	(unknown)  '.'
b0b8	07	(unknown)  '.'
b0b9	05	(unknown)  '.'
b0ba	05	(unknown)  '.'
b0bb	05	(unknown)  '.'
b0bc	05	(unknown)  '.'
b0bd	05	(unknown)  '.'
b0be	05	(unknown)  '.'
b0bf	05	(unknown)  '.'
b0c0	05	(unknown)  '.'
b0c1	05	(unknown)  '.'
b0c2	05	(unknown)  '.'
b0c3	05	(unknown)  '.'
b0c4	05	(unknown)  '.'
b0c5	1e	(unknown)  '.'
b0c6	03	(unknown)  '.'
b0c7	06	(unknown)  '.'
b0c8	06	(unknown)  '.'
b0c9	28	(unknown)  '('
b0ca	29	(unknown)  ')'
b0cb	29	(unknown)  ')'
b0cc	29	(unknown)  ')'
b0cd	29	(unknown)  ')'
b0ce	29	(unknown)  ')'
b0cf	29	(unknown)  ')'
b0d0	29	(unknown)  ')'
b0d1	29	(unknown)  ')'
b0d2	29	(unknown)  ')'
b0d3	29	(unknown)  ')'
b0d4	29	(unknown)  ')'
b0d5	1d	(unknown)  '.'
b0d6	00	(unknown)  '.'
b0d7	25	(unknown)  '%'
b0d8	25	(unknown)  '%'
b0d9	08	(unknown)  '.'
b0da	0b	(unknown)  '.'
b0db	2a	(unknown)  '*'
b0dc	2a	(unknown)  '*'
b0dd	0b	(unknown)  '.'
b0de	0b	(unknown)  '.'
b0df	0b	(unknown)  '.'
b0e0	0b	(unknown)  '.'
b0e1	0b	(unknown)  '.'
b0e2	0b	(unknown)  '.'
b0e3	0b	(unknown)  '.'
b0e4	0b	(unknown)  '.'
b0e5	19	(unknown)  '.'
b0e6	03	(unknown)  '.'
b0e7	19	(unknown)  '.'
b0e8	19	(unknown)  '.'
b0e9	06	(unknown)  '.'
b0ea	17	(unknown)  '.'
b0eb	17	(unknown)  '.'
b0ec	17	(unknown)  '.'
b0ed	17	(unknown)  '.'
b0ee	17	(unknown)  '.'
b0ef	17	(unknown)  '.'
b0f0	17	(unknown)  '.'
b0f1	17	(unknown)  '.'
b0f2	17	(unknown)  '.'
b0f3	17	(unknown)  '.'
b0f4	17	(unknown)  '.'
b0f5	19	(unknown)  '.'
b0f6	00	(unknown)  '.'
b0f7	19	(unknown)  '.'
b0f8	19	(unknown)  '.'
b0f9	07	(unknown)  '.'
b0fa	17	(unknown)  '.'
b0fb	17	(unknown)  '.'
b0fc	17	(unknown)  '.'
b0fd	17	(unknown)  '.'
b0fe	17	(unknown)  '.'
b0ff	17	(unknown)  '.'
b100	17	(unknown)  '.'
b101	17	(unknown)  '.'
b102	17	(unknown)  '.'
b103	17	(unknown)  '.'
b104	17	(unknown)  '.'
b105	90	(unknown)  '.'
b106	b1	(unknown)  '.'
b107	0a	(unknown)  '.'
b108	93	(unknown)  '.'
b109	22	(unknown)  '"'
b10a	40	(unknown)  '@'
b10b	62	(unknown)  'b'
b10c	63	(unknown)  'c'
b10d	41	(unknown)  'A'
b10e	41	(unknown)  'A'
b10f	45	(unknown)  'E'
b110	43	(unknown)  'C'
b111	44	(unknown)  'D'
b112	00	(unknown)  '.'
b113	01	(unknown)  '.'
b114	02	(unknown)  '.'
b115	03	(unknown)  '.'
b116	04	(unknown)  '.'
b117	05	(unknown)  '.'
b118	06	(unknown)  '.'
b119	07	(unknown)  '.'
b11a	64	(unknown)  'd'
b11b	62	(unknown)  'b'
b11c	63	(unknown)  'c'
b11d	41	(unknown)  'A'
b11e	41	(unknown)  'A'
b11f	45	(unknown)  'E'
b120	43	(unknown)  'C'
b121	44	(unknown)  'D'
b122	00	(unknown)  '.'
b123	01	(unknown)  '.'
b124	02	(unknown)  '.'
b125	03	(unknown)  '.'
b126	04	(unknown)  '.'
b127	05	(unknown)  '.'
b128	06	(unknown)  '.'
b129	07	(unknown)  '.'
b12a	64	(unknown)  'd'
b12b	62	(unknown)  'b'
b12c	40	(unknown)  '@'
b12d	41	(unknown)  'A'
b12e	47	(unknown)  'G'
b12f	48	(unknown)  'H'
b130	49	(unknown)  'I'
b131	4a	(unknown)  'J'
b132	08	(unknown)  '.'
b133	09	(unknown)  '.'
b134	0a	(unknown)  '.'
b135	0b	(unknown)  '.'
b136	0c	(unknown)  '.'
b137	0d	(unknown)  '.'
b138	0e	(unknown)  '.'
b139	0f	(unknown)  '.'
b13a	64	(unknown)  'd'
b13b	62	(unknown)  'b'
b13c	40	(unknown)  '@'
b13d	41	(unknown)  'A'
b13e	47	(unknown)  'G'
b13f	48	(unknown)  'H'
b140	49	(unknown)  'I'
b141	4a	(unknown)  'J'
b142	08	(unknown)  '.'
b143	09	(unknown)  '.'
b144	0a	(unknown)  '.'
b145	0b	(unknown)  '.'
b146	0c	(unknown)  '.'
b147	0d	(unknown)  '.'
b148	0e	(unknown)  '.'
b149	0f	(unknown)  '.'
b14a	46	(unknown)  'F'
b14b	62	(unknown)  'b'
b14c	4b	(unknown)  'K'
b14d	4c	(unknown)  'L'
b14e	47	(unknown)  'G'
b14f	48	(unknown)  'H'
b150	49	(unknown)  'I'
b151	4a	(unknown)  'J'
b152	08	(unknown)  '.'
b153	09	(unknown)  '.'
b154	0a	(unknown)  '.'
b155	0b	(unknown)  '.'
b156	0c	(unknown)  '.'
b157	0d	(unknown)  '.'
b158	0e	(unknown)  '.'
b159	0f	(unknown)  '.'
b15a	46	(unknown)  'F'
b15b	62	(unknown)  'b'
b15c	4b	(unknown)  'K'
b15d	4c	(unknown)  'L'
b15e	47	(unknown)  'G'
b15f	48	(unknown)  'H'
b160	49	(unknown)  'I'
b161	4a	(unknown)  'J'
b162	08	(unknown)  '.'
b163	09	(unknown)  '.'
b164	0a	(unknown)  '.'
b165	0b	(unknown)  '.'
b166	0c	(unknown)  '.'
b167	0d	(unknown)  '.'
b168	0e	(unknown)  '.'
b169	0f	(unknown)  '.'
b16a	46	(unknown)  'F'
b16b	62	(unknown)  'b'
b16c	4b	(unknown)  'K'
b16d	4c	(unknown)  'L'
b16e	47	(unknown)  'G'
b16f	48	(unknown)  'H'
b170	49	(unknown)  'I'
b171	4a	(unknown)  'J'
b172	08	(unknown)  '.'
b173	09	(unknown)  '.'
b174	0a	(unknown)  '.'
b175	0b	(unknown)  '.'
b176	0c	(unknown)  '.'
b177	0d	(unknown)  '.'
b178	0e	(unknown)  '.'
b179	0f	(unknown)  '.'
b17a	46	(unknown)  'F'
b17b	62	(unknown)  'b'
b17c	58	(unknown)  'X'
b17d	5b	(unknown)  '['
b17e	47	(unknown)  'G'
b17f	4c	(unknown)  'L'
b180	54	(unknown)  'T'
b181	55	(unknown)  'U'
b182	28	(unknown)  '('
b183	29	(unknown)  ')'
b184	2a	(unknown)  '*'
b185	2b	(unknown)  '+'
b186	2c	(unknown)  ','
b187	2d	(unknown)  '-'
b188	2e	(unknown)  '.'
b189	2f	(unknown)  '/'
b18a	46	(unknown)  'F'
b18b	62	(unknown)  'b'
b18c	58	(unknown)  'X'
b18d	5c	(unknown)  '\'
b18e	42	(unknown)  'B'
b18f	4d	(unknown)  'M'
b190	4e	(unknown)  'N'
b191	4f	(unknown)  'O'
b192	20	(unknown)  ' '
b193	21	(unknown)  '!'
b194	22	(unknown)  '"'
b195	23	(unknown)  '#'
b196	24	(unknown)  '$'
b197	25	(unknown)  '%'
b198	26	(unknown)  '&'
b199	27	(unknown)  '''
b19a	61	(unknown)  'a'
b19b	62	(unknown)  'b'
b19c	5a	(unknown)  'Z'
b19d	5d	(unknown)  ']'
b19e	47	(unknown)  'G'
b19f	48	(unknown)  'H'
b1a0	49	(unknown)  'I'
b1a1	4a	(unknown)  'J'
b1a2	08	(unknown)  '.'
b1a3	09	(unknown)  '.'
b1a4	0a	(unknown)  '.'
b1a5	0b	(unknown)  '.'
b1a6	0c	(unknown)  '.'
b1a7	0d	(unknown)  '.'
b1a8	0e	(unknown)  '.'
b1a9	0f	(unknown)  '.'
b1aa	59	(unknown)  'Y'
b1ab	62	(unknown)  'b'
b1ac	58	(unknown)  'X'
b1ad	60	(unknown)  '`'
b1ae	42	(unknown)  'B'
b1af	6a	(unknown)  'j'
b1b0	52	(unknown)  'R'
b1b1	53	(unknown)  'S'
b1b2	18	(unknown)  '.'
b1b3	19	(unknown)  '.'
b1b4	1a	(unknown)  '.'
b1b5	1b	(unknown)  '.'
b1b6	1c	(unknown)  '.'
b1b7	1d	(unknown)  '.'
b1b8	1e	(unknown)  '.'
b1b9	1f	(unknown)  '.'
b1ba	59	(unknown)  'Y'
b1bb	62	(unknown)  'b'
b1bc	57	(unknown)  'W'
b1bd	56	(unknown)  'V'
b1be	67	(unknown)  'g'
b1bf	66	(unknown)  'f'
b1c0	68	(unknown)  'h'
b1c1	69	(unknown)  'i'
b1c2	38	(unknown)  '8'
b1c3	39	(unknown)  '9'
b1c4	3a	(unknown)  ':'
b1c5	3b	(unknown)  ';'
b1c6	3c	(unknown)  '<'
b1c7	3d	(unknown)  '='
b1c8	3e	(unknown)  '>'
b1c9	3f	(unknown)  '?'
b1ca	45	(unknown)  'E'
b1cb	62	(unknown)  'b'
b1cc	57	(unknown)  'W'
b1cd	56	(unknown)  'V'
b1ce	41	(unknown)  'A'
b1cf	48	(unknown)  'H'
b1d0	49	(unknown)  'I'
b1d1	4a	(unknown)  'J'
b1d2	08	(unknown)  '.'
b1d3	09	(unknown)  '.'
b1d4	0a	(unknown)  '.'
b1d5	0b	(unknown)  '.'
b1d6	0c	(unknown)  '.'
b1d7	0d	(unknown)  '.'
b1d8	0e	(unknown)  '.'
b1d9	0f	(unknown)  '.'
b1da	45	(unknown)  'E'
b1db	62	(unknown)  'b'
b1dc	57	(unknown)  'W'
b1dd	56	(unknown)  'V'
b1de	41	(unknown)  'A'
b1df	65	(unknown)  'e'
b1e0	49	(unknown)  'I'
b1e1	4a	(unknown)  'J'
b1e2	30	(unknown)  '0'
b1e3	31	(unknown)  '1'
b1e4	32	(unknown)  '2'
b1e5	33	(unknown)  '3'
b1e6	34	(unknown)  '4'
b1e7	35	(unknown)  '5'
b1e8	36	(unknown)  '6'
b1e9	37	(unknown)  '7'
b1ea	5e	(unknown)  '^'
b1eb	62	(unknown)  'b'
b1ec	49	(unknown)  'I'
b1ed	4a	(unknown)  'J'
b1ee	41	(unknown)  'A'
b1ef	48	(unknown)  'H'
b1f0	49	(unknown)  'I'
b1f1	4a	(unknown)  'J'
b1f2	08	(unknown)  '.'
b1f3	09	(unknown)  '.'
b1f4	0a	(unknown)  '.'
b1f5	0b	(unknown)  '.'
b1f6	0c	(unknown)  '.'
b1f7	0d	(unknown)  '.'
b1f8	0e	(unknown)  '.'
b1f9	0f	(unknown)  '.'
b1fa	5f	(unknown)  '_'
b1fb	62	(unknown)  'b'
b1fc	50	(unknown)  'P'
b1fd	51	(unknown)  'Q'
b1fe	41	(unknown)  'A'
b1ff	4b	(unknown)  'K'
b200	50	(unknown)  'P'
b201	51	(unknown)  'Q'
b202	10	(unknown)  '.'
b203	11	(unknown)  '.'
b204	12	(unknown)  '.'
b205	13	(unknown)  '.'
b206	14	(unknown)  '.'
b207	15	(unknown)  '.'
b208	16	(unknown)  '.'
b209	17	(unknown)  '.'
b20a	52	(unknown)  'R'
b20b	30	(unknown)  '0'
b20c	00	(unknown)  '.'
b20d	52	(unknown)  'R'
b20e	31	(unknown)  '1'
b20f	00	(unknown)  '.'
b210	52	(unknown)  'R'
b211	32	(unknown)  '2'
b212	00	(unknown)  '.'
b213	52	(unknown)  'R'
b214	33	(unknown)  '3'
b215	00	(unknown)  '.'
b216	52	(unknown)  'R'
b217	34	(unknown)  '4'
b218	00	(unknown)  '.'
b219	52	(unknown)  'R'
b21a	35	(unknown)  '5'
b21b	00	(unknown)  '.'
b21c	52	(unknown)  'R'
b21d	36	(unknown)  '6'
b21e	00	(unknown)  '.'
b21f	52	(unknown)  'R'
b220	37	(unknown)  '7'
b221	00	(unknown)  '.'
b222	41	(unknown)  'A'
b223	2c	(unknown)  ','
b224	52	(unknown)  'R'
b225	30	(unknown)  '0'
b226	00	(unknown)  '.'
b227	41	(unknown)  'A'
b228	2c	(unknown)  ','
b229	52	(unknown)  'R'
b22a	31	(unknown)  '1'
b22b	00	(unknown)  '.'
b22c	41	(unknown)  'A'
b22d	2c	(unknown)  ','
b22e	52	(unknown)  'R'
b22f	32	(unknown)  '2'
b230	00	(unknown)  '.'
b231	41	(unknown)  'A'
b232	2c	(unknown)  ','
b233	52	(unknown)  'R'
b234	33	(unknown)  '3'
b235	00	(unknown)  '.'
b236	41	(unknown)  'A'
b237	2c	(unknown)  ','
b238	52	(unknown)  'R'
b239	34	(unknown)  '4'
b23a	00	(unknown)  '.'
b23b	41	(unknown)  'A'
b23c	2c	(unknown)  ','
b23d	52	(unknown)  'R'
b23e	35	(unknown)  '5'
b23f	00	(unknown)  '.'
b240	41	(unknown)  'A'
b241	2c	(unknown)  ','
b242	52	(unknown)  'R'
b243	36	(unknown)  '6'
b244	00	(unknown)  '.'
b245	41	(unknown)  'A'
b246	2c	(unknown)  ','
b247	52	(unknown)  'R'
b248	37	(unknown)  '7'
b249	00	(unknown)  '.'
b24a	52	(unknown)  'R'
b24b	30	(unknown)  '0'
b24c	2c	(unknown)  ','
b24d	41	(unknown)  'A'
b24e	00	(unknown)  '.'
b24f	52	(unknown)  'R'
b250	31	(unknown)  '1'
b251	2c	(unknown)  ','
b252	41	(unknown)  'A'
b253	00	(unknown)  '.'
b254	52	(unknown)  'R'
b255	32	(unknown)  '2'
b256	2c	(unknown)  ','
b257	41	(unknown)  'A'
b258	00	(unknown)  '.'
b259	52	(unknown)  'R'
b25a	33	(unknown)  '3'
b25b	2c	(unknown)  ','
b25c	41	(unknown)  'A'
b25d	00	(unknown)  '.'
b25e	52	(unknown)  'R'
b25f	34	(unknown)  '4'
b260	2c	(unknown)  ','
b261	41	(unknown)  'A'
b262	00	(unknown)  '.'
b263	52	(unknown)  'R'
b264	35	(unknown)  '5'
b265	2c	(unknown)  ','
b266	41	(unknown)  'A'
b267	00	(unknown)  '.'
b268	52	(unknown)  'R'
b269	36	(unknown)  '6'
b26a	2c	(unknown)  ','
b26b	41	(unknown)  'A'
b26c	00	(unknown)  '.'
b26d	52	(unknown)  'R'
b26e	37	(unknown)  '7'
b26f	2c	(unknown)  ','
b270	41	(unknown)  'A'
b271	00	(unknown)  '.'
b272	52	(unknown)  'R'
b273	30	(unknown)  '0'
b274	2c	(unknown)  ','
b275	00	(unknown)  '.'
b276	52	(unknown)  'R'
b277	31	(unknown)  '1'
b278	2c	(unknown)  ','
b279	00	(unknown)  '.'
b27a	52	(unknown)  'R'
b27b	32	(unknown)  '2'
b27c	2c	(unknown)  ','
b27d	00	(unknown)  '.'
b27e	52	(unknown)  'R'
b27f	33	(unknown)  '3'
b280	2c	(unknown)  ','
b281	00	(unknown)  '.'
b282	52	(unknown)  'R'
b283	34	(unknown)  '4'
b284	2c	(unknown)  ','
b285	00	(unknown)  '.'
b286	52	(unknown)  'R'
b287	35	(unknown)  '5'
b288	2c	(unknown)  ','
b289	00	(unknown)  '.'
b28a	52	(unknown)  'R'
b28b	36	(unknown)  '6'
b28c	2c	(unknown)  ','
b28d	00	(unknown)  '.'
b28e	52	(unknown)  'R'
b28f	37	(unknown)  '7'
b290	2c	(unknown)  ','
b291	00	(unknown)  '.'
b292	20	(unknown)  ' '
b293	20	(unknown)  ' '
b294	2c	(unknown)  ','
b295	52	(unknown)  'R'
b296	30	(unknown)  '0'
b297	00	(unknown)  '.'
b298	20	(unknown)  ' '
b299	20	(unknown)  ' '
b29a	2c	(unknown)  ','
b29b	52	(unknown)  'R'
b29c	31	(unknown)  '1'
b29d	00	(unknown)  '.'
b29e	20	(unknown)  ' '
b29f	20	(unknown)  ' '
b2a0	2c	(unknown)  ','
b2a1	52	(unknown)  'R'
b2a2	32	(unknown)  '2'
b2a3	00	(unknown)  '.'
b2a4	20	(unknown)  ' '
b2a5	20	(unknown)  ' '
b2a6	2c	(unknown)  ','
b2a7	52	(unknown)  'R'
b2a8	33	(unknown)  '3'
b2a9	00	(unknown)  '.'
b2aa	20	(unknown)  ' '
b2ab	20	(unknown)  ' '
b2ac	2c	(unknown)  ','
b2ad	52	(unknown)  'R'
b2ae	34	(unknown)  '4'
b2af	00	(unknown)  '.'
b2b0	20	(unknown)  ' '
b2b1	20	(unknown)  ' '
b2b2	2c	(unknown)  ','
b2b3	52	(unknown)  'R'
b2b4	35	(unknown)  '5'
b2b5	00	(unknown)  '.'
b2b6	20	(unknown)  ' '
b2b7	20	(unknown)  ' '
b2b8	2c	(unknown)  ','
b2b9	52	(unknown)  'R'
b2ba	36	(unknown)  '6'
b2bb	00	(unknown)  '.'
b2bc	20	(unknown)  ' '
b2bd	20	(unknown)  ' '
b2be	2c	(unknown)  ','
b2bf	52	(unknown)  'R'
b2c0	37	(unknown)  '7'
b2c1	00	(unknown)  '.'
b2c2	52	(unknown)  'R'
b2c3	30	(unknown)  '0'
b2c4	2c	(unknown)  ','
b2c5	23	(unknown)  '#'
b2c6	00	(unknown)  '.'
b2c7	52	(unknown)  'R'
b2c8	31	(unknown)  '1'
b2c9	2c	(unknown)  ','
b2ca	23	(unknown)  '#'
b2cb	00	(unknown)  '.'
b2cc	52	(unknown)  'R'
b2cd	32	(unknown)  '2'
b2ce	2c	(unknown)  ','
b2cf	23	(unknown)  '#'
b2d0	00	(unknown)  '.'
b2d1	52	(unknown)  'R'
b2d2	33	(unknown)  '3'
b2d3	2c	(unknown)  ','
b2d4	23	(unknown)  '#'
b2d5	00	(unknown)  '.'
b2d6	52	(unknown)  'R'
b2d7	34	(unknown)  '4'
b2d8	2c	(unknown)  ','
b2d9	23	(unknown)  '#'
b2da	00	(unknown)  '.'
b2db	52	(unknown)  'R'
b2dc	35	(unknown)  '5'
b2dd	2c	(unknown)  ','
b2de	23	(unknown)  '#'
b2df	00	(unknown)  '.'
b2e0	52	(unknown)  'R'
b2e1	36	(unknown)  '6'
b2e2	2c	(unknown)  ','
b2e3	23	(unknown)  '#'
b2e4	00	(unknown)  '.'
b2e5	52	(unknown)  'R'
b2e6	37	(unknown)  '7'
b2e7	2c	(unknown)  ','
b2e8	23	(unknown)  '#'
b2e9	00	(unknown)  '.'
b2ea	52	(unknown)  'R'
b2eb	30	(unknown)  '0'
b2ec	2c	(unknown)  ','
b2ed	00	(unknown)  '.'
b2ee	52	(unknown)  'R'
b2ef	31	(unknown)  '1'
b2f0	2c	(unknown)  ','
b2f1	00	(unknown)  '.'
b2f2	52	(unknown)  'R'
b2f3	32	(unknown)  '2'
b2f4	2c	(unknown)  ','
b2f5	00	(unknown)  '.'
b2f6	52	(unknown)  'R'
b2f7	33	(unknown)  '3'
b2f8	2c	(unknown)  ','
b2f9	00	(unknown)  '.'
b2fa	52	(unknown)  'R'
b2fb	34	(unknown)  '4'
b2fc	2c	(unknown)  ','
b2fd	00	(unknown)  '.'
b2fe	52	(unknown)  'R'
b2ff	35	(unknown)  '5'
b300	2c	(unknown)  ','
b301	00	(unknown)  '.'
b302	52	(unknown)  'R'
b303	36	(unknown)  '6'
b304	2c	(unknown)  ','
b305	00	(unknown)  '.'
b306	52	(unknown)  'R'
b307	37	(unknown)  '7'
b308	2c	(unknown)  ','
b309	00	(unknown)  '.'
b30a	52	(unknown)  'R'
b30b	30	(unknown)  '0'
b30c	2c	(unknown)  ','
b30d	23	(unknown)  '#'
b30e	20	(unknown)  ' '
b30f	20	(unknown)  ' '
b310	2c	(unknown)  ','
b311	00	(unknown)  '.'
b312	52	(unknown)  'R'
b313	31	(unknown)  '1'
b314	2c	(unknown)  ','
b315	23	(unknown)  '#'
b316	20	(unknown)  ' '
b317	20	(unknown)  ' '
b318	2c	(unknown)  ','
b319	00	(unknown)  '.'
b31a	52	(unknown)  'R'
b31b	32	(unknown)  '2'
b31c	2c	(unknown)  ','
b31d	23	(unknown)  '#'
b31e	20	(unknown)  ' '
b31f	20	(unknown)  ' '
b320	2c	(unknown)  ','
b321	00	(unknown)  '.'
b322	52	(unknown)  'R'
b323	33	(unknown)  '3'
b324	2c	(unknown)  ','
b325	23	(unknown)  '#'
b326	20	(unknown)  ' '
b327	20	(unknown)  ' '
b328	2c	(unknown)  ','
b329	00	(unknown)  '.'
b32a	52	(unknown)  'R'
b32b	34	(unknown)  '4'
b32c	2c	(unknown)  ','
b32d	23	(unknown)  '#'
b32e	20	(unknown)  ' '
b32f	20	(unknown)  ' '
b330	2c	(unknown)  ','
b331	00	(unknown)  '.'
b332	52	(unknown)  'R'
b333	35	(unknown)  '5'
b334	2c	(unknown)  ','
b335	23	(unknown)  '#'
b336	20	(unknown)  ' '
b337	20	(unknown)  ' '
b338	2c	(unknown)  ','
b339	00	(unknown)  '.'
b33a	52	(unknown)  'R'
b33b	36	(unknown)  '6'
b33c	2c	(unknown)  ','
b33d	23	(unknown)  '#'
b33e	20	(unknown)  ' '
b33f	20	(unknown)  ' '
b340	2c	(unknown)  ','
b341	00	(unknown)  '.'
b342	52	(unknown)  'R'
b343	37	(unknown)  '7'
b344	2c	(unknown)  ','
b345	23	(unknown)  '#'
b346	20	(unknown)  ' '
b347	20	(unknown)  ' '
b348	2c	(unknown)  ','
b349	00	(unknown)  '.'
b34a	00	(unknown)  '.'
b34b	41	(unknown)  'A'
b34c	00	(unknown)  '.'
b34d	41	(unknown)  'A'
b34e	42	(unknown)  'B'
b34f	00	(unknown)  '.'
b350	40	(unknown)  '@'
b351	52	(unknown)  'R'
b352	30	(unknown)  '0'
b353	00	(unknown)  '.'
b354	40	(unknown)  '@'
b355	52	(unknown)  'R'
b356	31	(unknown)  '1'
b357	00	(unknown)  '.'
b358	00	(unknown)  '.'
b359	00	(unknown)  '.'
b35a	41	(unknown)  'A'
b35b	2c	(unknown)  ','
b35c	23	(unknown)  '#'
b35d	00	(unknown)  '.'
b35e	41	(unknown)  'A'
b35f	2c	(unknown)  ','
b360	00	(unknown)  '.'
b361	41	(unknown)  'A'
b362	2c	(unknown)  ','
b363	40	(unknown)  '@'
b364	52	(unknown)  'R'
b365	30	(unknown)  '0'
b366	00	(unknown)  '.'
b367	41	(unknown)  'A'
b368	2c	(unknown)  ','
b369	40	(unknown)  '@'
b36a	52	(unknown)  'R'
b36b	31	(unknown)  '1'
b36c	00	(unknown)  '.'
b36d	20	(unknown)  ' '
b36e	20	(unknown)  ' '
b36f	2c	(unknown)  ','
b370	41	(unknown)  'A'
b371	00	(unknown)  '.'
b372	20	(unknown)  ' '
b373	20	(unknown)  ' '
b374	2c	(unknown)  ','
b375	23	(unknown)  '#'
b376	00	(unknown)  '.'
b377	20	(unknown)  ' '
b378	20	(unknown)  ' '
b379	2c	(unknown)  ','
b37a	00	(unknown)  '.'
b37b	20	(unknown)  ' '
b37c	20	(unknown)  ' '
b37d	2c	(unknown)  ','
b37e	40	(unknown)  '@'
b37f	52	(unknown)  'R'
b380	30	(unknown)  '0'
b381	00	(unknown)  '.'
b382	20	(unknown)  ' '
b383	20	(unknown)  ' '
b384	2c	(unknown)  ','
b385	40	(unknown)  '@'
b386	52	(unknown)  'R'
b387	31	(unknown)  '1'
b388	00	(unknown)  '.'
b389	40	(unknown)  '@'
b38a	52	(unknown)  'R'
b38b	30	(unknown)  '0'
b38c	2c	(unknown)  ','
b38d	41	(unknown)  'A'
b38e	00	(unknown)  '.'
b38f	40	(unknown)  '@'
b390	52	(unknown)  'R'
b391	31	(unknown)  '1'
b392	2c	(unknown)  ','
b393	41	(unknown)  'A'
b394	00	(unknown)  '.'
b395	40	(unknown)  '@'
b396	52	(unknown)  'R'
b397	30	(unknown)  '0'
b398	2c	(unknown)  ','
b399	00	(unknown)  '.'
b39a	40	(unknown)  '@'
b39b	52	(unknown)  'R'
b39c	31	(unknown)  '1'
b39d	2c	(unknown)  ','
b39e	00	(unknown)  '.'
b39f	40	(unknown)  '@'
b3a0	52	(unknown)  'R'
b3a1	30	(unknown)  '0'
b3a2	2c	(unknown)  ','
b3a3	23	(unknown)  '#'
b3a4	00	(unknown)  '.'
b3a5	40	(unknown)  '@'
b3a6	52	(unknown)  'R'
b3a7	31	(unknown)  '1'
b3a8	2c	(unknown)  ','
b3a9	23	(unknown)  '#'
b3aa	00	(unknown)  '.'
b3ab	43	(unknown)  'C'
b3ac	00	(unknown)  '.'
b3ad	00	(unknown)  '.'
b3ae	43	(unknown)  'C'
b3af	2c	(unknown)  ','
b3b0	00	(unknown)  '.'
b3b1	43	(unknown)  'C'
b3b2	2c	(unknown)  ','
b3b3	2f	(unknown)  '/'
b3b4	00	(unknown)  '.'
b3b5	20	(unknown)  ' '
b3b6	20	(unknown)  ' '
b3b7	2c	(unknown)  ','
b3b8	43	(unknown)  'C'
b3b9	00	(unknown)  '.'
b3ba	40	(unknown)  '@'
b3bb	41	(unknown)  'A'
b3bc	2b	(unknown)  '+'
b3bd	44	(unknown)  'D'
b3be	50	(unknown)  'P'
b3bf	54	(unknown)  'T'
b3c0	52	(unknown)  'R'
b3c1	00	(unknown)  '.'
b3c2	41	(unknown)  'A'
b3c3	2c	(unknown)  ','
b3c4	40	(unknown)  '@'
b3c5	41	(unknown)  'A'
b3c6	2b	(unknown)  '+'
b3c7	50	(unknown)  'P'
b3c8	43	(unknown)  'C'
b3c9	00	(unknown)  '.'
b3ca	41	(unknown)  'A'
b3cb	2c	(unknown)  ','
b3cc	40	(unknown)  '@'
b3cd	41	(unknown)  'A'
b3ce	2b	(unknown)  '+'
b3cf	44	(unknown)  'D'
b3d0	50	(unknown)  'P'
b3d1	54	(unknown)  'T'
b3d2	52	(unknown)  'R'
b3d3	00	(unknown)  '.'
b3d4	41	(unknown)  'A'
b3d5	2c	(unknown)  ','
b3d6	40	(unknown)  '@'
b3d7	44	(unknown)  'D'
b3d8	50	(unknown)  'P'
b3d9	54	(unknown)  'T'
b3da	52	(unknown)  'R'
b3db	00	(unknown)  '.'
b3dc	40	(unknown)  '@'
b3dd	44	(unknown)  'D'
b3de	50	(unknown)  'P'
b3df	54	(unknown)  'T'
b3e0	52	(unknown)  'R'
b3e1	2c	(unknown)  ','
b3e2	41	(unknown)  'A'
b3e3	00	(unknown)  '.'
b3e4	44	(unknown)  'D'
b3e5	50	(unknown)  'P'
b3e6	54	(unknown)  'T'
b3e7	52	(unknown)  'R'
b3e8	00	(unknown)  '.'
b3e9	44	(unknown)  'D'
b3ea	50	(unknown)  'P'
b3eb	54	(unknown)  'T'
b3ec	52	(unknown)  'R'
b3ed	2c	(unknown)  ','
b3ee	23	(unknown)  '#'
b3ef	00	(unknown)  '.'
b3f0	00	(unknown)  '.'
b3f1	00	(unknown)  '.'
b3f2	20	(unknown)  ' '
b3f3	20	(unknown)  ' '
b3f4	2c	(unknown)  ','
b3f5	00	(unknown)  '.'
b3f6	20	(unknown)  ' '
b3f7	20	(unknown)  ' '
b3f8	2c	(unknown)  ','
b3f9	00	(unknown)  '.'
b3fa	41	(unknown)  'A'
b3fb	2c	(unknown)  ','
b3fc	20	(unknown)  ' '
b3fd	20	(unknown)  ' '
b3fe	2c	(unknown)  ','
b3ff	00	(unknown)  '.'
b400	41	(unknown)  'A'
b401	2c	(unknown)  ','
b402	23	(unknown)  '#'
b403	20	(unknown)  ' '
b404	20	(unknown)  ' '
b405	2c	(unknown)  ','
b406	00	(unknown)  '.'
b407	40	(unknown)  '@'
b408	30	(unknown)  '0'
b409	2c	(unknown)  ','
b40a	23	(unknown)  '#'
b40b	20	(unknown)  ' '
b40c	20	(unknown)  ' '
b40d	2c	(unknown)  ','
b40e	00	(unknown)  '.'
b40f	40	(unknown)  '@'
b410	31	(unknown)  '1'
b411	2c	(unknown)  ','
b412	23	(unknown)  '#'
b413	20	(unknown)  ' '
b414	20	(unknown)  ' '
b415	2c	(unknown)  ','
b416	00	(unknown)  '.'
b417	20	(unknown)  ' '
b418	20	(unknown)  ' '
b419	48	(unknown)  'H'
b41a	00	(unknown)  '.'
b41b	81	(unknown)  '.'
b41c	f1	(unknown)  '.'
b41d	81	(unknown)  '.'
b41e	f1	(unknown)  '.'
b41f	81	(unknown)  '.'
b420	f1	(unknown)  '.'
b421	81	(unknown)  '.'
b422	f1	(unknown)  '.'
b423	81	(unknown)  '.'
b424	f1	(unknown)  '.'
b425	81	(unknown)  '.'
b426	f1	(unknown)  '.'
b427	81	(unknown)  '.'
b428	f1	(unknown)  '.'
b429	81	(unknown)  '.'
b42a	f1	(unknown)  '.'
b42b	81	(unknown)  '.'
b42c	f1	(unknown)  '.'
b42d	81	(unknown)  '.'
b42e	f1	(unknown)  '.'
b42f	81	(unknown)  '.'
b430	f1	(unknown)  '.'
b431	81	(unknown)  '.'
b432	f1	(unknown)  '.'
b433	81	(unknown)  '.'
b434	f1	(unknown)  '.'
b435	81	(unknown)  '.'
b436	f1	(unknown)  '.'
b437	81	(unknown)  '.'
b438	f1	(unknown)  '.'
b439	81	(unknown)  '.'
b43a	f1	(unknown)  '.'
b43b	81	(unknown)  '.'
b43c	f1	(unknown)  '.'
b43d	81	(unknown)  '.'
b43e	f1	(unknown)  '.'
b43f	81	(unknown)  '.'
b440	f1	(unknown)  '.'
b441	81	(unknown)  '.'
b442	f1	(unknown)  '.'
b443	81	(unknown)  '.'
b444	f1	(unknown)  '.'
b445	81	(unknown)  '.'
b446	f1	(unknown)  '.'
b447	81	(unknown)  '.'
b448	f1	(unknown)  '.'
b449	81	(unknown)  '.'
b44a	f1	(unknown)  '.'
b44b	a1	(unknown)  '.'
b44c	15	(unknown)  '.'
b44d	a1	(unknown)  '.'
b44e	15	(unknown)  '.'
b44f	a1	(unknown)  '.'
b450	15	(unknown)  '.'
b451	a1	(unknown)  '.'
b452	15	(unknown)  '.'
b453	a1	(unknown)  '.'
b454	15	(unknown)  '.'
b455	a1	(unknown)  '.'
b456	15	(unknown)  '.'
b457	a1	(unknown)  '.'
b458	15	(unknown)  '.'
b459	a1	(unknown)  '.'
b45a	15	(unknown)  '.'
b45b	81	(unknown)  '.'
b45c	fc	(unknown)  '.'
b45d	81	(unknown)  '.'
b45e	fc	(unknown)  '.'
b45f	81	(unknown)  '.'
b460	fc	(unknown)  '.'
b461	81	(unknown)  '.'
b462	fc	(unknown)  '.'
b463	81	(unknown)  '.'
b464	fc	(unknown)  '.'
b465	81	(unknown)  '.'
b466	fc	(unknown)  '.'
b467	81	(unknown)  '.'
b468	fc	(unknown)  '.'
b469	81	(unknown)  '.'
b46a	fc	(unknown)  '.'
b46b	a1	(unknown)  '.'
b46c	15	(unknown)  '.'
b46d	a1	(unknown)  '.'
b46e	15	(unknown)  '.'
b46f	a1	(unknown)  '.'
b470	15	(unknown)  '.'
b471	a1	(unknown)  '.'
b472	15	(unknown)  '.'
b473	a1	(unknown)  '.'
b474	15	(unknown)  '.'
b475	a1	(unknown)  '.'
b476	15	(unknown)  '.'
b477	a1	(unknown)  '.'
b478	15	(unknown)  '.'
b479	a1	(unknown)  '.'
b47a	15	(unknown)  '.'
b47b	a1	(unknown)  '.'
b47c	db	(unknown)  '.'
b47d	a1	(unknown)  '.'
b47e	db	(unknown)  '.'
b47f	a1	(unknown)  '.'
b480	db	(unknown)  '.'
b481	a1	(unknown)  '.'
b482	db	(unknown)  '.'
b483	a1	(unknown)  '.'
b484	db	(unknown)  '.'
b485	a1	(unknown)  '.'
b486	db	(unknown)  '.'
b487	a1	(unknown)  '.'
b488	db	(unknown)  '.'
b489	a1	(unknown)  '.'
b48a	db	(unknown)  '.'
b48b	a1	(unknown)  '.'
b48c	96	(unknown)  '.'
b48d	a1	(unknown)  '.'
b48e	96	(unknown)  '.'
b48f	a1	(unknown)  '.'
b490	96	(unknown)  '.'
b491	a1	(unknown)  '.'
b492	96	(unknown)  '.'
b493	a1	(unknown)  '.'
b494	96	(unknown)  '.'
b495	a1	(unknown)  '.'
b496	96	(unknown)  '.'
b497	a1	(unknown)  '.'
b498	96	(unknown)  '.'
b499	a1	(unknown)  '.'
b49a	96	(unknown)  '.'
b49b	81	(unknown)  '.'
b49c	f1	(unknown)  '.'
b49d	81	(unknown)  '.'
b49e	f1	(unknown)  '.'
b49f	81	(unknown)  '.'
b4a0	f1	(unknown)  '.'
b4a1	81	(unknown)  '.'
b4a2	f1	(unknown)  '.'
b4a3	81	(unknown)  '.'
b4a4	f1	(unknown)  '.'
b4a5	a1	(unknown)  '.'
b4a6	15	(unknown)  '.'
b4a7	a1	(unknown)  '.'
b4a8	db	(unknown)  '.'
b4a9	a1	(unknown)  '.'
b4aa	15	(unknown)  '.'
b4ab	a1	(unknown)  '.'
b4ac	15	(unknown)  '.'
b4ad	81	(unknown)  '.'
b4ae	f1	(unknown)  '.'
b4af	81	(unknown)  '.'
b4b0	f1	(unknown)  '.'
b4b1	a1	(unknown)  '.'
b4b2	01	(unknown)  '.'
b4b3	a1	(unknown)  '.'
b4b4	3b	(unknown)  ';'
b4b5	a1	(unknown)  '.'
b4b6	6b	(unknown)  'k'
b4b7	81	(unknown)  '.'
b4b8	f7	(unknown)  '.'
b4b9	81	(unknown)  '.'
b4ba	f7	(unknown)  '.'
b4bb	81	(unknown)  '.'
b4bc	f1	(unknown)  '.'
b4bd	81	(unknown)  '.'
b4be	f1	(unknown)  '.'
b4bf	a1	(unknown)  '.'
b4c0	15	(unknown)  '.'
b4c1	a1	(unknown)  '.'
b4c2	15	(unknown)  '.'
b4c3	a1	(unknown)  '.'
b4c4	15	(unknown)  '.'
b4c5	a1	(unknown)  '.'
b4c6	15	(unknown)  '.'
b4c7	81	(unknown)  '.'
b4c8	f1	(unknown)  '.'
b4c9	a1	(unknown)  '.'
b4ca	15	(unknown)  '.'
b4cb	a1	(unknown)  '.'
b4cc	15	(unknown)  '.'
b4cd	a1	(unknown)  '.'
b4ce	15	(unknown)  '.'
b4cf	a1	(unknown)  '.'
b4d0	01	(unknown)  '.'
b4d1	81	(unknown)  '.'
b4d2	f1	(unknown)  '.'
b4d3	81	(unknown)  '.'
b4d4	f1	(unknown)  '.'
b4d5	81	(unknown)  '.'
b4d6	f1	(unknown)  '.'
b4d7	81	(unknown)  '.'
b4d8	f1	(unknown)  '.'
b4d9	81	(unknown)  '.'
b4da	f1	(unknown)  '.'
b4db	81	(unknown)  '.'
b4dc	f1	(unknown)  '.'
b4dd	a1	(unknown)  '.'
b4de	e1	(unknown)  '.'
b4df	a1	(unknown)  '.'
b4e0	f3	(unknown)  '.'
b4e1	a1	(unknown)  '.'
b4e2	e1	(unknown)  '.'
b4e3	a1	(unknown)  '.'
b4e4	96	(unknown)  '.'
b4e5	a1	(unknown)  '.'
b4e6	96	(unknown)  '.'
b4e7	a1	(unknown)  '.'
b4e8	96	(unknown)  '.'
b4e9	a1	(unknown)  '.'
b4ea	96	(unknown)  '.'
b4eb	a1	(unknown)  '.'
b4ec	96	(unknown)  '.'
b4ed	a1	(unknown)  '.'
b4ee	96	(unknown)  '.'
b4ef	a1	(unknown)  '.'
b4f0	21	(unknown)  '!'
b4f1	d0	(unknown)  '.'
b4f2	82	(unknown)  '.'
b4f3	d0	(unknown)  '.'
b4f4	83	(unknown)  '.'
b4f5	e1	(unknown)  '.'
b4f6	0b	(unknown)  '.'
b4f7	74	(unknown)  't'
b4f8	10	(unknown)  '.'
b4f9	12	(unknown)  '.'
b4fa	81	(unknown)  '.'
b4fb	06	(unknown)  '.'
b4fc	74	(unknown)  't'
b4fd	10	(unknown)  '.'
b4fe	12	(unknown)  '.'
b4ff	81	(unknown)  '.'
b500	06	(unknown)  '.'
b501	74	(unknown)  't'
b502	10	(unknown)  '.'
b503	12	(unknown)  '.'
b504	81	(unknown)  '.'
b505	06	(unknown)  '.'
b506	74	(unknown)  't'
b507	10	(unknown)  '.'
b508	12	(unknown)  '.'
b509	81	(unknown)  '.'
b50a	06	(unknown)  '.'
b50b	74	(unknown)  't'
b50c	10	(unknown)  '.'
b50d	12	(unknown)  '.'
b50e	81	(unknown)  '.'
b50f	06	(unknown)  '.'
b510	74	(unknown)  't'
b511	10	(unknown)  '.'
b512	12	(unknown)  '.'
b513	81	(unknown)  '.'
b514	06	(unknown)  '.'
b515	d0	(unknown)  '.'
b516	82	(unknown)  '.'
b517	d0	(unknown)  '.'
b518	83	(unknown)  '.'
b519	a3	(unknown)  '.'
b51a	e4	(unknown)  '.'
b51b	93	(unknown)  '.'
b51c	12	(unknown)  '.'
b51d	81	(unknown)  '.'
b51e	04	(unknown)  '.'
b51f	e1	(unknown)  '.'
b520	0b	(unknown)  '.'
b521	74	(unknown)  't'
b522	10	(unknown)  '.'
b523	12	(unknown)  '.'
b524	81	(unknown)  '.'
b525	06	(unknown)  '.'
b526	74	(unknown)  't'
b527	10	(unknown)  '.'
b528	12	(unknown)  '.'
b529	81	(unknown)  '.'
b52a	06	(unknown)  '.'
b52b	74	(unknown)  't'
b52c	10	(unknown)  '.'
b52d	12	(unknown)  '.'
b52e	81	(unknown)  '.'
b52f	06	(unknown)  '.'
b530	d0	(unknown)  '.'
b531	82	(unknown)  '.'
b532	d0	(unknown)  '.'
b533	83	(unknown)  '.'
b534	e4	(unknown)  '.'
b535	93	(unknown)  '.'
b536	12	(unknown)  '.'
b537	81	(unknown)  '.'
b538	04	(unknown)  '.'
b539	e1	(unknown)  '.'
b53a	0b	(unknown)  '.'
b53b	74	(unknown)  't'
b53c	10	(unknown)  '.'
b53d	12	(unknown)  '.'
b53e	81	(unknown)  '.'
b53f	06	(unknown)  '.'
b540	74	(unknown)  't'
b541	10	(unknown)  '.'
b542	12	(unknown)  '.'
b543	81	(unknown)  '.'
b544	06	(unknown)  '.'
b545	74	(unknown)  't'
b546	10	(unknown)  '.'
b547	12	(unknown)  '.'
b548	81	(unknown)  '.'
b549	06	(unknown)  '.'
b54a	74	(unknown)  't'
b54b	10	(unknown)  '.'
b54c	12	(unknown)  '.'
b54d	81	(unknown)  '.'
b54e	06	(unknown)  '.'
b54f	d0	(unknown)  '.'
b550	82	(unknown)  '.'
b551	d0	(unknown)  '.'
b552	83	(unknown)  '.'
b553	a3	(unknown)  '.'
b554	e4	(unknown)  '.'
b555	93	(unknown)  '.'
b556	12	(unknown)  '.'
b557	81	(unknown)  '.'
b558	04	(unknown)  '.'
b559	74	(unknown)  't'
b55a	14	(unknown)  '.'
b55b	12	(unknown)  '.'
b55c	81	(unknown)  '.'
b55d	06	(unknown)  '.'
b55e	74	(unknown)  't'
b55f	14	(unknown)  '.'
b560	12	(unknown)  '.'
b561	81	(unknown)  '.'
b562	06	(unknown)  '.'
b563	a3	(unknown)  '.'
b564	e4	(unknown)  '.'
b565	93	(unknown)  '.'
b566	12	(unknown)  '.'
b567	81	(unknown)  '.'
b568	04	(unknown)  '.'
b569	e1	(unknown)  '.'
b56a	0b	(unknown)  '.'
b56b	d0	(unknown)  '.'
b56c	82	(unknown)  '.'
b56d	d0	(unknown)  '.'
b56e	83	(unknown)  '.'
b56f	a3	(unknown)  '.'
b570	e4	(unknown)  '.'
b571	93	(unknown)  '.'
b572	12	(unknown)  '.'
b573	81	(unknown)  '.'
b574	04	(unknown)  '.'
b575	74	(unknown)  't'
b576	10	(unknown)  '.'
b577	12	(unknown)  '.'
b578	81	(unknown)  '.'
b579	06	(unknown)  '.'
b57a	74	(unknown)  't'
b57b	10	(unknown)  '.'
b57c	12	(unknown)  '.'
b57d	81	(unknown)  '.'
b57e	06	(unknown)  '.'
b57f	74	(unknown)  't'
b580	10	(unknown)  '.'
b581	12	(unknown)  '.'
b582	81	(unknown)  '.'
b583	06	(unknown)  '.'
b584	74	(unknown)  't'
b585	10	(unknown)  '.'
b586	12	(unknown)  '.'
b587	81	(unknown)  '.'
b588	06	(unknown)  '.'
b589	74	(unknown)  't'
b58a	10	(unknown)  '.'
b58b	12	(unknown)  '.'
b58c	81	(unknown)  '.'
b58d	06	(unknown)  '.'
b58e	a3	(unknown)  '.'
b58f	e4	(unknown)  '.'
b590	93	(unknown)  '.'
b591	12	(unknown)  '.'
b592	81	(unknown)  '.'
b593	04	(unknown)  '.'
b594	e1	(unknown)  '.'
b595	0b	(unknown)  '.'
b596	74	(unknown)  't'
b597	10	(unknown)  '.'
b598	12	(unknown)  '.'
b599	81	(unknown)  '.'
b59a	06	(unknown)  '.'
b59b	74	(unknown)  't'
b59c	10	(unknown)  '.'
b59d	12	(unknown)  '.'
b59e	81	(unknown)  '.'
b59f	06	(unknown)  '.'
b5a0	74	(unknown)  't'
b5a1	10	(unknown)  '.'
b5a2	12	(unknown)  '.'
b5a3	81	(unknown)  '.'
b5a4	06	(unknown)  '.'
b5a5	d0	(unknown)  '.'
b5a6	82	(unknown)  '.'
b5a7	d0	(unknown)  '.'
b5a8	83	(unknown)  '.'
b5a9	a3	(unknown)  '.'
b5aa	e4	(unknown)  '.'
b5ab	93	(unknown)  '.'
b5ac	12	(unknown)  '.'
b5ad	81	(unknown)  '.'
b5ae	04	(unknown)  '.'
b5af	74	(unknown)  't'
b5b0	14	(unknown)  '.'
b5b1	12	(unknown)  '.'
b5b2	81	(unknown)  '.'
b5b3	06	(unknown)  '.'
b5b4	a3	(unknown)  '.'
b5b5	e4	(unknown)  '.'
b5b6	93	(unknown)  '.'
b5b7	c0	(unknown)  '.'
b5b8	83	(unknown)  '.'
b5b9	c0	(unknown)  '.'
b5ba	82	(unknown)  '.'
b5bb	a3	(unknown)  '.'
b5bc	75	(unknown)  'u'
b5bd	f0	(unknown)  '.'
b5be	00	(unknown)  '.'
b5bf	30	(unknown)  '0'
b5c0	e7	(unknown)  '.'
b5c1	03	(unknown)  '.'
b5c2	75	(unknown)  'u'
b5c3	f0	(unknown)  '.'
b5c4	ff	(unknown)  '.'
b5c5	25	(unknown)  '%'
b5c6	82	(unknown)  '.'
b5c7	f5	(unknown)  '.'
b5c8	82	(unknown)  '.'
b5c9	e5	(unknown)  '.'
b5ca	f0	(unknown)  '.'
b5cb	35	(unknown)  '5'
b5cc	83	(unknown)  '.'
b5cd	12	(unknown)  '.'
b5ce	81	(unknown)  '.'
b5cf	04	(unknown)  '.'
b5d0	e5	(unknown)  '.'
b5d1	82	(unknown)  '.'
b5d2	12	(unknown)  '.'
b5d3	81	(unknown)  '.'
b5d4	04	(unknown)  '.'
b5d5	d0	(unknown)  '.'
b5d6	82	(unknown)  '.'
b5d7	d0	(unknown)  '.'
b5d8	83	(unknown)  '.'
b5d9	e1	(unknown)  '.'
b5da	0b	(unknown)  '.'
b5db	d0	(unknown)  '.'
b5dc	82	(unknown)  '.'
b5dd	d0	(unknown)  '.'
b5de	83	(unknown)  '.'
b5df	80	(unknown)  '.'
b5e0	d3	(unknown)  '.'
b5e1	d0	(unknown)  '.'
b5e2	82	(unknown)  '.'
b5e3	d0	(unknown)  '.'
b5e4	83	(unknown)  '.'
b5e5	a3	(unknown)  '.'
b5e6	e4	(unknown)  '.'
b5e7	93	(unknown)  '.'
b5e8	12	(unknown)  '.'
b5e9	81	(unknown)  '.'
b5ea	04	(unknown)  '.'
b5eb	a3	(unknown)  '.'
b5ec	e4	(unknown)  '.'
b5ed	93	(unknown)  '.'
b5ee	12	(unknown)  '.'
b5ef	81	(unknown)  '.'
b5f0	04	(unknown)  '.'
b5f1	e1	(unknown)  '.'
b5f2	0b	(unknown)  '.'
b5f3	d0	(unknown)  '.'
b5f4	82	(unknown)  '.'
b5f5	d0	(unknown)  '.'
b5f6	83	(unknown)  '.'
b5f7	e4	(unknown)  '.'
b5f8	93	(unknown)  '.'
b5f9	54	(unknown)  'T'
b5fa	e0	(unknown)  '.'
b5fb	23	(unknown)  '#'
b5fc	23	(unknown)  '#'
b5fd	23	(unknown)  '#'
b5fe	f5	(unknown)  '.'
b5ff	f0	(unknown)  '.'
b600	e5	(unknown)  '.'
b601	83	(unknown)  '.'
b602	54	(unknown)  'T'
b603	f8	(unknown)  '.'
b604	25	(unknown)  '%'
b605	f0	(unknown)  '.'
b606	12	(unknown)  '.'
b607	81	(unknown)  '.'
b608	04	(unknown)  '.'
b609	a3	(unknown)  '.'
b60a	e4	(unknown)  '.'
b60b	93	(unknown)  '.'
b60c	12	(unknown)  '.'
b60d	81	(unknown)  '.'
b60e	04	(unknown)  '.'
b60f	e1	(unknown)  '.'
b610	0b	(unknown)  '.'
b611	c0	(unknown)  '.'
b612	e0	(unknown)  '.'
b613	c0	(unknown)  '.'
b614	d0	(unknown)  '.'
b615	c0	(unknown)  '.'
b616	f0	(unknown)  '.'
b617	c0	(unknown)  '.'
b618	83	(unknown)  '.'
b619	c0	(unknown)  '.'
b61a	82	(unknown)  '.'
b61b	e8	(unknown)  '.'
b61c	c0	(unknown)  '.'
b61d	e0	(unknown)  '.'
b61e	e5	(unknown)  '.'
b61f	81	(unknown)  '.'
b620	c3	(unknown)  '.'
b621	94	(unknown)  '.'
b622	07	(unknown)  '.'
b623	f8	(unknown)  '.'
b624	86	(unknown)  '.'
b625	f0	(unknown)  '.'
b626	90	(unknown)  '.'
b627	77	(unknown)  'w'
b628	95	(unknown)  '.'
b629	e0	(unknown)  '.'
b62a	b5	(unknown)  '.'
b62b	f0	(unknown)  '.'
b62c	18	(unknown)  '.'
b62d	08	(unknown)  '.'
b62e	86	(unknown)  '.'
b62f	f0	(unknown)  '.'
b630	a3	(unknown)  '.'
b631	e0	(unknown)  '.'
b632	b5	(unknown)  '.'
b633	f0	(unknown)  '.'
b634	10	(unknown)  '.'
b635	90	(unknown)  '.'
b636	00	(unknown)  '.'
b637	03	(unknown)  '.'
b638	74	(unknown)  't'
b639	02	(unknown)  '.'
b63a	f0	(unknown)  '.'
b63b	a3	(unknown)  '.'
b63c	74	(unknown)  't'
b63d	b6	(unknown)  '.'
b63e	f0	(unknown)  '.'
b63f	a3	(unknown)  '.'
b640	74	(unknown)  't'
b641	53	(unknown)  'S'
b642	f0	(unknown)  '.'
b643	80	(unknown)  '.'
b644	1b	(unknown)  '.'
b645	d0	(unknown)  '.'
b646	e0	(unknown)  '.'
b647	f8	(unknown)  '.'
b648	d0	(unknown)  '.'
b649	82	(unknown)  '.'
b64a	d0	(unknown)  '.'
b64b	83	(unknown)  '.'
b64c	d0	(unknown)  '.'
b64d	f0	(unknown)  '.'
b64e	d0	(unknown)  '.'
b64f	d0	(unknown)  '.'
b650	d0	(unknown)  '.'
b651	e0	(unknown)  '.'
b652	32	(unknown)  '2'
b653	c0	(unknown)  '.'
b654	e0	(unknown)  '.'
b655	c0	(unknown)  '.'
b656	d0	(unknown)  '.'
b657	c0	(unknown)  '.'
b658	f0	(unknown)  '.'
b659	c0	(unknown)  '.'
b65a	83	(unknown)  '.'
b65b	c0	(unknown)  '.'
b65c	82	(unknown)  '.'
b65d	e8	(unknown)  '.'
b65e	c0	(unknown)  '.'
b65f	e0	(unknown)  '.'
b660	e5	(unknown)  '.'
b661	81	(unknown)  '.'
b662	c3	(unknown)  '.'
b663	94	(unknown)  '.'
b664	09	(unknown)  '.'
b665	f8	(unknown)  '.'
b666	e6	(unknown)  '.'
b667	90	(unknown)  '.'
b668	77	(unknown)  'w'
b669	85	(unknown)  '.'
b66a	f0	(unknown)  '.'
b66b	08	(unknown)  '.'
b66c	e6	(unknown)  '.'
b66d	90	(unknown)  '.'
b66e	77	(unknown)  'w'
b66f	84	(unknown)  '.'
b670	f0	(unknown)  '.'
b671	e8	(unknown)  '.'
b672	90	(unknown)  '.'
b673	77	(unknown)  'w'
b674	83	(unknown)  '.'
b675	f0	(unknown)  '.'
b676	08	(unknown)  '.'
b677	86	(unknown)  '.'
b678	82	(unknown)  '.'
b679	08	(unknown)  '.'
b67a	86	(unknown)  '.'
b67b	83	(unknown)  '.'
b67c	12	(unknown)  '.'
b67d	81	(unknown)  '.'
b67e	0c	(unknown)  '.'
b67f	74	(unknown)  't'
b680	0c	(unknown)  '.'
b681	12	(unknown)  '.'
b682	81	(unknown)  '.'
b683	06	(unknown)  '.'
b684	e5	(unknown)  '.'
b685	83	(unknown)  '.'
b686	12	(unknown)  '.'
b687	81	(unknown)  '.'
b688	04	(unknown)  '.'
b689	e5	(unknown)  '.'
b68a	82	(unknown)  '.'
b68b	12	(unknown)  '.'
b68c	81	(unknown)  '.'
b68d	04	(unknown)  '.'
b68e	74	(unknown)  't'
b68f	3a	(unknown)  ':'
b690	12	(unknown)  '.'
b691	81	(unknown)  '.'
b692	02	(unknown)  '.'
b693	c0	(unknown)  '.'
b694	83	(unknown)  '.'
b695	c0	(unknown)  '.'
b696	82	(unknown)  '.'
b697	08	(unknown)  '.'
b698	e6	(unknown)  '.'
b699	90	(unknown)  '.'
b69a	77	(unknown)  'w'
b69b	81	(unknown)  '.'
b69c	f0	(unknown)  '.'
b69d	08	(unknown)  '.'
b69e	e6	(unknown)  '.'
b69f	90	(unknown)  '.'
b6a0	77	(unknown)  'w'
b6a1	82	(unknown)  '.'
b6a2	f0	(unknown)  '.'
b6a3	08	(unknown)  '.'
b6a4	e6	(unknown)  '.'
b6a5	90	(unknown)  '.'
b6a6	77	(unknown)  'w'
b6a7	86	(unknown)  '.'
b6a8	f0	(unknown)  '.'
b6a9	08	(unknown)  '.'
b6aa	e6	(unknown)  '.'
b6ab	90	(unknown)  '.'
b6ac	77	(unknown)  'w'
b6ad	87	(unknown)  '.'
b6ae	f0	(unknown)  '.'
b6af	08	(unknown)  '.'
b6b0	e6	(unknown)  '.'
b6b1	90	(unknown)  '.'
b6b2	77	(unknown)  'w'
b6b3	90	(unknown)  '.'
b6b4	f0	(unknown)  '.'
b6b5	08	(unknown)  '.'
b6b6	e6	(unknown)  '.'
b6b7	90	(unknown)  '.'
b6b8	77	(unknown)  'w'
b6b9	88	(unknown)  '.'
b6ba	f0	(unknown)  '.'
b6bb	e9	(unknown)  '.'
b6bc	90	(unknown)  '.'
b6bd	77	(unknown)  'w'
b6be	89	(unknown)  '.'
b6bf	f0	(unknown)  '.'
b6c0	ea	(unknown)  '.'
b6c1	90	(unknown)  '.'
b6c2	77	(unknown)  'w'
b6c3	8a	(unknown)  '.'
b6c4	f0	(unknown)  '.'
b6c5	eb	(unknown)  '.'
b6c6	90	(unknown)  '.'
b6c7	77	(unknown)  'w'
b6c8	8b	(unknown)  '.'
b6c9	f0	(unknown)  '.'
b6ca	ec	(unknown)  '.'
b6cb	90	(unknown)  '.'
b6cc	77	(unknown)  'w'
b6cd	8c	(unknown)  '.'
b6ce	f0	(unknown)  '.'
b6cf	ed	(unknown)  '.'
b6d0	90	(unknown)  '.'
b6d1	77	(unknown)  'w'
b6d2	8d	(unknown)  '.'
b6d3	f0	(unknown)  '.'
b6d4	ee	(unknown)  '.'
b6d5	90	(unknown)  '.'
b6d6	77	(unknown)  'w'
b6d7	8e	(unknown)  '.'
b6d8	f0	(unknown)  '.'
b6d9	ef	(unknown)  '.'
b6da	90	(unknown)  '.'
b6db	77	(unknown)  'w'
b6dc	8f	(unknown)  '.'
b6dd	f0	(unknown)  '.'
b6de	74	(unknown)  't'
b6df	c0	(unknown)  '.'
b6e0	12	(unknown)  '.'
b6e1	81	(unknown)  '.'
b6e2	06	(unknown)  '.'
b6e3	d0	(unknown)  '.'
b6e4	82	(unknown)  '.'
b6e5	d0	(unknown)  '.'
b6e6	83	(unknown)  '.'
b6e7	e4	(unknown)  '.'
b6e8	93	(unknown)  '.'
b6e9	c0	(unknown)  '.'
b6ea	83	(unknown)  '.'
b6eb	c0	(unknown)  '.'
b6ec	82	(unknown)  '.'
b6ed	c0	(unknown)  '.'
b6ee	e0	(unknown)  '.'
b6ef	11	(unknown)  '.'
b6f0	00	(unknown)  '.'
b6f1	90	(unknown)  '.'
b6f2	94	(unknown)  '.'
b6f3	54	(unknown)  'T'
b6f4	12	(unknown)  '.'
b6f5	92	(unknown)  '.'
b6f6	05	(unknown)  '.'
b6f7	74	(unknown)  't'
b6f8	20	(unknown)  ' '
b6f9	12	(unknown)  '.'
b6fa	81	(unknown)  '.'
b6fb	02	(unknown)  '.'
b6fc	d0	(unknown)  '.'
b6fd	e0	(unknown)  '.'
b6fe	31	(unknown)  '1'
b6ff	05	(unknown)  '.'
b700	c0	(unknown)  '.'
b701	e0	(unknown)  '.'
b702	f1	(unknown)  '.'
b703	c1	(unknown)  '.'
b704	d0	(unknown)  '.'
b705	e0	(unknown)  '.'
b706	23	(unknown)  '#'
b707	90	(unknown)  '.'
b708	b4	(unknown)  '.'
b709	1b	(unknown)  '.'
b70a	73	(unknown)  's'
b70b	a3	(unknown)  '.'
b70c	e5	(unknown)  '.'
b70d	82	(unknown)  '.'
b70e	a8	(unknown)  '.'
b70f	83	(unknown)  '.'
b710	90	(unknown)  '.'
b711	77	(unknown)  'w'
b712	95	(unknown)  '.'
b713	f0	(unknown)  '.'
b714	a3	(unknown)  '.'
b715	e8	(unknown)  '.'
b716	f0	(unknown)  '.'
b717	90	(unknown)  '.'
b718	77	(unknown)  'w'
b719	80	(unknown)  '.'
b71a	e0	(unknown)  '.'
b71b	f8	(unknown)  '.'
b71c	e8	(unknown)  '.'
b71d	75	(unknown)  'u'
b71e	f0	(unknown)  '.'
b71f	0c	(unknown)  '.'
b720	a4	(unknown)  '.'
b721	90	(unknown)  '.'
b722	b7	(unknown)  '.'
b723	d4	(unknown)  '.'
b724	25	(unknown)  '%'
b725	82	(unknown)  '.'
b726	f5	(unknown)  '.'
b727	82	(unknown)  '.'
b728	50	(unknown)  'P'
b729	02	(unknown)  '.'
b72a	05	(unknown)  '.'
b72b	83	(unknown)  '.'
b72c	74	(unknown)  't'
b72d	85	(unknown)  '.'
b72e	12	(unknown)  '.'
b72f	81	(unknown)  '.'
b730	06	(unknown)  '.'
b731	12	(unknown)  '.'
b732	81	(unknown)  '.'
b733	00	(unknown)  '.'
b734	74	(unknown)  't'
b735	8c	(unknown)  '.'
b736	12	(unknown)  '.'
b737	81	(unknown)  '.'
b738	06	(unknown)  '.'
b739	e8	(unknown)  '.'
b73a	90	(unknown)  '.'
b73b	77	(unknown)  'w'
b73c	81	(unknown)  '.'
b73d	25	(unknown)  '%'
b73e	82	(unknown)  '.'
b73f	f5	(unknown)  '.'
b740	82	(unknown)  '.'
b741	50	(unknown)  'P'
b742	02	(unknown)  '.'
b743	05	(unknown)  '.'
b744	83	(unknown)  '.'
b745	e0	(unknown)  '.'
b746	12	(unknown)  '.'
b747	81	(unknown)  '.'
b748	04	(unknown)  '.'
b749	b8	(unknown)  '.'
b74a	06	(unknown)  '.'
b74b	07	(unknown)  '.'
b74c	90	(unknown)  '.'
b74d	77	(unknown)  'w'
b74e	90	(unknown)  '.'
b74f	e0	(unknown)  '.'
b750	12	(unknown)  '.'
b751	81	(unknown)  '.'
b752	04	(unknown)  '.'
b753	12	(unknown)  '.'
b754	88	(unknown)  '.'
b755	e0	(unknown)  '.'
b756	b4	(unknown)  '.'
b757	0a	(unknown)  '.'
b758	06	(unknown)  '.'
b759	e8	(unknown)  '.'
b75a	60	(unknown)  '`'
b75b	f7	(unknown)  '.'
b75c	18	(unknown)  '.'
b75d	80	(unknown)  '.'
b75e	bd	(unknown)  '.'
b75f	b4	(unknown)  '.'
b760	0b	(unknown)  '.'
b761	07	(unknown)  '.'
b762	08	(unknown)  '.'
b763	b8	(unknown)  '.'
b764	0f	(unknown)  '.'
b765	b6	(unknown)  '.'
b766	18	(unknown)  '.'
b767	80	(unknown)  '.'
b768	ea	(unknown)  '.'
b769	b4	(unknown)  '.'
b76a	0f	(unknown)  '.'
b76b	13	(unknown)  '.'
b76c	90	(unknown)  '.'
b76d	77	(unknown)  'w'
b76e	80	(unknown)  '.'
b76f	e8	(unknown)  '.'
b770	f0	(unknown)  '.'
b771	d0	(unknown)  '.'
b772	e0	(unknown)  '.'
b773	f8	(unknown)  '.'
b774	d0	(unknown)  '.'
b775	82	(unknown)  '.'
b776	d0	(unknown)  '.'
b777	83	(unknown)  '.'
b778	d0	(unknown)  '.'
b779	f0	(unknown)  '.'
b77a	d0	(unknown)  '.'
b77b	d0	(unknown)  '.'
b77c	d0	(unknown)  '.'
b77d	e0	(unknown)  '.'
b77e	32	(unknown)  '2'
b77f	b4	(unknown)  '.'
b780	0d	(unknown)  '.'
b781	d1	(unknown)  '.'
b782	90	(unknown)  '.'
b783	77	(unknown)  'w'
b784	80	(unknown)  '.'
b785	e8	(unknown)  '.'
b786	f0	(unknown)  '.'
b787	90	(unknown)  '.'
b788	00	(unknown)  '.'
b789	03	(unknown)  '.'
b78a	74	(unknown)  't'
b78b	02	(unknown)  '.'
b78c	f0	(unknown)  '.'
b78d	a3	(unknown)  '.'
b78e	74	(unknown)  't'
b78f	b6	(unknown)  '.'
b790	f0	(unknown)  '.'
b791	a3	(unknown)  '.'
b792	74	(unknown)  't'
b793	11	(unknown)  '.'
b794	f0	(unknown)  '.'
b795	74	(unknown)  't'
b796	85	(unknown)  '.'
b797	12	(unknown)  '.'
b798	81	(unknown)  '.'
b799	06	(unknown)  '.'
b79a	90	(unknown)  '.'
b79b	b8	(unknown)  '.'
b79c	88	(unknown)  '.'
b79d	12	(unknown)  '.'
b79e	81	(unknown)  '.'
b79f	00	(unknown)  '.'
b7a0	90	(unknown)  '.'
b7a1	77	(unknown)  'w'
b7a2	96	(unknown)  '.'
b7a3	e0	(unknown)  '.'
b7a4	12	(unknown)  '.'
b7a5	81	(unknown)  '.'
b7a6	04	(unknown)  '.'
b7a7	90	(unknown)  '.'
b7a8	77	(unknown)  'w'
b7a9	95	(unknown)  '.'
b7aa	e0	(unknown)  '.'
b7ab	12	(unknown)  '.'
b7ac	81	(unknown)  '.'
b7ad	04	(unknown)  '.'
b7ae	74	(unknown)  't'
b7af	20	(unknown)  ' '
b7b0	12	(unknown)  '.'
b7b1	81	(unknown)  '.'
b7b2	02	(unknown)  '.'
b7b3	d0	(unknown)  '.'
b7b4	e0	(unknown)  '.'
b7b5	f8	(unknown)  '.'
b7b6	d0	(unknown)  '.'
b7b7	82	(unknown)  '.'
b7b8	d0	(unknown)  '.'
b7b9	83	(unknown)  '.'
b7ba	d0	(unknown)  '.'
b7bb	f0	(unknown)  '.'
b7bc	d0	(unknown)  '.'
b7bd	d0	(unknown)  '.'
b7be	d0	(unknown)  '.'
b7bf	e0	(unknown)  '.'
b7c0	32	(unknown)  '2'
b7c1	90	(unknown)  '.'
b7c2	b2	(unknown)  '.'
b7c3	0a	(unknown)  '.'
b7c4	60	(unknown)  '`'
b7c5	0a	(unknown)  '.'
b7c6	f5	(unknown)  '.'
b7c7	f0	(unknown)  '.'
b7c8	e4	(unknown)  '.'
b7c9	93	(unknown)  '.'
b7ca	a3	(unknown)  '.'
b7cb	70	(unknown)  'p'
b7cc	fb	(unknown)  '.'
b7cd	d5	(unknown)  '.'
b7ce	f0	(unknown)  '.'
b7cf	f8	(unknown)  '.'
b7d0	12	(unknown)  '.'
b7d1	81	(unknown)  '.'
b7d2	00	(unknown)  '.'
b7d3	22	(unknown)  '"'
b7d4	20	(unknown)  ' '
b7d5	41	(unknown)  'A'
b7d6	43	(unknown)  'C'
b7d7	43	(unknown)  'C'
b7d8	20	(unknown)  ' '
b7d9	3d	(unknown)  '='
b7da	20	(unknown)  ' '
b7db	20	(unknown)  ' '
b7dc	20	(unknown)  ' '
b7dd	20	(unknown)  ' '
b7de	20	(unknown)  ' '
b7df	00	(unknown)  '.'
b7e0	20	(unknown)  ' '
b7e1	50	(unknown)  'P'
b7e2	53	(unknown)  'S'
b7e3	57	(unknown)  'W'
b7e4	20	(unknown)  ' '
b7e5	3d	(unknown)  '='
b7e6	20	(unknown)  ' '
b7e7	20	(unknown)  ' '
b7e8	20	(unknown)  ' '
b7e9	20	(unknown)  ' '
b7ea	20	(unknown)  ' '
b7eb	00	(unknown)  '.'
b7ec	20	(unknown)  ' '
b7ed	20	(unknown)  ' '
b7ee	53	(unknown)  'S'
b7ef	50	(unknown)  'P'
b7f0	20	(unknown)  ' '
b7f1	3d	(unknown)  '='
b7f2	20	(unknown)  ' '
b7f3	20	(unknown)  ' '
b7f4	20	(unknown)  ' '
b7f5	20	(unknown)  ' '
b7f6	20	(unknown)  ' '
b7f7	00	(unknown)  '.'
b7f8	20	(unknown)  ' '
b7f9	28	(unknown)  '('
b7fa	53	(unknown)  'S'
b7fb	50	(unknown)  'P'
b7fc	29	(unknown)  ')'
b7fd	3d	(unknown)  '='
b7fe	20	(unknown)  ' '
b7ff	20	(unknown)  ' '
b800	20	(unknown)  ' '
b801	20	(unknown)  ' '
b802	20	(unknown)  ' '
b803	00	(unknown)  '.'
b804	28	(unknown)  '('
b805	53	(unknown)  'S'
b806	50	(unknown)  'P'
b807	2d	(unknown)  '-'
b808	31	(unknown)  '1'
b809	29	(unknown)  ')'
b80a	3d	(unknown)  '='
b80b	20	(unknown)  ' '
b80c	20	(unknown)  ' '
b80d	20	(unknown)  ' '
b80e	20	(unknown)  ' '
b80f	00	(unknown)  '.'
b810	20	(unknown)  ' '
b811	20	(unknown)  ' '
b812	20	(unknown)  ' '
b813	42	(unknown)  'B'
b814	20	(unknown)  ' '
b815	3d	(unknown)  '='
b816	20	(unknown)  ' '
b817	20	(unknown)  ' '
b818	20	(unknown)  ' '
b819	20	(unknown)  ' '
b81a	20	(unknown)  ' '
b81b	00	(unknown)  '.'
b81c	20	(unknown)  ' '
b81d	44	(unknown)  'D'
b81e	50	(unknown)  'P'
b81f	54	(unknown)  'T'
b820	52	(unknown)  'R'
b821	3d	(unknown)  '='
b822	20	(unknown)  ' '
b823	20	(unknown)  ' '
b824	20	(unknown)  ' '
b825	20	(unknown)  ' '
b826	20	(unknown)  ' '
b827	00	(unknown)  '.'
b828	20	(unknown)  ' '
b829	20	(unknown)  ' '
b82a	52	(unknown)  'R'
b82b	30	(unknown)  '0'
b82c	20	(unknown)  ' '
b82d	3d	(unknown)  '='
b82e	20	(unknown)  ' '
b82f	20	(unknown)  ' '
b830	20	(unknown)  ' '
b831	20	(unknown)  ' '
b832	20	(unknown)  ' '
b833	00	(unknown)  '.'
b834	20	(unknown)  ' '
b835	20	(unknown)  ' '
b836	52	(unknown)  'R'
b837	31	(unknown)  '1'
b838	20	(unknown)  ' '
b839	3d	(unknown)  '='
b83a	20	(unknown)  ' '
b83b	20	(unknown)  ' '
b83c	20	(unknown)  ' '
b83d	20	(unknown)  ' '
b83e	20	(unknown)  ' '
b83f	00	(unknown)  '.'
b840	20	(unknown)  ' '
b841	20	(unknown)  ' '
b842	52	(unknown)  'R'
b843	32	(unknown)  '2'
b844	20	(unknown)  ' '
b845	3d	(unknown)  '='
b846	20	(unknown)  ' '
b847	20	(unknown)  ' '
b848	20	(unknown)  ' '
b849	20	(unknown)  ' '
b84a	20	(unknown)  ' '
b84b	00	(unknown)  '.'
b84c	20	(unknown)  ' '
b84d	20	(unknown)  ' '
b84e	52	(unknown)  'R'
b84f	33	(unknown)  '3'
b850	20	(unknown)  ' '
b851	3d	(unknown)  '='
b852	20	(unknown)  ' '
b853	20	(unknown)  ' '
b854	20	(unknown)  ' '
b855	20	(unknown)  ' '
b856	20	(unknown)  ' '
b857	00	(unknown)  '.'
b858	20	(unknown)  ' '
b859	20	(unknown)  ' '
b85a	52	(unknown)  'R'
b85b	34	(unknown)  '4'
b85c	20	(unknown)  ' '
b85d	3d	(unknown)  '='
b85e	20	(unknown)  ' '
b85f	20	(unknown)  ' '
b860	20	(unknown)  ' '
b861	20	(unknown)  ' '
b862	20	(unknown)  ' '
b863	00	(unknown)  '.'
b864	20	(unknown)  ' '
b865	20	(unknown)  ' '
b866	52	(unknown)  'R'
b867	35	(unknown)  '5'
b868	20	(unknown)  ' '
b869	3d	(unknown)  '='
b86a	20	(unknown)  ' '
b86b	20	(unknown)  ' '
b86c	20	(unknown)  ' '
b86d	20	(unknown)  ' '
b86e	20	(unknown)  ' '
b86f	00	(unknown)  '.'
b870	20	(unknown)  ' '
b871	20	(unknown)  ' '
b872	52	(unknown)  'R'
b873	36	(unknown)  '6'
b874	20	(unknown)  ' '
b875	3d	(unknown)  '='
b876	20	(unknown)  ' '
b877	20	(unknown)  ' '
b878	20	(unknown)  ' '
b879	20	(unknown)  ' '
b87a	20	(unknown)  ' '
b87b	00	(unknown)  '.'
b87c	20	(unknown)  ' '
b87d	20	(unknown)  ' '
b87e	52	(unknown)  'R'
b87f	37	(unknown)  '7'
b880	20	(unknown)  ' '
b881	3d	(unknown)  '='
b882	20	(unknown)  ' '
b883	20	(unknown)  ' '
b884	20	(unknown)  ' '
b885	20	(unknown)  ' '
b886	20	(unknown)  ' '
b887	00	(unknown)  '.'
b888	20	(unknown)  ' '
b889	47	(unknown)  'G'
b88a	4f	(unknown)  'O'
b88b	54	(unknown)  'T'
b88c	4f	(unknown)  'O'
b88d	20	(unknown)  ' '
b88e	00	(unknown)  '.'
b88f	c2 af   			clr EA
b891	12 82 b9			lcall $ 82b9h
b894	90 00 03			mov DPTR, # 0003 (3)
b897	74 02   			mov A, # 02h
b899	f0      			movx @DPTR, A
b89a	a3      			inc DPTR
b89b	74 bd   			mov A, # bdh
b89d	f0      			movx @DPTR, A
b89e	a3      			inc DPTR
b89f	74 80   			mov A, # 80h
b8a1	f0      			movx @DPTR, A
b8a2	90 7f 0f			mov DPTR, # 7f0f (32527)
b8a5	7a 05   			mov R2, # 05h
b8a7	7b 01   			mov R3, # 01h
b8a9	eb      			mov A, R3
b8aa	f1 4a   			acall $ 074ah (bf4a)
b8ac	f0      			movx @DPTR, A
b8ad	a3      			inc DPTR
b8ae	0b      			inc R3
b8af	da f8   			djnz R2, $ -08h (b8a9)
b8b1	12 88 07			lcall $ 8807h
b8b4	75 81 07			mov SP, # 07h
b8b7	43 87 80			orl PCON, # 80h
b8ba	75 98 50			mov SCON, # 50h
b8bd	75 89 20			mov TMOD, # 20h
b8c0	75 8b ff			mov TL1, # ffh
b8c3	75 8d ff			mov TH1, # ffh
b8c6	d2 8e   			setb TR1
b8c8	d2 9c   			setb 0x9c
b8ca	75 99 06			mov SBUF, # 06h
b8cd	79 40   			mov R1, # 40h
b8cf	f3      			movx @R1, A
b8d0	e4      			clr A
b8d1	f5 d0   			mov PSW, A
b8d3	c2 88   			clr 0x88
b8d5	d2 a8   			setb 0xa8
b8d7	d2 af   			setb EA
b8d9	c2 b2   			clr 0xb2
b8db	02 00 00			ljmp $ 0000h
b8de	30	(unknown)  '0'
b8df	99	(unknown)  '.'
b8e0	fd	(unknown)  '.'
b8e1	c2	(unknown)  '.'
b8e2	99	(unknown)  '.'
b8e3	75	(unknown)  'u'
b8e4	99	(unknown)  '.'
b8e5	15	(unknown)  '.'
b8e6	c2	(unknown)  '.'
b8e7	98	(unknown)  '.'
b8e8	30	(unknown)  '0'
b8e9	98	(unknown)  '.'
b8ea	fd	(unknown)  '.'
b8eb	c2	(unknown)  '.'
b8ec	98	(unknown)  '.'
b8ed	e5	(unknown)  '.'
b8ee	99	(unknown)  '.'
b8ef	b4	(unknown)  '.'
b8f0	73	(unknown)  's'
b8f1	36	(unknown)  '6'
b8f2	30	(unknown)  '0'
b8f3	98	(unknown)  '.'
b8f4	fd	(unknown)  '.'
b8f5	c2	(unknown)  '.'
b8f6	98	(unknown)  '.'
b8f7	25	(unknown)  '%'
b8f8	99	(unknown)  '.'
b8f9	70	(unknown)  'p'
b8fa	e3	(unknown)  '.'
b8fb	90	(unknown)  '.'
b8fc	00	(unknown)  '.'
b8fd	03	(unknown)  '.'
b8fe	74	(unknown)  't'
b8ff	02	(unknown)  '.'
b900	f0	(unknown)  '.'
b901	a3	(unknown)  '.'
b902	74	(unknown)  't'
b903	bd	(unknown)  '.'
b904	f0	(unknown)  '.'
b905	a3	(unknown)  '.'
b906	74	(unknown)  't'
b907	98	(unknown)  '.'
b908	f0	(unknown)  '.'
b909	90	(unknown)  '.'
b90a	7f	(unknown)  '.'
b90b	05	(unknown)  '.'
b90c	e0	(unknown)  '.'
b90d	f8	(unknown)  '.'
b90e	a3	(unknown)  '.'
b90f	e0	(unknown)  '.'
b910	f9	(unknown)  '.'
b911	90	(unknown)  '.'
b912	7f	(unknown)  '.'
b913	04	(unknown)  '.'
b914	e0	(unknown)  '.'
b915	f5	(unknown)  '.'
b916	d0	(unknown)  '.'
b917	90	(unknown)  '.'
b918	7f	(unknown)  '.'
b919	03	(unknown)  '.'
b91a	e0	(unknown)  '.'
b91b	d0	(unknown)  '.'
b91c	82	(unknown)  '.'
b91d	d0	(unknown)  '.'
b91e	83	(unknown)  '.'
b91f	c2	(unknown)  '.'
b920	88	(unknown)  '.'
b921	d2	(unknown)  '.'
b922	a8	(unknown)  '.'
b923	d2	(unknown)  '.'
b924	af	(unknown)  '.'
b925	c2	(unknown)  '.'
b926	b2	(unknown)  '.'
b927	32	(unknown)  '2'
b928	b4	(unknown)  '.'
b929	6b	(unknown)  'k'
b92a	19	(unknown)  '.'
b92b	30	(unknown)  '0'
b92c	98	(unknown)  '.'
b92d	fd	(unknown)  '.'
b92e	c2	(unknown)  '.'
b92f	98	(unknown)  '.'
b930	25	(unknown)  '%'
b931	99	(unknown)  '.'
b932	70	(unknown)  'p'
b933	aa	(unknown)  '.'
b934	90	(unknown)  '.'
b935	00	(unknown)  '.'
b936	03	(unknown)  '.'
b937	74	(unknown)  't'
b938	02	(unknown)  '.'
b939	f0	(unknown)  '.'
b93a	a3	(unknown)  '.'
b93b	74	(unknown)  't'
b93c	be	(unknown)  '.'
b93d	f0	(unknown)  '.'
b93e	a3	(unknown)  '.'
b93f	74	(unknown)  't'
b940	04	(unknown)  '.'
b941	f0	(unknown)  '.'
b942	21	(unknown)  '!'
b943	09	(unknown)  '.'
b944	b4	(unknown)  '.'
b945	77	(unknown)  'w'
b946	25	(unknown)  '%'
b947	30	(unknown)  '0'
b948	98	(unknown)  '.'
b949	fd	(unknown)  '.'
b94a	c2	(unknown)  '.'
b94b	98	(unknown)  '.'
b94c	25	(unknown)  '%'
b94d	99	(unknown)  '.'
b94e	60	(unknown)  '`'
b94f	02	(unknown)  '.'
b950	01	(unknown)  '.'
b951	de	(unknown)  '.'
b952	30	(unknown)  '0'
b953	99	(unknown)  '.'
b954	fd	(unknown)  '.'
b955	c2	(unknown)  '.'
b956	99	(unknown)  '.'
b957	75	(unknown)  'u'
b958	99	(unknown)  '.'
b959	06	(unknown)  '.'
b95a	90	(unknown)  '.'
b95b	00	(unknown)  '.'
b95c	03	(unknown)  '.'
b95d	74	(unknown)  't'
b95e	02	(unknown)  '.'
b95f	f0	(unknown)  '.'
b960	a3	(unknown)  '.'
b961	74	(unknown)  't'
b962	be	(unknown)  '.'
b963	f0	(unknown)  '.'
b964	a3	(unknown)  '.'
b965	74	(unknown)  't'
b966	3d	(unknown)  '='
b967	f0	(unknown)  '.'
b968	21	(unknown)  '!'
b969	09	(unknown)  '.'
b96a	41	(unknown)  'A'
b96b	0e	(unknown)  '.'
b96c	b4	(unknown)  '.'
b96d	61	(unknown)  'a'
b96e	fb	(unknown)  '.'
b96f	30	(unknown)  '0'
b970	98	(unknown)  '.'
b971	fd	(unknown)  '.'
b972	c2	(unknown)  '.'
b973	98	(unknown)  '.'
b974	a8	(unknown)  '.'
b975	99	(unknown)  '.'
b976	30	(unknown)  '0'
b977	98	(unknown)  '.'
b978	fd	(unknown)  '.'
b979	c2	(unknown)  '.'
b97a	98	(unknown)  '.'
b97b	a9	(unknown)  '.'
b97c	99	(unknown)  '.'
b97d	30	(unknown)  '0'
b97e	98	(unknown)  '.'
b97f	fd	(unknown)  '.'
b980	c2	(unknown)  '.'
b981	98	(unknown)  '.'
b982	e5	(unknown)  '.'
b983	99	(unknown)  '.'
b984	24	(unknown)  '$'
b985	61	(unknown)  'a'
b986	28	(unknown)  '('
b987	29	(unknown)  ')'
b988	60	(unknown)  '`'
b989	02	(unknown)  '.'
b98a	01	(unknown)  '.'
b98b	de	(unknown)  '.'
b98c	30	(unknown)  '0'
b98d	99	(unknown)  '.'
b98e	fd	(unknown)  '.'
b98f	c2	(unknown)  '.'
b990	99	(unknown)  '.'
b991	75	(unknown)  'u'
b992	99	(unknown)  '.'
b993	06	(unknown)  '.'
b994	90	(unknown)  '.'
b995	7f	(unknown)  '.'
b996	07	(unknown)  '.'
b997	e8	(unknown)  '.'
b998	f0	(unknown)  '.'
b999	a3	(unknown)  '.'
b99a	e9	(unknown)  '.'
b99b	f0	(unknown)  '.'
b99c	b9	(unknown)  '.'
b99d	80	(unknown)  '.'
b99e	00	(unknown)  '.'
b99f	40	(unknown)  '@'
b9a0	10	(unknown)  '.'
b9a1	90	(unknown)  '.'
b9a2	00	(unknown)  '.'
b9a3	03	(unknown)  '.'
b9a4	74	(unknown)  't'
b9a5	02	(unknown)  '.'
b9a6	f0	(unknown)  '.'
b9a7	a3	(unknown)  '.'
b9a8	74	(unknown)  't'
b9a9	be	(unknown)  '.'
b9aa	f0	(unknown)  '.'
b9ab	a3	(unknown)  '.'
b9ac	74	(unknown)  't'
b9ad	72	(unknown)  'r'
b9ae	f0	(unknown)  '.'
b9af	21	(unknown)  '!'
b9b0	09	(unknown)  '.'
b9b1	b9	(unknown)  '.'
b9b2	7f	(unknown)  '.'
b9b3	00	(unknown)  '.'
b9b4	40	(unknown)  '@'
b9b5	02	(unknown)  '.'
b9b6	01	(unknown)  '.'
b9b7	e6	(unknown)  '.'
b9b8	88	(unknown)  '.'
b9b9	82	(unknown)  '.'
b9ba	89	(unknown)  '.'
b9bb	83	(unknown)  '.'
b9bc	e0	(unknown)  '.'
b9bd	f8	(unknown)  '.'
b9be	a3	(unknown)  '.'
b9bf	e0	(unknown)  '.'
b9c0	f9	(unknown)  '.'
b9c1	a3	(unknown)  '.'
b9c2	e0	(unknown)  '.'
b9c3	90	(unknown)  '.'
b9c4	7f	(unknown)  '.'
b9c5	0b	(unknown)  '.'
b9c6	f0	(unknown)  '.'
b9c7	90	(unknown)  '.'
b9c8	7f	(unknown)  '.'
b9c9	09	(unknown)  '.'
b9ca	e8	(unknown)  '.'
b9cb	f0	(unknown)  '.'
b9cc	a3	(unknown)  '.'
b9cd	e9	(unknown)  '.'
b9ce	f0	(unknown)  '.'
b9cf	90	(unknown)  '.'
b9d0	7f	(unknown)  '.'
b9d1	07	(unknown)  '.'
b9d2	e0	(unknown)  '.'
b9d3	f8	(unknown)  '.'
b9d4	a3	(unknown)  '.'
b9d5	e0	(unknown)  '.'
b9d6	f5	(unknown)  '.'
b9d7	83	(unknown)  '.'
b9d8	88	(unknown)  '.'
b9d9	82	(unknown)  '.'
b9da	74	(unknown)  't'
b9db	12	(unknown)  '.'
b9dc	f0	(unknown)  '.'
b9dd	a3	(unknown)  '.'
b9de	74	(unknown)  't'
b9df	be	(unknown)  '.'
b9e0	f0	(unknown)  '.'
b9e1	a3	(unknown)  '.'
b9e2	74	(unknown)  't'
b9e3	a8	(unknown)  '.'
b9e4	f0	(unknown)  '.'
b9e5	c2	(unknown)  '.'
b9e6	a8	(unknown)  '.'
b9e7	d2	(unknown)  '.'
b9e8	b2	(unknown)  '.'
b9e9	90	(unknown)  '.'
b9ea	00	(unknown)  '.'
b9eb	03	(unknown)  '.'
b9ec	74	(unknown)  't'
b9ed	02	(unknown)  '.'
b9ee	f0	(unknown)  '.'
b9ef	a3	(unknown)  '.'
b9f0	74	(unknown)  't'
b9f1	bf	(unknown)  '.'
b9f2	f0	(unknown)  '.'
b9f3	a3	(unknown)  '.'
b9f4	74	(unknown)  't'
b9f5	49	(unknown)  'I'
b9f6	f0	(unknown)  '.'
b9f7	90	(unknown)  '.'
b9f8	7f	(unknown)  '.'
b9f9	05	(unknown)  '.'
b9fa	e0	(unknown)  '.'
b9fb	f8	(unknown)  '.'
b9fc	a3	(unknown)  '.'
b9fd	e0	(unknown)  '.'
b9fe	f9	(unknown)  '.'
b9ff	90	(unknown)  '.'
ba00	7f	(unknown)  '.'
ba01	04	(unknown)  '.'
ba02	e0	(unknown)  '.'
ba03	f5	(unknown)  '.'
ba04	d0	(unknown)  '.'
ba05	90	(unknown)  '.'
ba06	7f	(unknown)  '.'
ba07	03	(unknown)  '.'
ba08	e0	(unknown)  '.'
ba09	d0	(unknown)  '.'
ba0a	82	(unknown)  '.'
ba0b	d0	(unknown)  '.'
ba0c	83	(unknown)  '.'
ba0d	32	(unknown)  '2'
ba0e	b4	(unknown)  '.'
ba0f	52	(unknown)  'R'
ba10	15	(unknown)  '.'
ba11	30	(unknown)  '0'
ba12	98	(unknown)  '.'
ba13	fd	(unknown)  '.'
ba14	c2	(unknown)  '.'
ba15	98	(unknown)  '.'
ba16	25	(unknown)  '%'
ba17	99	(unknown)  '.'
ba18	60	(unknown)  '`'
ba19	02	(unknown)  '.'
ba1a	01	(unknown)  '.'
ba1b	de	(unknown)  '.'
ba1c	30	(unknown)  '0'
ba1d	99	(unknown)  '.'
ba1e	fd	(unknown)  '.'
ba1f	c2	(unknown)  '.'
ba20	99	(unknown)  '.'
ba21	75	(unknown)  'u'
ba22	99	(unknown)  '.'
ba23	06	(unknown)  '.'
ba24	21	(unknown)  '!'
ba25	e5	(unknown)  '.'
ba26	b4	(unknown)  '.'
ba27	67	(unknown)  'g'
ba28	2c	(unknown)  ','
ba29	30	(unknown)  '0'
ba2a	98	(unknown)  '.'
ba2b	fd	(unknown)  '.'
ba2c	c2	(unknown)  '.'
ba2d	98	(unknown)  '.'
ba2e	85	(unknown)  '.'
ba2f	99	(unknown)  '.'
ba30	82	(unknown)  '.'
ba31	30	(unknown)  '0'
ba32	98	(unknown)  '.'
ba33	fd	(unknown)  '.'
ba34	c2	(unknown)  '.'
ba35	98	(unknown)  '.'
ba36	85	(unknown)  '.'
ba37	99	(unknown)  '.'
ba38	83	(unknown)  '.'
ba39	30	(unknown)  '0'
ba3a	98	(unknown)  '.'
ba3b	fd	(unknown)  '.'
ba3c	c2	(unknown)  '.'
ba3d	98	(unknown)  '.'
ba3e	e5	(unknown)  '.'
ba3f	99	(unknown)  '.'
ba40	24	(unknown)  '$'
ba41	67	(unknown)  'g'
ba42	25	(unknown)  '%'
ba43	82	(unknown)  '.'
ba44	25	(unknown)  '%'
ba45	83	(unknown)  '.'
ba46	60	(unknown)  '`'
ba47	02	(unknown)  '.'
ba48	01	(unknown)  '.'
ba49	de	(unknown)  '.'
ba4a	a8	(unknown)  '.'
ba4b	81	(unknown)  '.'
ba4c	18	(unknown)  '.'
ba4d	18	(unknown)  '.'
ba4e	a6	(unknown)  '.'
ba4f	83	(unknown)  '.'
ba50	18	(unknown)  '.'
ba51	a6	(unknown)  '.'
ba52	82	(unknown)  '.'
ba53	a1	(unknown)  '.'
ba54	b7	(unknown)  '.'
ba55	b4	(unknown)  '.'
ba56	64	(unknown)  'd'
ba57	0d	(unknown)  '.'
ba58	30	(unknown)  '0'
ba59	98	(unknown)  '.'
ba5a	fd	(unknown)  '.'
ba5b	c2	(unknown)  '.'
ba5c	98	(unknown)  '.'
ba5d	25	(unknown)  '%'
ba5e	99	(unknown)  '.'
ba5f	60	(unknown)  '`'
ba60	02	(unknown)  '.'
ba61	01	(unknown)  '.'
ba62	de	(unknown)  '.'
ba63	c1	(unknown)  '.'
ba64	1a	(unknown)  '.'
ba65	b4	(unknown)  '.'
ba66	57	(unknown)  'W'
ba67	1d	(unknown)  '.'
ba68	30	(unknown)  '0'
ba69	98	(unknown)  '.'
ba6a	fd	(unknown)  '.'
ba6b	c2	(unknown)  '.'
ba6c	98	(unknown)  '.'
ba6d	a8	(unknown)  '.'
ba6e	99	(unknown)  '.'
ba6f	30	(unknown)  '0'
ba70	98	(unknown)  '.'
ba71	fd	(unknown)  '.'
ba72	c2	(unknown)  '.'
ba73	98	(unknown)  '.'
ba74	a9	(unknown)  '.'
ba75	99	(unknown)  '.'
ba76	30	(unknown)  '0'
ba77	98	(unknown)  '.'
ba78	fd	(unknown)  '.'
ba79	c2	(unknown)  '.'
ba7a	98	(unknown)  '.'
ba7b	e5	(unknown)  '.'
ba7c	99	(unknown)  '.'
ba7d	24	(unknown)  '$'
ba7e	57	(unknown)  'W'
ba7f	28	(unknown)  '('
ba80	29	(unknown)  ')'
ba81	60	(unknown)  '`'
ba82	0e	(unknown)  '.'
ba83	01	(unknown)  '.'
ba84	de	(unknown)  '.'
ba85	61	(unknown)  'a'
ba86	5f	(unknown)  '_'
ba87	30	(unknown)  '0'
ba88	99	(unknown)  '.'
ba89	fd	(unknown)  '.'
ba8a	c2	(unknown)  '.'
ba8b	99	(unknown)  '.'
ba8c	75	(unknown)  'u'
ba8d	99	(unknown)  '.'
ba8e	06	(unknown)  '.'
ba8f	01	(unknown)  '.'
ba90	e6	(unknown)  '.'
ba91	e8	(unknown)  '.'
ba92	20	(unknown)  ' '
ba93	e7	(unknown)  '.'
ba94	2e	(unknown)  '.'
ba95	85	(unknown)  '.'
ba96	81	(unknown)  '.'
ba97	82	(unknown)  '.'
ba98	05	(unknown)  '.'
ba99	82	(unknown)  '.'
ba9a	b5	(unknown)  '.'
ba9b	82	(unknown)  '.'
ba9c	00	(unknown)  '.'
ba9d	50	(unknown)  'P'
ba9e	0d	(unknown)  '.'
ba9f	15	(unknown)  '.'
baa0	82	(unknown)  '.'
baa1	15	(unknown)  '.'
baa2	82	(unknown)  '.'
baa3	15	(unknown)  '.'
baa4	82	(unknown)  '.'
baa5	15	(unknown)  '.'
baa6	82	(unknown)  '.'
baa7	b5	(unknown)  '.'
baa8	82	(unknown)  '.'
baa9	00	(unknown)  '.'
baaa	50	(unknown)  'P'
baab	db	(unknown)  '.'
baac	70	(unknown)  'p'
baad	07	(unknown)  '.'
baae	90	(unknown)  '.'
baaf	7f	(unknown)  '.'
bab0	05	(unknown)  '.'
bab1	e9	(unknown)  '.'
bab2	f0	(unknown)  '.'
bab3	41	(unknown)  'A'
bab4	87	(unknown)  '.'
bab5	d5	(unknown)  '.'
bab6	e0	(unknown)  '.'
bab7	07	(unknown)  '.'
bab8	90	(unknown)  '.'
bab9	7f	(unknown)  '.'
baba	06	(unknown)  '.'
babb	e9	(unknown)  '.'
babc	f0	(unknown)  '.'
babd	41	(unknown)  'A'
babe	87	(unknown)  '.'
babf	a6	(unknown)  '.'
bac0	01	(unknown)  '.'
bac1	41	(unknown)  'A'
bac2	87	(unknown)  '.'
bac3	b8	(unknown)  '.'
bac4	81	(unknown)  '.'
bac5	19	(unknown)  '.'
bac6	b9	(unknown)  '.'
bac7	7c	(unknown)  '|'
bac8	00	(unknown)  '.'
bac9	50	(unknown)  'P'
baca	bc	(unknown)  '.'
bacb	d0	(unknown)  '.'
bacc	82	(unknown)  '.'
bacd	d0	(unknown)  '.'
bace	83	(unknown)  '.'
bacf	d0	(unknown)  '.'
bad0	e0	(unknown)  '.'
bad1	d0	(unknown)  '.'
bad2	00	(unknown)  '.'
bad3	89	(unknown)  '.'
bad4	81	(unknown)  '.'
bad5	c0	(unknown)  '.'
bad6	00	(unknown)  '.'
bad7	c0	(unknown)  '.'
bad8	e0	(unknown)  '.'
bad9	c0	(unknown)  '.'
bada	83	(unknown)  '.'
badb	c0	(unknown)  '.'
badc	82	(unknown)  '.'
badd	41	(unknown)  'A'
bade	87	(unknown)  '.'
badf	b8	(unknown)  '.'
bae0	82	(unknown)  '.'
bae1	06	(unknown)  '.'
bae2	15	(unknown)  '.'
bae3	81	(unknown)  '.'
bae4	c0	(unknown)  '.'
bae5	01	(unknown)  '.'
bae6	41	(unknown)  'A'
bae7	87	(unknown)  '.'
bae8	b8	(unknown)  '.'
bae9	83	(unknown)  '.'
baea	07	(unknown)  '.'
baeb	a8	(unknown)  '.'
baec	81	(unknown)  '.'
baed	18	(unknown)  '.'
baee	a6	(unknown)  '.'
baef	01	(unknown)  '.'
baf0	41	(unknown)  'A'
baf1	87	(unknown)  '.'
baf2	b8	(unknown)  '.'
baf3	88	(unknown)  '.'
baf4	0c	(unknown)  '.'
baf5	e9	(unknown)  '.'
baf6	44	(unknown)  'D'
baf7	c3	(unknown)  '.'
baf8	52	(unknown)  'R'
baf9	88	(unknown)  '.'
bafa	e9	(unknown)  '.'
bafb	54	(unknown)  'T'
bafc	3c	(unknown)  '<'
bafd	42	(unknown)  'B'
bafe	88	(unknown)  '.'
baff	41	(unknown)  'A'
bb00	87	(unknown)  '.'
bb01	b8	(unknown)  '.'
bb02	89	(unknown)  '.'
bb03	0c	(unknown)  '.'
bb04	e9	(unknown)  '.'
bb05	44	(unknown)  'D'
bb06	f0	(unknown)  '.'
bb07	52	(unknown)  'R'
bb08	89	(unknown)  '.'
bb09	e9	(unknown)  '.'
bb0a	54	(unknown)  'T'
bb0b	0f	(unknown)  '.'
bb0c	42	(unknown)  'B'
bb0d	89	(unknown)  '.'
bb0e	41	(unknown)  'A'
bb0f	87	(unknown)  '.'
bb10	b8	(unknown)  '.'
bb11	8a	(unknown)  '.'
bb12	04	(unknown)  '.'
bb13	89	(unknown)  '.'
bb14	8a	(unknown)  '.'
bb15	41	(unknown)  'A'
bb16	87	(unknown)  '.'
bb17	b8	(unknown)  '.'
bb18	8c	(unknown)  '.'
bb19	04	(unknown)  '.'
bb1a	89	(unknown)  '.'
bb1b	8c	(unknown)  '.'
bb1c	41	(unknown)  'A'
bb1d	87	(unknown)  '.'
bb1e	b8	(unknown)  '.'
bb1f	90	(unknown)  '.'
bb20	04	(unknown)  '.'
bb21	89	(unknown)  '.'
bb22	90	(unknown)  '.'
bb23	41	(unknown)  'A'
bb24	87	(unknown)  '.'
bb25	b8	(unknown)  '.'
bb26	a0	(unknown)  '.'
bb27	04	(unknown)  '.'
bb28	89	(unknown)  '.'
bb29	a0	(unknown)  '.'
bb2a	41	(unknown)  'A'
bb2b	87	(unknown)  '.'
bb2c	b8	(unknown)  '.'
bb2d	a8	(unknown)  '.'
bb2e	0c	(unknown)  '.'
bb2f	e9	(unknown)  '.'
bb30	44	(unknown)  'D'
bb31	19	(unknown)  '.'
bb32	52	(unknown)  'R'
bb33	a8	(unknown)  '.'
bb34	e9	(unknown)  '.'
bb35	54	(unknown)  'T'
bb36	e6	(unknown)  '.'
bb37	42	(unknown)  'B'
bb38	a8	(unknown)  '.'
bb39	41	(unknown)  'A'
bb3a	87	(unknown)  '.'
bb3b	b8	(unknown)  '.'
bb3c	b8	(unknown)  '.'
bb3d	04	(unknown)  '.'
bb3e	89	(unknown)  '.'
bb3f	b8	(unknown)  '.'
bb40	41	(unknown)  'A'
bb41	87	(unknown)  '.'
bb42	b8	(unknown)  '.'
bb43	d0	(unknown)  '.'
bb44	07	(unknown)  '.'
bb45	90	(unknown)  '.'
bb46	7f	(unknown)  '.'
bb47	04	(unknown)  '.'
bb48	e9	(unknown)  '.'
bb49	f0	(unknown)  '.'
bb4a	41	(unknown)  'A'
bb4b	87	(unknown)  '.'
bb4c	b8	(unknown)  '.'
bb4d	e0	(unknown)  '.'
bb4e	07	(unknown)  '.'
bb4f	90	(unknown)  '.'
bb50	7f	(unknown)  '.'
bb51	03	(unknown)  '.'
bb52	e9	(unknown)  '.'
bb53	f0	(unknown)  '.'
bb54	41	(unknown)  'A'
bb55	87	(unknown)  '.'
bb56	b8	(unknown)  '.'
bb57	f0	(unknown)  '.'
bb58	04	(unknown)  '.'
bb59	89	(unknown)  '.'
bb5a	f0	(unknown)  '.'
bb5b	41	(unknown)  'A'
bb5c	87	(unknown)  '.'
bb5d	01	(unknown)  '.'
bb5e	de	(unknown)  '.'
bb5f	b4	(unknown)  '.'
bb60	49	(unknown)  'I'
bb61	3d	(unknown)  '='
bb62	30	(unknown)  '0'
bb63	98	(unknown)  '.'
bb64	fd	(unknown)  '.'
bb65	c2	(unknown)  '.'
bb66	98	(unknown)  '.'
bb67	25	(unknown)  '%'
bb68	99	(unknown)  '.'
bb69	60	(unknown)  '`'
bb6a	02	(unknown)  '.'
bb6b	01	(unknown)  '.'
bb6c	de	(unknown)  '.'
bb6d	90	(unknown)  '.'
bb6e	7f	(unknown)  '.'
bb6f	05	(unknown)  '.'
bb70	e0	(unknown)  '.'
bb71	30	(unknown)  '0'
bb72	99	(unknown)  '.'
bb73	fd	(unknown)  '.'
bb74	c2	(unknown)  '.'
bb75	99	(unknown)  '.'
bb76	f5	(unknown)  '.'
bb77	99	(unknown)  '.'
bb78	f9	(unknown)  '.'
bb79	a3	(unknown)  '.'
bb7a	e0	(unknown)  '.'
bb7b	30	(unknown)  '0'
bb7c	99	(unknown)  '.'
bb7d	fd	(unknown)  '.'
bb7e	c2	(unknown)  '.'
bb7f	99	(unknown)  '.'
bb80	f5	(unknown)  '.'
bb81	99	(unknown)  '.'
bb82	29	(unknown)  ')'
bb83	78	(unknown)  'x'
bb84	02	(unknown)  '.'
bb85	79	(unknown)  'y'
bb86	7e	(unknown)  '~'
bb87	30	(unknown)  '0'
bb88	99	(unknown)  '.'
bb89	fd	(unknown)  '.'
bb8a	c2	(unknown)  '.'
bb8b	99	(unknown)  '.'
bb8c	86	(unknown)  '.'
bb8d	99	(unknown)  '.'
bb8e	26	(unknown)  '&'
bb8f	08	(unknown)  '.'
bb90	d9	(unknown)  '.'
bb91	f5	(unknown)  '.'
bb92	f4	(unknown)  '.'
bb93	04	(unknown)  '.'
bb94	30	(unknown)  '0'
bb95	99	(unknown)  '.'
bb96	fd	(unknown)  '.'
bb97	c2	(unknown)  '.'
bb98	99	(unknown)  '.'
bb99	f5	(unknown)  '.'
bb9a	99	(unknown)  '.'
bb9b	01	(unknown)  '.'
bb9c	e6	(unknown)  '.'
bb9d	81	(unknown)  '.'
bb9e	97	(unknown)  '.'
bb9f	b4	(unknown)  '.'
bba0	53	(unknown)  'S'
bba1	fb	(unknown)  '.'
bba2	30	(unknown)  '0'
bba3	98	(unknown)  '.'
bba4	fd	(unknown)  '.'
bba5	c2	(unknown)  '.'
bba6	98	(unknown)  '.'
bba7	25	(unknown)  '%'
bba8	99	(unknown)  '.'
bba9	60	(unknown)  '`'
bbaa	02	(unknown)  '.'
bbab	01	(unknown)  '.'
bbac	de	(unknown)  '.'
bbad	90	(unknown)  '.'
bbae	7f	(unknown)  '.'
bbaf	04	(unknown)  '.'
bbb0	e0	(unknown)  '.'
bbb1	54	(unknown)  'T'
bbb2	18	(unknown)  '.'
bbb3	70	(unknown)  'p'
bbb4	1c	(unknown)  '.'
bbb5	90	(unknown)  '.'
bbb6	7f	(unknown)  '.'
bbb7	05	(unknown)  '.'
bbb8	e0	(unknown)  '.'
bbb9	30	(unknown)  '0'
bbba	99	(unknown)  '.'
bbbb	fd	(unknown)  '.'
bbbc	c2	(unknown)  '.'
bbbd	99	(unknown)  '.'
bbbe	f5	(unknown)  '.'
bbbf	99	(unknown)  '.'
bbc0	f9	(unknown)  '.'
bbc1	a3	(unknown)  '.'
bbc2	e0	(unknown)  '.'
bbc3	30	(unknown)  '0'
bbc4	99	(unknown)  '.'
bbc5	fd	(unknown)  '.'
bbc6	c2	(unknown)  '.'
bbc7	99	(unknown)  '.'
bbc8	f5	(unknown)  '.'
bbc9	99	(unknown)  '.'
bbca	29	(unknown)  ')'
bbcb	78	(unknown)  'x'
bbcc	02	(unknown)  '.'
bbcd	79	(unknown)  'y'
bbce	06	(unknown)  '.'
bbcf	80	(unknown)  '.'
bbd0	04	(unknown)  '.'
bbd1	f8	(unknown)  '.'
bbd2	79	(unknown)  'y'
bbd3	08	(unknown)  '.'
bbd4	e4	(unknown)  '.'
bbd5	30	(unknown)  '0'
bbd6	99	(unknown)  '.'
bbd7	fd	(unknown)  '.'
bbd8	c2	(unknown)  '.'
bbd9	99	(unknown)  '.'
bbda	86	(unknown)  '.'
bbdb	99	(unknown)  '.'
bbdc	26	(unknown)  '&'
bbdd	08	(unknown)  '.'
bbde	d9	(unknown)  '.'
bbdf	f5	(unknown)  '.'
bbe0	f9	(unknown)  '.'
bbe1	e5	(unknown)  '.'
bbe2	81	(unknown)  '.'
bbe3	14	(unknown)  '.'
bbe4	14	(unknown)  '.'
bbe5	14	(unknown)  '.'
bbe6	14	(unknown)  '.'
bbe7	30	(unknown)  '0'
bbe8	99	(unknown)  '.'
bbe9	fd	(unknown)  '.'
bbea	c2	(unknown)  '.'
bbeb	99	(unknown)  '.'
bbec	f5	(unknown)  '.'
bbed	99	(unknown)  '.'
bbee	29	(unknown)  ')'
bbef	a8	(unknown)  '.'
bbf0	81	(unknown)  '.'
bbf1	30	(unknown)  '0'
bbf2	99	(unknown)  '.'
bbf3	fd	(unknown)  '.'
bbf4	c2	(unknown)  '.'
bbf5	99	(unknown)  '.'
bbf6	86	(unknown)  '.'
bbf7	99	(unknown)  '.'
bbf8	26	(unknown)  '&'
bbf9	a8	(unknown)  '.'
bbfa	81	(unknown)  '.'
bbfb	18	(unknown)  '.'
bbfc	30	(unknown)  '0'
bbfd	99	(unknown)  '.'
bbfe	fd	(unknown)  '.'
bbff	c2	(unknown)  '.'
bc00	99	(unknown)  '.'
bc01	86	(unknown)  '.'
bc02	99	(unknown)  '.'
bc03	26	(unknown)  '&'
bc04	30	(unknown)  '0'
bc05	99	(unknown)  '.'
bc06	fd	(unknown)  '.'
bc07	c2	(unknown)  '.'
bc08	99	(unknown)  '.'
bc09	85	(unknown)  '.'
bc0a	87	(unknown)  '.'
bc0b	99	(unknown)  '.'
bc0c	25	(unknown)  '%'
bc0d	87	(unknown)  '.'
bc0e	30	(unknown)  '0'
bc0f	99	(unknown)  '.'
bc10	fd	(unknown)  '.'
bc11	c2	(unknown)  '.'
bc12	99	(unknown)  '.'
bc13	85	(unknown)  '.'
bc14	88	(unknown)  '.'
bc15	99	(unknown)  '.'
bc16	25	(unknown)  '%'
bc17	88	(unknown)  '.'
bc18	30	(unknown)  '0'
bc19	99	(unknown)  '.'
bc1a	fd	(unknown)  '.'
bc1b	c2	(unknown)  '.'
bc1c	99	(unknown)  '.'
bc1d	85	(unknown)  '.'
bc1e	89	(unknown)  '.'
bc1f	99	(unknown)  '.'
bc20	25	(unknown)  '%'
bc21	89	(unknown)  '.'
bc22	30	(unknown)  '0'
bc23	99	(unknown)  '.'
bc24	fd	(unknown)  '.'
bc25	c2	(unknown)  '.'
bc26	99	(unknown)  '.'
bc27	a9	(unknown)  '.'
bc28	8a	(unknown)  '.'
bc29	89	(unknown)  '.'
bc2a	99	(unknown)  '.'
bc2b	29	(unknown)  ')'
bc2c	30	(unknown)  '0'
bc2d	99	(unknown)  '.'
bc2e	fd	(unknown)  '.'
bc2f	c2	(unknown)  '.'
bc30	99	(unknown)  '.'
bc31	a9	(unknown)  '.'
bc32	8c	(unknown)  '.'
bc33	89	(unknown)  '.'
bc34	99	(unknown)  '.'
bc35	29	(unknown)  ')'
bc36	30	(unknown)  '0'
bc37	99	(unknown)  '.'
bc38	fd	(unknown)  '.'
bc39	c2	(unknown)  '.'
bc3a	99	(unknown)  '.'
bc3b	a9	(unknown)  '.'
bc3c	90	(unknown)  '.'
bc3d	89	(unknown)  '.'
bc3e	99	(unknown)  '.'
bc3f	29	(unknown)  ')'
bc40	30	(unknown)  '0'
bc41	99	(unknown)  '.'
bc42	fd	(unknown)  '.'
bc43	c2	(unknown)  '.'
bc44	99	(unknown)  '.'
bc45	a9	(unknown)  '.'
bc46	a0	(unknown)  '.'
bc47	89	(unknown)  '.'
bc48	99	(unknown)  '.'
bc49	29	(unknown)  ')'
bc4a	30	(unknown)  '0'
bc4b	99	(unknown)  '.'
bc4c	fd	(unknown)  '.'
bc4d	c2	(unknown)  '.'
bc4e	99	(unknown)  '.'
bc4f	a9	(unknown)  '.'
bc50	a8	(unknown)  '.'
bc51	89	(unknown)  '.'
bc52	99	(unknown)  '.'
bc53	29	(unknown)  ')'
bc54	30	(unknown)  '0'
bc55	99	(unknown)  '.'
bc56	fd	(unknown)  '.'
bc57	c2	(unknown)  '.'
bc58	99	(unknown)  '.'
bc59	a9	(unknown)  '.'
bc5a	b0	(unknown)  '.'
bc5b	89	(unknown)  '.'
bc5c	99	(unknown)  '.'
bc5d	29	(unknown)  ')'
bc5e	30	(unknown)  '0'
bc5f	99	(unknown)  '.'
bc60	fd	(unknown)  '.'
bc61	c2	(unknown)  '.'
bc62	99	(unknown)  '.'
bc63	a9	(unknown)  '.'
bc64	b8	(unknown)  '.'
bc65	89	(unknown)  '.'
bc66	99	(unknown)  '.'
bc67	29	(unknown)  ')'
bc68	90	(unknown)  '.'
bc69	7f	(unknown)  '.'
bc6a	04	(unknown)  '.'
bc6b	f9	(unknown)  '.'
bc6c	e0	(unknown)  '.'
bc6d	30	(unknown)  '0'
bc6e	99	(unknown)  '.'
bc6f	fd	(unknown)  '.'
bc70	c2	(unknown)  '.'
bc71	99	(unknown)  '.'
bc72	f5	(unknown)  '.'
bc73	99	(unknown)  '.'
bc74	29	(unknown)  ')'
bc75	90	(unknown)  '.'
bc76	7f	(unknown)  '.'
bc77	03	(unknown)  '.'
bc78	f9	(unknown)  '.'
bc79	e0	(unknown)  '.'
bc7a	30	(unknown)  '0'
bc7b	99	(unknown)  '.'
bc7c	fd	(unknown)  '.'
bc7d	c2	(unknown)  '.'
bc7e	99	(unknown)  '.'
bc7f	f5	(unknown)  '.'
bc80	99	(unknown)  '.'
bc81	29	(unknown)  ')'
bc82	30	(unknown)  '0'
bc83	99	(unknown)  '.'
bc84	fd	(unknown)  '.'
bc85	c2	(unknown)  '.'
bc86	99	(unknown)  '.'
bc87	85	(unknown)  '.'
bc88	f0	(unknown)  '.'
bc89	99	(unknown)  '.'
bc8a	25	(unknown)  '%'
bc8b	f0	(unknown)  '.'
bc8c	f4	(unknown)  '.'
bc8d	04	(unknown)  '.'
bc8e	30	(unknown)  '0'
bc8f	99	(unknown)  '.'
bc90	fd	(unknown)  '.'
bc91	c2	(unknown)  '.'
bc92	99	(unknown)  '.'
bc93	f5	(unknown)  '.'
bc94	99	(unknown)  '.'
bc95	01	(unknown)  '.'
bc96	e6	(unknown)  '.'
bc97	b4	(unknown)  '.'
bc98	50	(unknown)  'P'
bc99	56	(unknown)  'V'
bc9a	30	(unknown)  '0'
bc9b	98	(unknown)  '.'
bc9c	fd	(unknown)  '.'
bc9d	c2	(unknown)  '.'
bc9e	98	(unknown)  '.'
bc9f	a8	(unknown)  '.'
bca0	99	(unknown)  '.'
bca1	30	(unknown)  '0'
bca2	98	(unknown)  '.'
bca3	fd	(unknown)  '.'
bca4	c2	(unknown)  '.'
bca5	98	(unknown)  '.'
bca6	85	(unknown)  '.'
bca7	99	(unknown)  '.'
bca8	82	(unknown)  '.'
bca9	30	(unknown)  '0'
bcaa	98	(unknown)  '.'
bcab	fd	(unknown)  '.'
bcac	c2	(unknown)  '.'
bcad	98	(unknown)  '.'
bcae	85	(unknown)  '.'
bcaf	99	(unknown)  '.'
bcb0	83	(unknown)  '.'
bcb1	30	(unknown)  '0'
bcb2	98	(unknown)  '.'
bcb3	fd	(unknown)  '.'
bcb4	c2	(unknown)  '.'
bcb5	98	(unknown)  '.'
bcb6	e5	(unknown)  '.'
bcb7	99	(unknown)  '.'
bcb8	24	(unknown)  '$'
bcb9	50	(unknown)  'P'
bcba	28	(unknown)  '('
bcbb	25	(unknown)  '%'
bcbc	82	(unknown)  '.'
bcbd	25	(unknown)  '%'
bcbe	83	(unknown)  '.'
bcbf	60	(unknown)  '`'
bcc0	02	(unknown)  '.'
bcc1	01	(unknown)  '.'
bcc2	de	(unknown)  '.'
bcc3	30	(unknown)  '0'
bcc4	99	(unknown)  '.'
bcc5	fd	(unknown)  '.'
bcc6	c2	(unknown)  '.'
bcc7	99	(unknown)  '.'
bcc8	75	(unknown)  'u'
bcc9	99	(unknown)  '.'
bcca	06	(unknown)  '.'
bccb	79	(unknown)  'y'
bccc	00	(unknown)  '.'
bccd	30	(unknown)  '0'
bcce	98	(unknown)  '.'
bccf	fd	(unknown)  '.'
bcd0	c2	(unknown)  '.'
bcd1	98	(unknown)  '.'
bcd2	e5	(unknown)  '.'
bcd3	99	(unknown)  '.'
bcd4	f0	(unknown)  '.'
bcd5	a3	(unknown)  '.'
bcd6	29	(unknown)  ')'
bcd7	f9	(unknown)  '.'
bcd8	d8	(unknown)  '.'
bcd9	f3	(unknown)  '.'
bcda	30	(unknown)  '0'
bcdb	98	(unknown)  '.'
bcdc	fd	(unknown)  '.'
bcdd	c2	(unknown)  '.'
bcde	98	(unknown)  '.'
bcdf	e5	(unknown)  '.'
bce0	99	(unknown)  '.'
bce1	29	(unknown)  ')'
bce2	60	(unknown)  '`'
bce3	02	(unknown)  '.'
bce4	01	(unknown)  '.'
bce5	de	(unknown)  '.'
bce6	30	(unknown)  '0'
bce7	99	(unknown)  '.'
bce8	fd	(unknown)  '.'
bce9	c2	(unknown)  '.'
bcea	99	(unknown)  '.'
bceb	75	(unknown)  'u'
bcec	99	(unknown)  '.'
bced	06	(unknown)  '.'
bcee	01	(unknown)  '.'
bcef	e6	(unknown)  '.'
bcf0	b4	(unknown)  '.'
bcf1	4f	(unknown)  'O'
bcf2	44	(unknown)  'D'
bcf3	30	(unknown)  '0'
bcf4	98	(unknown)  '.'
bcf5	fd	(unknown)  '.'
bcf6	c2	(unknown)  '.'
bcf7	98	(unknown)  '.'
bcf8	a8	(unknown)  '.'
bcf9	99	(unknown)  '.'
bcfa	30	(unknown)  '0'
bcfb	98	(unknown)  '.'
bcfc	fd	(unknown)  '.'
bcfd	c2	(unknown)  '.'
bcfe	98	(unknown)  '.'
bcff	85	(unknown)  '.'
bd00	99	(unknown)  '.'
bd01	82	(unknown)  '.'
bd02	30	(unknown)  '0'
bd03	98	(unknown)  '.'
bd04	fd	(unknown)  '.'
bd05	c2	(unknown)  '.'
bd06	98	(unknown)  '.'
bd07	85	(unknown)  '.'
bd08	99	(unknown)  '.'
bd09	83	(unknown)  '.'
bd0a	30	(unknown)  '0'
bd0b	98	(unknown)  '.'
bd0c	fd	(unknown)  '.'
bd0d	c2	(unknown)  '.'
bd0e	98	(unknown)  '.'
bd0f	e5	(unknown)  '.'
bd10	99	(unknown)  '.'
bd11	24	(unknown)  '$'
bd12	4f	(unknown)  'O'
bd13	28	(unknown)  '('
bd14	25	(unknown)  '%'
bd15	82	(unknown)  '.'
bd16	25	(unknown)  '%'
bd17	83	(unknown)  '.'
bd18	60	(unknown)  '`'
bd19	02	(unknown)  '.'
bd1a	01	(unknown)  '.'
bd1b	de	(unknown)  '.'
bd1c	79	(unknown)  'y'
bd1d	00	(unknown)  '.'
bd1e	e0	(unknown)  '.'
bd1f	30	(unknown)  '0'
bd20	99	(unknown)  '.'
bd21	fd	(unknown)  '.'
bd22	c2	(unknown)  '.'
bd23	99	(unknown)  '.'
bd24	f5	(unknown)  '.'
bd25	99	(unknown)  '.'
bd26	a3	(unknown)  '.'
bd27	29	(unknown)  ')'
bd28	f9	(unknown)  '.'
bd29	d8	(unknown)  '.'
bd2a	f3	(unknown)  '.'
bd2b	e9	(unknown)  '.'
bd2c	f4	(unknown)  '.'
bd2d	04	(unknown)  '.'
bd2e	30	(unknown)  '0'
bd2f	99	(unknown)  '.'
bd30	fd	(unknown)  '.'
bd31	c2	(unknown)  '.'
bd32	99	(unknown)  '.'
bd33	f5	(unknown)  '.'
bd34	99	(unknown)  '.'
bd35	01	(unknown)  '.'
bd36	e6	(unknown)  '.'
bd37	b4	(unknown)  '.'
bd38	51	(unknown)  'Q'
bd39	2e	(unknown)  '.'
bd3a	30	(unknown)  '0'
bd3b	98	(unknown)  '.'
bd3c	fd	(unknown)  '.'
bd3d	c2	(unknown)  '.'
bd3e	98	(unknown)  '.'
bd3f	25	(unknown)  '%'
bd40	99	(unknown)  '.'
bd41	70	(unknown)  'p'
bd42	3b	(unknown)  ';'
bd43	30	(unknown)  '0'
bd44	99	(unknown)  '.'
bd45	fd	(unknown)  '.'
bd46	c2	(unknown)  '.'
bd47	99	(unknown)  '.'
bd48	75	(unknown)  'u'
bd49	99	(unknown)  '.'
bd4a	06	(unknown)  '.'
bd4b	c2	(unknown)  '.'
bd4c	af	(unknown)  '.'
bd4d	c2	(unknown)  '.'
bd4e	a8	(unknown)  '.'
bd4f	d2	(unknown)  '.'
bd50	b2	(unknown)  '.'
bd51	e4	(unknown)  '.'
bd52	d5	(unknown)  '.'
bd53	e0	(unknown)  '.'
bd54	fd	(unknown)  '.'
bd55	d5	(unknown)  '.'
bd56	e0	(unknown)  '.'
bd57	fd	(unknown)  '.'
bd58	15	(unknown)  '.'
bd59	81	(unknown)  '.'
bd5a	15	(unknown)  '.'
bd5b	81	(unknown)  '.'
bd5c	15	(unknown)  '.'
bd5d	81	(unknown)  '.'
bd5e	15	(unknown)  '.'
bd5f	81	(unknown)  '.'
bd60	e4	(unknown)  '.'
bd61	c0	(unknown)  '.'
bd62	e0	(unknown)  '.'
bd63	74	(unknown)  't'
bd64	80	(unknown)  '.'
bd65	c0	(unknown)  '.'
bd66	e0	(unknown)  '.'
bd67	32	(unknown)  '2'
bd68	b4	(unknown)  '.'
bd69	54	(unknown)  'T'
bd6a	13	(unknown)  '.'
bd6b	30	(unknown)  '0'
bd6c	98	(unknown)  '.'
bd6d	fd	(unknown)  '.'
bd6e	c2	(unknown)  '.'
bd6f	98	(unknown)  '.'
bd70	25	(unknown)  '%'
bd71	99	(unknown)  '.'
bd72	70	(unknown)  'p'
bd73	0a	(unknown)  '.'
bd74	30	(unknown)  '0'
bd75	99	(unknown)  '.'
bd76	fd	(unknown)  '.'
bd77	c2	(unknown)  '.'
bd78	99	(unknown)  '.'
bd79	75	(unknown)  'u'
bd7a	99	(unknown)  '.'
bd7b	4d	(unknown)  'M'
bd7c	01	(unknown)  '.'
bd7d	e6	(unknown)  '.'
bd7e	01	(unknown)  '.'
bd7f	de	(unknown)  '.'
bd80	c0	(unknown)  '.'
bd81	83	(unknown)  '.'
bd82	c0	(unknown)  '.'
bd83	82	(unknown)  '.'
bd84	90	(unknown)  '.'
bd85	7f	(unknown)  '.'
bd86	03	(unknown)  '.'
bd87	f0	(unknown)  '.'
bd88	a3	(unknown)  '.'
bd89	e5	(unknown)  '.'
bd8a	d0	(unknown)  '.'
bd8b	f0	(unknown)  '.'
bd8c	a3	(unknown)  '.'
bd8d	c2	(unknown)  '.'
bd8e	d3	(unknown)  '.'
bd8f	c2	(unknown)  '.'
bd90	d4	(unknown)  '.'
bd91	e8	(unknown)  '.'
bd92	f0	(unknown)  '.'
bd93	a3	(unknown)  '.'
bd94	e9	(unknown)  '.'
bd95	f0	(unknown)  '.'
bd96	01	(unknown)  '.'
bd97	e6	(unknown)  '.'
bd98	c0	(unknown)  '.'
bd99	83	(unknown)  '.'
bd9a	c0	(unknown)  '.'
bd9b	82	(unknown)  '.'
bd9c	90	(unknown)  '.'
bd9d	7f	(unknown)  '.'
bd9e	03	(unknown)  '.'
bd9f	f0	(unknown)  '.'
bda0	a3	(unknown)  '.'
bda1	e5	(unknown)  '.'
bda2	d0	(unknown)  '.'
bda3	f0	(unknown)  '.'
bda4	a3	(unknown)  '.'
bda5	c2	(unknown)  '.'
bda6	d3	(unknown)  '.'
bda7	c2	(unknown)  '.'
bda8	d4	(unknown)  '.'
bda9	e8	(unknown)  '.'
bdaa	f0	(unknown)  '.'
bdab	a3	(unknown)  '.'
bdac	e9	(unknown)  '.'
bdad	f0	(unknown)  '.'
bdae	a8	(unknown)  '.'
bdaf	81	(unknown)  '.'
bdb0	18	(unknown)  '.'
bdb1	18	(unknown)  '.'
bdb2	86	(unknown)  '.'
bdb3	83	(unknown)  '.'
bdb4	18	(unknown)  '.'
bdb5	86	(unknown)  '.'
bdb6	82	(unknown)  '.'
bdb7	e4	(unknown)  '.'
bdb8	30	(unknown)  '0'
bdb9	99	(unknown)  '.'
bdba	fd	(unknown)  '.'
bdbb	c2	(unknown)  '.'
bdbc	99	(unknown)  '.'
bdbd	85	(unknown)  '.'
bdbe	82	(unknown)  '.'
bdbf	99	(unknown)  '.'
bdc0	25	(unknown)  '%'
bdc1	82	(unknown)  '.'
bdc2	30	(unknown)  '0'
bdc3	99	(unknown)  '.'
bdc4	fd	(unknown)  '.'
bdc5	c2	(unknown)  '.'
bdc6	99	(unknown)  '.'
bdc7	85	(unknown)  '.'
bdc8	83	(unknown)  '.'
bdc9	99	(unknown)  '.'
bdca	25	(unknown)  '%'
bdcb	83	(unknown)  '.'
bdcc	f9	(unknown)  '.'
bdcd	e0	(unknown)  '.'
bdce	30	(unknown)  '0'
bdcf	99	(unknown)  '.'
bdd0	fd	(unknown)  '.'
bdd1	c2	(unknown)  '.'
bdd2	99	(unknown)  '.'
bdd3	f5	(unknown)  '.'
bdd4	99	(unknown)  '.'
bdd5	29	(unknown)  ')'
bdd6	f9	(unknown)  '.'
bdd7	a3	(unknown)  '.'
bdd8	e0	(unknown)  '.'
bdd9	30	(unknown)  '0'
bdda	99	(unknown)  '.'
bddb	fd	(unknown)  '.'
bddc	c2	(unknown)  '.'
bddd	99	(unknown)  '.'
bdde	f5	(unknown)  '.'
bddf	99	(unknown)  '.'
bde0	29	(unknown)  ')'
bde1	f9	(unknown)  '.'
bde2	a3	(unknown)  '.'
bde3	e0	(unknown)  '.'
bde4	30	(unknown)  '0'
bde5	99	(unknown)  '.'
bde6	fd	(unknown)  '.'
bde7	c2	(unknown)  '.'
bde8	99	(unknown)  '.'
bde9	f5	(unknown)  '.'
bdea	99	(unknown)  '.'
bdeb	29	(unknown)  ')'
bdec	f9	(unknown)  '.'
bded	90	(unknown)  '.'
bdee	7f	(unknown)  '.'
bdef	04	(unknown)  '.'
bdf0	e0	(unknown)  '.'
bdf1	30	(unknown)  '0'
bdf2	99	(unknown)  '.'
bdf3	fd	(unknown)  '.'
bdf4	c2	(unknown)  '.'
bdf5	99	(unknown)  '.'
bdf6	f5	(unknown)  '.'
bdf7	99	(unknown)  '.'
bdf8	29	(unknown)  ')'
bdf9	f4	(unknown)  '.'
bdfa	04	(unknown)  '.'
bdfb	30	(unknown)  '0'
bdfc	99	(unknown)  '.'
bdfd	fd	(unknown)  '.'
bdfe	c2	(unknown)  '.'
bdff	99	(unknown)  '.'
be00	f5	(unknown)  '.'
be01	99	(unknown)  '.'
be02	01	(unknown)  '.'
be03	e6	(unknown)  '.'
be04	c0	(unknown)  '.'
be05	83	(unknown)  '.'
be06	c0	(unknown)  '.'
be07	82	(unknown)  '.'
be08	90	(unknown)  '.'
be09	7f	(unknown)  '.'
be0a	03	(unknown)  '.'
be0b	f0	(unknown)  '.'
be0c	a3	(unknown)  '.'
be0d	e5	(unknown)  '.'
be0e	d0	(unknown)  '.'
be0f	f0	(unknown)  '.'
be10	a3	(unknown)  '.'
be11	c2	(unknown)  '.'
be12	d3	(unknown)  '.'
be13	c2	(unknown)  '.'
be14	d4	(unknown)  '.'
be15	e8	(unknown)  '.'
be16	f0	(unknown)  '.'
be17	a3	(unknown)  '.'
be18	e9	(unknown)  '.'
be19	f0	(unknown)  '.'
be1a	90	(unknown)  '.'
be1b	7f	(unknown)  '.'
be1c	0c	(unknown)  '.'
be1d	74	(unknown)  't'
be1e	02	(unknown)  '.'
be1f	f0	(unknown)  '.'
be20	a3	(unknown)  '.'
be21	74	(unknown)  't'
be22	be	(unknown)  '.'
be23	f0	(unknown)  '.'
be24	a3	(unknown)  '.'
be25	74	(unknown)  't'
be26	2b	(unknown)  '+'
be27	f0	(unknown)  '.'
be28	02	(unknown)  '.'
be29	7f	(unknown)  '.'
be2a	0f	(unknown)  '.'
be2b	30	(unknown)  '0'
be2c	99	(unknown)  '.'
be2d	fd	(unknown)  '.'
be2e	c2	(unknown)  '.'
be2f	99	(unknown)  '.'
be30	f5	(unknown)  '.'
be31	99	(unknown)  '.'
be32	a8	(unknown)  '.'
be33	81	(unknown)  '.'
be34	18	(unknown)  '.'
be35	18	(unknown)  '.'
be36	86	(unknown)  '.'
be37	83	(unknown)  '.'
be38	18	(unknown)  '.'
be39	86	(unknown)  '.'
be3a	82	(unknown)  '.'
be3b	a1	(unknown)  '.'
be3c	b8	(unknown)  '.'
be3d	c0	(unknown)  '.'
be3e	83	(unknown)  '.'
be3f	c0	(unknown)  '.'
be40	82	(unknown)  '.'
be41	90	(unknown)  '.'
be42	7f	(unknown)  '.'
be43	03	(unknown)  '.'
be44	f0	(unknown)  '.'
be45	a3	(unknown)  '.'
be46	e5	(unknown)  '.'
be47	d0	(unknown)  '.'
be48	f0	(unknown)  '.'
be49	a3	(unknown)  '.'
be4a	c2	(unknown)  '.'
be4b	d3	(unknown)  '.'
be4c	c2	(unknown)  '.'
be4d	d4	(unknown)  '.'
be4e	e8	(unknown)  '.'
be4f	f0	(unknown)  '.'
be50	a3	(unknown)  '.'
be51	e9	(unknown)  '.'
be52	f0	(unknown)  '.'
be53	90	(unknown)  '.'
be54	7f	(unknown)  '.'
be55	0c	(unknown)  '.'
be56	74	(unknown)  't'
be57	02	(unknown)  '.'
be58	f0	(unknown)  '.'
be59	a3	(unknown)  '.'
be5a	74	(unknown)  't'
be5b	be	(unknown)  '.'
be5c	f0	(unknown)  '.'
be5d	a3	(unknown)  '.'
be5e	74	(unknown)  't'
be5f	64	(unknown)  'd'
be60	f0	(unknown)  '.'
be61	02	(unknown)  '.'
be62	7f	(unknown)  '.'
be63	0f	(unknown)  '.'
be64	50	(unknown)  'P'
be65	0a	(unknown)  '.'
be66	30	(unknown)  '0'
be67	99	(unknown)  '.'
be68	fd	(unknown)  '.'
be69	c2	(unknown)  '.'
be6a	99	(unknown)  '.'
be6b	75	(unknown)  'u'
be6c	99	(unknown)  '.'
be6d	06	(unknown)  '.'
be6e	01	(unknown)  '.'
be6f	e6	(unknown)  '.'
be70	21	(unknown)  '!'
be71	09	(unknown)  '.'
be72	c0	(unknown)  '.'
be73	83	(unknown)  '.'
be74	c0	(unknown)  '.'
be75	82	(unknown)  '.'
be76	90	(unknown)  '.'
be77	7f	(unknown)  '.'
be78	03	(unknown)  '.'
be79	f0	(unknown)  '.'
be7a	a3	(unknown)  '.'
be7b	e5	(unknown)  '.'
be7c	d0	(unknown)  '.'
be7d	f0	(unknown)  '.'
be7e	a3	(unknown)  '.'
be7f	c2	(unknown)  '.'
be80	d3	(unknown)  '.'
be81	c2	(unknown)  '.'
be82	d4	(unknown)  '.'
be83	e8	(unknown)  '.'
be84	f0	(unknown)  '.'
be85	a3	(unknown)  '.'
be86	e9	(unknown)  '.'
be87	f0	(unknown)  '.'
be88	a8	(unknown)  '.'
be89	81	(unknown)  '.'
be8a	18	(unknown)  '.'
be8b	18	(unknown)  '.'
be8c	18	(unknown)  '.'
be8d	86	(unknown)  '.'
be8e	01	(unknown)  '.'
be8f	90	(unknown)  '.'
be90	7f	(unknown)  '.'
be91	07	(unknown)  '.'
be92	e0	(unknown)  '.'
be93	b5	(unknown)  '.'
be94	01	(unknown)  '.'
be95	da	(unknown)  '.'
be96	08	(unknown)  '.'
be97	86	(unknown)  '.'
be98	01	(unknown)  '.'
be99	a3	(unknown)  '.'
be9a	e0	(unknown)  '.'
be9b	b5	(unknown)  '.'
be9c	01	(unknown)  '.'
be9d	d2	(unknown)  '.'
be9e	30	(unknown)  '0'
be9f	99	(unknown)  '.'
bea0	fd	(unknown)  '.'
bea1	c2	(unknown)  '.'
bea2	99	(unknown)  '.'
bea3	75	(unknown)  'u'
bea4	99	(unknown)  '.'
bea5	06	(unknown)  '.'
bea6	01	(unknown)  '.'
bea7	e6	(unknown)  '.'
bea8	c0	(unknown)  '.'
bea9	83	(unknown)  '.'
beaa	c0	(unknown)  '.'
beab	82	(unknown)  '.'
beac	90	(unknown)  '.'
bead	7f	(unknown)  '.'
beae	03	(unknown)  '.'
beaf	f0	(unknown)  '.'
beb0	a3	(unknown)  '.'
beb1	e5	(unknown)  '.'
beb2	d0	(unknown)  '.'
beb3	f0	(unknown)  '.'
beb4	a3	(unknown)  '.'
beb5	c2	(unknown)  '.'
beb6	d3	(unknown)  '.'
beb7	c2	(unknown)  '.'
beb8	d4	(unknown)  '.'
beb9	e8	(unknown)  '.'
beba	f0	(unknown)  '.'
bebb	a3	(unknown)  '.'
bebc	e9	(unknown)  '.'
bebd	f0	(unknown)  '.'
bebe	90	(unknown)  '.'
bebf	7f	(unknown)  '.'
bec0	07	(unknown)  '.'
bec1	e0	(unknown)  '.'
bec2	f8	(unknown)  '.'
bec3	a3	(unknown)  '.'
bec4	e0	(unknown)  '.'
bec5	f9	(unknown)  '.'
bec6	a3	(unknown)  '.'
bec7	e0	(unknown)  '.'
bec8	88	(unknown)  '.'
bec9	82	(unknown)  '.'
beca	89	(unknown)  '.'
becb	83	(unknown)  '.'
becc	f0	(unknown)  '.'
becd	a3	(unknown)  '.'
bece	a8	(unknown)  '.'
becf	82	(unknown)  '.'
bed0	a9	(unknown)  '.'
bed1	83	(unknown)  '.'
bed2	90	(unknown)  '.'
bed3	7f	(unknown)  '.'
bed4	0a	(unknown)  '.'
bed5	e0	(unknown)  '.'
bed6	88	(unknown)  '.'
bed7	82	(unknown)  '.'
bed8	89	(unknown)  '.'
bed9	83	(unknown)  '.'
beda	f0	(unknown)  '.'
bedb	a3	(unknown)  '.'
bedc	a8	(unknown)  '.'
bedd	82	(unknown)  '.'
bede	a9	(unknown)  '.'
bedf	83	(unknown)  '.'
bee0	90	(unknown)  '.'
bee1	7f	(unknown)  '.'
bee2	0b	(unknown)  '.'
bee3	e0	(unknown)  '.'
bee4	88	(unknown)  '.'
bee5	82	(unknown)  '.'
bee6	89	(unknown)  '.'
bee7	83	(unknown)  '.'
bee8	f0	(unknown)  '.'
bee9	a8	(unknown)  '.'
beea	81	(unknown)  '.'
beeb	18	(unknown)  '.'
beec	18	(unknown)  '.'
beed	86	(unknown)  '.'
beee	01	(unknown)  '.'
beef	18	(unknown)  '.'
bef0	e6	(unknown)  '.'
bef1	c3	(unknown)  '.'
bef2	94	(unknown)  '.'
bef3	03	(unknown)  '.'
bef4	50	(unknown)  'P'
bef5	02	(unknown)  '.'
bef6	15	(unknown)  '.'
bef7	01	(unknown)  '.'
bef8	f6	(unknown)  '.'
bef9	08	(unknown)  '.'
befa	a6	(unknown)  '.'
befb	01	(unknown)  '.'
befc	90	(unknown)  '.'
befd	00	(unknown)  '.'
befe	03	(unknown)  '.'
beff	74	(unknown)  't'
bf00	02	(unknown)  '.'
bf01	f0	(unknown)  '.'
bf02	a3	(unknown)  '.'
bf03	74	(unknown)  't'
bf04	bf	(unknown)  '.'
bf05	f0	(unknown)  '.'
bf06	a3	(unknown)  '.'
bf07	74	(unknown)  't'
bf08	29	(unknown)  ')'
bf09	f0	(unknown)  '.'
bf0a	90	(unknown)  '.'
bf0b	7f	(unknown)  '.'
bf0c	05	(unknown)  '.'
bf0d	e0	(unknown)  '.'
bf0e	f8	(unknown)  '.'
bf0f	a3	(unknown)  '.'
bf10	e0	(unknown)  '.'
bf11	f9	(unknown)  '.'
bf12	90	(unknown)  '.'
bf13	7f	(unknown)  '.'
bf14	04	(unknown)  '.'
bf15	e0	(unknown)  '.'
bf16	f5	(unknown)  '.'
bf17	d0	(unknown)  '.'
bf18	90	(unknown)  '.'
bf19	7f	(unknown)  '.'
bf1a	03	(unknown)  '.'
bf1b	e0	(unknown)  '.'
bf1c	d0	(unknown)  '.'
bf1d	82	(unknown)  '.'
bf1e	d0	(unknown)  '.'
bf1f	83	(unknown)  '.'
bf20	c2	(unknown)  '.'
bf21	88	(unknown)  '.'
bf22	d2	(unknown)  '.'
bf23	a8	(unknown)  '.'
bf24	d2	(unknown)  '.'
bf25	af	(unknown)  '.'
bf26	c2	(unknown)  '.'
bf27	b2	(unknown)  '.'
bf28	22	(unknown)  '"'
bf29	c0	(unknown)  '.'
bf2a	83	(unknown)  '.'
bf2b	c0	(unknown)  '.'
bf2c	82	(unknown)  '.'
bf2d	90	(unknown)  '.'
bf2e	7f	(unknown)  '.'
bf2f	03	(unknown)  '.'
bf30	f0	(unknown)  '.'
bf31	a3	(unknown)  '.'
bf32	e5	(unknown)  '.'
bf33	d0	(unknown)  '.'
bf34	f0	(unknown)  '.'
bf35	a3	(unknown)  '.'
bf36	c2	(unknown)  '.'
bf37	d3	(unknown)  '.'
bf38	c2	(unknown)  '.'
bf39	d4	(unknown)  '.'
bf3a	e8	(unknown)  '.'
bf3b	f0	(unknown)  '.'
bf3c	a3	(unknown)  '.'
bf3d	e9	(unknown)  '.'
bf3e	f0	(unknown)  '.'
bf3f	30	(unknown)  '0'
bf40	99	(unknown)  '.'
bf41	fd	(unknown)  '.'
bf42	c2	(unknown)  '.'
bf43	99	(unknown)  '.'
bf44	75	(unknown)  'u'
bf45	99	(unknown)  '.'
bf46	06	(unknown)  '.'
bf47	01	(unknown)  '.'
bf48	e6	(unknown)  '.'
bf49	32	(unknown)  '2'
bf4a	83      			movc A, @A+PC
bf4b	22      			ret
bf4c	e4	(unknown)  '.'
bf4d	d3	(unknown)  '.'
bf4e	02	(unknown)  '.'
bf4f	7f	(unknown)  '.'
bf50	0c	(unknown)  '.'
bf51	ff	(unknown)  '.'
bf52	ff	(unknown)  '.'
bf53	ff	(unknown)  '.'
bf54	ff	(unknown)  '.'
bf55	ff	(unknown)  '.'
bf56	ff	(unknown)  '.'
bf57	ff	(unknown)  '.'
bf58	ff	(unknown)  '.'
bf59	ff	(unknown)  '.'
bf5a	ff	(unknown)  '.'
bf5b	ff	(unknown)  '.'
bf5c	ff	(unknown)  '.'
bf5d	ff	(unknown)  '.'
bf5e	ff	(unknown)  '.'
bf5f	ff	(unknown)  '.'
bf60	ff	(unknown)  '.'
bf61	ff	(unknown)  '.'
bf62	ff	(unknown)  '.'
bf63	ff	(unknown)  '.'
bf64	ff	(unknown)  '.'
bf65	ff	(unknown)  '.'
bf66	ff	(unknown)  '.'
bf67	ff	(unknown)  '.'
bf68	ff	(unknown)  '.'
bf69	ff	(unknown)  '.'
bf6a	ff	(unknown)  '.'
bf6b	ff	(unknown)  '.'
bf6c	ff	(unknown)  '.'
bf6d	ff	(unknown)  '.'
bf6e	ff	(unknown)  '.'
bf6f	ff	(unknown)  '.'
bf70	ff	(unknown)  '.'
bf71	ff	(unknown)  '.'
bf72	ff	(unknown)  '.'
bf73	ff	(unknown)  '.'
bf74	ff	(unknown)  '.'
bf75	ff	(unknown)  '.'
bf76	ff	(unknown)  '.'
bf77	ff	(unknown)  '.'
bf78	ff	(unknown)  '.'
bf79	ff	(unknown)  '.'
bf7a	ff	(unknown)  '.'
bf7b	ff	(unknown)  '.'
bf7c	ff	(unknown)  '.'
bf7d	ff	(unknown)  '.'
bf7e	ff	(unknown)  '.'
bf7f	ff	(unknown)  '.'
bf80	ff	(unknown)  '.'
bf81	ff	(unknown)  '.'
bf82	ff	(unknown)  '.'
bf83	ff	(unknown)  '.'
bf84	ff	(unknown)  '.'
bf85	ff	(unknown)  '.'
bf86	ff	(unknown)  '.'
bf87	ff	(unknown)  '.'
bf88	ff	(unknown)  '.'
bf89	ff	(unknown)  '.'
bf8a	ff	(unknown)  '.'
bf8b	ff	(unknown)  '.'
bf8c	ff	(unknown)  '.'
bf8d	ff	(unknown)  '.'
bf8e	ff	(unknown)  '.'
bf8f	ff	(unknown)  '.'
bf90	ff	(unknown)  '.'
bf91	ff	(unknown)  '.'
bf92	ff	(unknown)  '.'
bf93	ff	(unknown)  '.'
bf94	ff	(unknown)  '.'
bf95	ff	(unknown)  '.'
bf96	ff	(unknown)  '.'
bf97	ff	(unknown)  '.'
bf98	ff	(unknown)  '.'
bf99	ff	(unknown)  '.'
bf9a	ff	(unknown)  '.'
bf9b	ff	(unknown)  '.'
bf9c	ff	(unknown)  '.'
bf9d	ff	(unknown)  '.'
bf9e	ff	(unknown)  '.'
bf9f	ff	(unknown)  '.'
bfa0	ff	(unknown)  '.'
bfa1	ff	(unknown)  '.'
bfa2	ff	(unknown)  '.'
bfa3	ff	(unknown)  '.'
bfa4	ff	(unknown)  '.'
bfa5	ff	(unknown)  '.'
bfa6	ff	(unknown)  '.'
bfa7	ff	(unknown)  '.'
bfa8	ff	(unknown)  '.'
bfa9	ff	(unknown)  '.'
bfaa	ff	(unknown)  '.'
bfab	ff	(unknown)  '.'
bfac	ff	(unknown)  '.'
bfad	ff	(unknown)  '.'
bfae	ff	(unknown)  '.'
bfaf	ff	(unknown)  '.'
bfb0	ff	(unknown)  '.'
bfb1	ff	(unknown)  '.'
bfb2	ff	(unknown)  '.'
bfb3	ff	(unknown)  '.'
bfb4	ff	(unknown)  '.'
bfb5	ff	(unknown)  '.'
bfb6	ff	(unknown)  '.'
bfb7	ff	(unknown)  '.'
bfb8	ff	(unknown)  '.'
bfb9	ff	(unknown)  '.'
bfba	ff	(unknown)  '.'
bfbb	ff	(unknown)  '.'
bfbc	ff	(unknown)  '.'
bfbd	ff	(unknown)  '.'
bfbe	ff	(unknown)  '.'
bfbf	ff	(unknown)  '.'
bfc0	ff	(unknown)  '.'
bfc1	ff	(unknown)  '.'
bfc2	ff	(unknown)  '.'
bfc3	ff	(unknown)  '.'
bfc4	ff	(unknown)  '.'
bfc5	ff	(unknown)  '.'
bfc6	ff	(unknown)  '.'
bfc7	ff	(unknown)  '.'
bfc8	ff	(unknown)  '.'
bfc9	ff	(unknown)  '.'
bfca	ff	(unknown)  '.'
bfcb	ff	(unknown)  '.'
bfcc	ff	(unknown)  '.'
bfcd	ff	(unknown)  '.'
bfce	ff	(unknown)  '.'
bfcf	ff	(unknown)  '.'
bfd0	ff	(unknown)  '.'
bfd1	ff	(unknown)  '.'
bfd2	ff	(unknown)  '.'
bfd3	ff	(unknown)  '.'
bfd4	ff	(unknown)  '.'
bfd5	ff	(unknown)  '.'
bfd6	ff	(unknown)  '.'
bfd7	ff	(unknown)  '.'
bfd8	ff	(unknown)  '.'
bfd9	ff	(unknown)  '.'
bfda	ff	(unknown)  '.'
bfdb	ff	(unknown)  '.'
bfdc	ff	(unknown)  '.'
bfdd	ff	(unknown)  '.'
bfde	ff	(unknown)  '.'
bfdf	ff	(unknown)  '.'
bfe0	ff	(unknown)  '.'
bfe1	ff	(unknown)  '.'
bfe2	ff	(unknown)  '.'
bfe3	ff	(unknown)  '.'
bfe4	ff	(unknown)  '.'
bfe5	ff	(unknown)  '.'
bfe6	ff	(unknown)  '.'
bfe7	ff	(unknown)  '.'
bfe8	ff	(unknown)  '.'
bfe9	ff	(unknown)  '.'
bfea	ff	(unknown)  '.'
bfeb	ff	(unknown)  '.'
bfec	ff	(unknown)  '.'
bfed	ff	(unknown)  '.'
bfee	ff	(unknown)  '.'
bfef	ff	(unknown)  '.'
bff0	ff	(unknown)  '.'
bff1	ff	(unknown)  '.'
bff2	ff	(unknown)  '.'
bff3	ff	(unknown)  '.'
bff4	ff	(unknown)  '.'
bff5	ff	(unknown)  '.'
bff6	ff	(unknown)  '.'
bff7	ff	(unknown)  '.'
bff8	ff	(unknown)  '.'
bff9	ff	(unknown)  '.'
bffa	ff	(unknown)  '.'
bffb	ff	(unknown)  '.'
bffc	ff	(unknown)  '.'
bffd	ff	(unknown)  '.'
bffe	ff	(unknown)  '.'
bfff	ff	(unknown)  '.'
c000	ff	(unknown)  '.'
c001	ff	(unknown)  '.'
c002	ff	(unknown)  '.'
c003	ff	(unknown)  '.'
c004	ff	(unknown)  '.'
c005	ff	(unknown)  '.'
c006	ff	(unknown)  '.'
c007	ff	(unknown)  '.'
c008	ff	(unknown)  '.'
c009	ff	(unknown)  '.'
c00a	ff	(unknown)  '.'
c00b	ff	(unknown)  '.'
c00c	ff	(unknown)  '.'
c00d	ff	(unknown)  '.'
c00e	ff	(unknown)  '.'
c00f	ff	(unknown)  '.'
c010	ff	(unknown)  '.'
c011	ff	(unknown)  '.'
c012	ff	(unknown)  '.'
c013	ff	(unknown)  '.'
c014	ff	(unknown)  '.'
c015	ff	(unknown)  '.'
c016	ff	(unknown)  '.'
c017	ff	(unknown)  '.'
c018	ff	(unknown)  '.'
c019	ff	(unknown)  '.'
c01a	ff	(unknown)  '.'
c01b	ff	(unknown)  '.'
c01c	ff	(unknown)  '.'
c01d	ff	(unknown)  '.'
c01e	ff	(unknown)  '.'
c01f	ff	(unknown)  '.'
c020	ff	(unknown)  '.'
c021	ff	(unknown)  '.'
c022	ff	(unknown)  '.'
c023	ff	(unknown)  '.'
c024	ff	(unknown)  '.'
c025	ff	(unknown)  '.'
c026	ff	(unknown)  '.'
c027	ff	(unknown)  '.'
c028	ff	(unknown)  '.'
c029	ff	(unknown)  '.'
c02a	ff	(unknown)  '.'
c02b	ff	(unknown)  '.'
c02c	ff	(unknown)  '.'
c02d	ff	(unknown)  '.'
c02e	ff	(unknown)  '.'
c02f	ff	(unknown)  '.'
c030	ff	(unknown)  '.'
c031	ff	(unknown)  '.'
c032	ff	(unknown)  '.'
c033	ff	(unknown)  '.'
c034	ff	(unknown)  '.'
c035	ff	(unknown)  '.'
c036	ff	(unknown)  '.'
c037	ff	(unknown)  '.'
c038	ff	(unknown)  '.'
c039	ff	(unknown)  '.'
c03a	ff	(unknown)  '.'
c03b	ff	(unknown)  '.'
c03c	ff	(unknown)  '.'
c03d	ff	(unknown)  '.'
c03e	ff	(unknown)  '.'
c03f	ff	(unknown)  '.'
c040	ff	(unknown)  '.'
c041	ff	(unknown)  '.'
c042	ff	(unknown)  '.'
c043	ff	(unknown)  '.'
c044	ff	(unknown)  '.'
c045	ff	(unknown)  '.'
c046	ff	(unknown)  '.'
c047	ff	(unknown)  '.'
c048	ff	(unknown)  '.'
c049	ff	(unknown)  '.'
c04a	ff	(unknown)  '.'
c04b	ff	(unknown)  '.'
c04c	ff	(unknown)  '.'
c04d	ff	(unknown)  '.'
c04e	ff	(unknown)  '.'
c04f	ff	(unknown)  '.'
c050	ff	(unknown)  '.'
c051	ff	(unknown)  '.'
c052	ff	(unknown)  '.'
c053	ff	(unknown)  '.'
c054	ff	(unknown)  '.'
c055	ff	(unknown)  '.'
c056	ff	(unknown)  '.'
c057	ff	(unknown)  '.'
c058	ff	(unknown)  '.'
c059	ff	(unknown)  '.'
c05a	ff	(unknown)  '.'
c05b	ff	(unknown)  '.'
c05c	ff	(unknown)  '.'
c05d	ff	(unknown)  '.'
c05e	ff	(unknown)  '.'
c05f	ff	(unknown)  '.'
c060	ff	(unknown)  '.'
c061	ff	(unknown)  '.'
c062	ff	(unknown)  '.'
c063	ff	(unknown)  '.'
c064	ff	(unknown)  '.'
c065	ff	(unknown)  '.'
c066	ff	(unknown)  '.'
c067	ff	(unknown)  '.'
c068	ff	(unknown)  '.'
c069	ff	(unknown)  '.'
c06a	ff	(unknown)  '.'
c06b	ff	(unknown)  '.'
c06c	ff	(unknown)  '.'
c06d	ff	(unknown)  '.'
c06e	ff	(unknown)  '.'
c06f	ff	(unknown)  '.'
c070	ff	(unknown)  '.'
c071	ff	(unknown)  '.'
c072	ff	(unknown)  '.'
c073	ff	(unknown)  '.'
c074	ff	(unknown)  '.'
c075	ff	(unknown)  '.'
c076	ff	(unknown)  '.'
c077	ff	(unknown)  '.'
c078	ff	(unknown)  '.'
c079	ff	(unknown)  '.'
c07a	ff	(unknown)  '.'
c07b	ff	(unknown)  '.'
c07c	ff	(unknown)  '.'
c07d	ff	(unknown)  '.'
c07e	ff	(unknown)  '.'
c07f	ff	(unknown)  '.'
c080	ff	(unknown)  '.'
c081	ff	(unknown)  '.'
c082	ff	(unknown)  '.'
c083	ff	(unknown)  '.'
c084	ff	(unknown)  '.'
c085	ff	(unknown)  '.'
c086	ff	(unknown)  '.'
c087	ff	(unknown)  '.'
c088	ff	(unknown)  '.'
c089	ff	(unknown)  '.'
c08a	ff	(unknown)  '.'
c08b	ff	(unknown)  '.'
c08c	ff	(unknown)  '.'
c08d	ff	(unknown)  '.'
c08e	ff	(unknown)  '.'
c08f	ff	(unknown)  '.'
c090	ff	(unknown)  '.'
c091	ff	(unknown)  '.'
c092	ff	(unknown)  '.'
c093	ff	(unknown)  '.'
c094	ff	(unknown)  '.'
c095	ff	(unknown)  '.'
c096	ff	(unknown)  '.'
c097	ff	(unknown)  '.'
c098	ff	(unknown)  '.'
c099	ff	(unknown)  '.'
c09a	ff	(unknown)  '.'
c09b	ff	(unknown)  '.'
c09c	ff	(unknown)  '.'
c09d	ff	(unknown)  '.'
c09e	ff	(unknown)  '.'
c09f	ff	(unknown)  '.'
c0a0	ff	(unknown)  '.'
c0a1	ff	(unknown)  '.'
c0a2	ff	(unknown)  '.'
c0a3	ff	(unknown)  '.'
c0a4	ff	(unknown)  '.'
c0a5	ff	(unknown)  '.'
c0a6	ff	(unknown)  '.'
c0a7	ff	(unknown)  '.'
c0a8	ff	(unknown)  '.'
c0a9	ff	(unknown)  '.'
c0aa	ff	(unknown)  '.'
c0ab	ff	(unknown)  '.'
c0ac	ff	(unknown)  '.'
c0ad	ff	(unknown)  '.'
c0ae	ff	(unknown)  '.'
c0af	ff	(unknown)  '.'
c0b0	ff	(unknown)  '.'
c0b1	ff	(unknown)  '.'
c0b2	ff	(unknown)  '.'
c0b3	ff	(unknown)  '.'
c0b4	ff	(unknown)  '.'
c0b5	ff	(unknown)  '.'
c0b6	ff	(unknown)  '.'
c0b7	ff	(unknown)  '.'
c0b8	ff	(unknown)  '.'
c0b9	ff	(unknown)  '.'
c0ba	ff	(unknown)  '.'
c0bb	ff	(unknown)  '.'
c0bc	ff	(unknown)  '.'
c0bd	ff	(unknown)  '.'
c0be	ff	(unknown)  '.'
c0bf	ff	(unknown)  '.'
c0c0	ff	(unknown)  '.'
c0c1	ff	(unknown)  '.'
c0c2	ff	(unknown)  '.'
c0c3	ff	(unknown)  '.'
c0c4	ff	(unknown)  '.'
c0c5	ff	(unknown)  '.'
c0c6	ff	(unknown)  '.'
c0c7	ff	(unknown)  '.'
c0c8	ff	(unknown)  '.'
c0c9	ff	(unknown)  '.'
c0ca	ff	(unknown)  '.'
c0cb	ff	(unknown)  '.'
c0cc	ff	(unknown)  '.'
c0cd	ff	(unknown)  '.'
c0ce	ff	(unknown)  '.'
c0cf	ff	(unknown)  '.'
c0d0	ff	(unknown)  '.'
c0d1	ff	(unknown)  '.'
c0d2	ff	(unknown)  '.'
c0d3	ff	(unknown)  '.'
c0d4	ff	(unknown)  '.'
c0d5	ff	(unknown)  '.'
c0d6	ff	(unknown)  '.'
c0d7	ff	(unknown)  '.'
c0d8	ff	(unknown)  '.'
c0d9	ff	(unknown)  '.'
c0da	ff	(unknown)  '.'
c0db	ff	(unknown)  '.'
c0dc	ff	(unknown)  '.'
c0dd	ff	(unknown)  '.'
c0de	ff	(unknown)  '.'
c0df	ff	(unknown)  '.'
c0e0	ff	(unknown)  '.'
c0e1	ff	(unknown)  '.'
c0e2	ff	(unknown)  '.'
c0e3	ff	(unknown)  '.'
c0e4	ff	(unknown)  '.'
c0e5	ff	(unknown)  '.'
c0e6	ff	(unknown)  '.'
c0e7	ff	(unknown)  '.'
c0e8	ff	(unknown)  '.'
c0e9	ff	(unknown)  '.'
c0ea	ff	(unknown)  '.'
c0eb	ff	(unknown)  '.'
c0ec	ff	(unknown)  '.'
c0ed	ff	(unknown)  '.'
c0ee	ff	(unknown)  '.'
c0ef	ff	(unknown)  '.'
c0f0	ff	(unknown)  '.'
c0f1	ff	(unknown)  '.'
c0f2	ff	(unknown)  '.'
c0f3	ff	(unknown)  '.'
c0f4	ff	(unknown)  '.'
c0f5	ff	(unknown)  '.'
c0f6	ff	(unknown)  '.'
c0f7	ff	(unknown)  '.'
c0f8	ff	(unknown)  '.'
c0f9	ff	(unknown)  '.'
c0fa	ff	(unknown)  '.'
c0fb	ff	(unknown)  '.'
c0fc	ff	(unknown)  '.'
c0fd	ff	(unknown)  '.'
c0fe	ff	(unknown)  '.'
c0ff	ff	(unknown)  '.'
c100	ff	(unknown)  '.'
c101	ff	(unknown)  '.'
c102	ff	(unknown)  '.'
c103	ff	(unknown)  '.'
c104	ff	(unknown)  '.'
c105	ff	(unknown)  '.'
c106	ff	(unknown)  '.'
c107	ff	(unknown)  '.'
c108	ff	(unknown)  '.'
c109	ff	(unknown)  '.'
c10a	ff	(unknown)  '.'
c10b	ff	(unknown)  '.'
c10c	ff	(unknown)  '.'
c10d	ff	(unknown)  '.'
c10e	ff	(unknown)  '.'
c10f	ff	(unknown)  '.'
c110	ff	(unknown)  '.'
c111	ff	(unknown)  '.'
c112	ff	(unknown)  '.'
c113	ff	(unknown)  '.'
c114	ff	(unknown)  '.'
c115	ff	(unknown)  '.'
c116	ff	(unknown)  '.'
c117	ff	(unknown)  '.'
c118	ff	(unknown)  '.'
c119	ff	(unknown)  '.'
c11a	ff	(unknown)  '.'
c11b	ff	(unknown)  '.'
c11c	ff	(unknown)  '.'
c11d	ff	(unknown)  '.'
c11e	ff	(unknown)  '.'
c11f	ff	(unknown)  '.'
c120	ff	(unknown)  '.'
c121	ff	(unknown)  '.'
c122	ff	(unknown)  '.'
c123	ff	(unknown)  '.'
c124	ff	(unknown)  '.'
c125	ff	(unknown)  '.'
c126	ff	(unknown)  '.'
c127	ff	(unknown)  '.'
c128	ff	(unknown)  '.'
c129	ff	(unknown)  '.'
c12a	ff	(unknown)  '.'
c12b	ff	(unknown)  '.'
c12c	ff	(unknown)  '.'
c12d	ff	(unknown)  '.'
c12e	ff	(unknown)  '.'
c12f	ff	(unknown)  '.'
c130	ff	(unknown)  '.'
c131	ff	(unknown)  '.'
c132	ff	(unknown)  '.'
c133	ff	(unknown)  '.'
c134	ff	(unknown)  '.'
c135	ff	(unknown)  '.'
c136	ff	(unknown)  '.'
c137	ff	(unknown)  '.'
c138	ff	(unknown)  '.'
c139	ff	(unknown)  '.'
c13a	ff	(unknown)  '.'
c13b	ff	(unknown)  '.'
c13c	ff	(unknown)  '.'
c13d	ff	(unknown)  '.'
c13e	ff	(unknown)  '.'
c13f	ff	(unknown)  '.'
c140	ff	(unknown)  '.'
c141	ff	(unknown)  '.'
c142	ff	(unknown)  '.'
c143	ff	(unknown)  '.'
c144	ff	(unknown)  '.'
c145	ff	(unknown)  '.'
c146	ff	(unknown)  '.'
c147	ff	(unknown)  '.'
c148	ff	(unknown)  '.'
c149	ff	(unknown)  '.'
c14a	ff	(unknown)  '.'
c14b	ff	(unknown)  '.'
c14c	ff	(unknown)  '.'
c14d	ff	(unknown)  '.'
c14e	ff	(unknown)  '.'
c14f	ff	(unknown)  '.'
c150	ff	(unknown)  '.'
c151	ff	(unknown)  '.'
c152	ff	(unknown)  '.'
c153	ff	(unknown)  '.'
c154	ff	(unknown)  '.'
c155	ff	(unknown)  '.'
c156	ff	(unknown)  '.'
c157	ff	(unknown)  '.'
c158	ff	(unknown)  '.'
c159	ff	(unknown)  '.'
c15a	ff	(unknown)  '.'
c15b	ff	(unknown)  '.'
c15c	ff	(unknown)  '.'
c15d	ff	(unknown)  '.'
c15e	ff	(unknown)  '.'
c15f	ff	(unknown)  '.'
c160	ff	(unknown)  '.'
c161	ff	(unknown)  '.'
c162	ff	(unknown)  '.'
c163	ff	(unknown)  '.'
c164	ff	(unknown)  '.'
c165	ff	(unknown)  '.'
c166	ff	(unknown)  '.'
c167	ff	(unknown)  '.'
c168	ff	(unknown)  '.'
c169	ff	(unknown)  '.'
c16a	ff	(unknown)  '.'
c16b	ff	(unknown)  '.'
c16c	ff	(unknown)  '.'
c16d	ff	(unknown)  '.'
c16e	ff	(unknown)  '.'
c16f	ff	(unknown)  '.'
c170	ff	(unknown)  '.'
c171	ff	(unknown)  '.'
c172	ff	(unknown)  '.'
c173	ff	(unknown)  '.'
c174	ff	(unknown)  '.'
c175	ff	(unknown)  '.'
c176	ff	(unknown)  '.'
c177	ff	(unknown)  '.'
c178	ff	(unknown)  '.'
c179	ff	(unknown)  '.'
c17a	ff	(unknown)  '.'
c17b	ff	(unknown)  '.'
c17c	ff	(unknown)  '.'
c17d	ff	(unknown)  '.'
c17e	ff	(unknown)  '.'
c17f	ff	(unknown)  '.'
c180	ff	(unknown)  '.'
c181	ff	(unknown)  '.'
c182	ff	(unknown)  '.'
c183	ff	(unknown)  '.'
c184	ff	(unknown)  '.'
c185	ff	(unknown)  '.'
c186	ff	(unknown)  '.'
c187	ff	(unknown)  '.'
c188	ff	(unknown)  '.'
c189	ff	(unknown)  '.'
c18a	ff	(unknown)  '.'
c18b	ff	(unknown)  '.'
c18c	ff	(unknown)  '.'
c18d	ff	(unknown)  '.'
c18e	ff	(unknown)  '.'
c18f	ff	(unknown)  '.'
c190	ff	(unknown)  '.'
c191	ff	(unknown)  '.'
c192	ff	(unknown)  '.'
c193	ff	(unknown)  '.'
c194	ff	(unknown)  '.'
c195	ff	(unknown)  '.'
c196	ff	(unknown)  '.'
c197	ff	(unknown)  '.'
c198	ff	(unknown)  '.'
c199	ff	(unknown)  '.'
c19a	ff	(unknown)  '.'
c19b	ff	(unknown)  '.'
c19c	ff	(unknown)  '.'
c19d	ff	(unknown)  '.'
c19e	ff	(unknown)  '.'
c19f	ff	(unknown)  '.'
c1a0	ff	(unknown)  '.'
c1a1	ff	(unknown)  '.'
c1a2	ff	(unknown)  '.'
c1a3	ff	(unknown)  '.'
c1a4	ff	(unknown)  '.'
c1a5	ff	(unknown)  '.'
c1a6	ff	(unknown)  '.'
c1a7	ff	(unknown)  '.'
c1a8	ff	(unknown)  '.'
c1a9	ff	(unknown)  '.'
c1aa	ff	(unknown)  '.'
c1ab	ff	(unknown)  '.'
c1ac	ff	(unknown)  '.'
c1ad	ff	(unknown)  '.'
c1ae	ff	(unknown)  '.'
c1af	ff	(unknown)  '.'
c1b0	ff	(unknown)  '.'
c1b1	ff	(unknown)  '.'
c1b2	ff	(unknown)  '.'
c1b3	ff	(unknown)  '.'
c1b4	ff	(unknown)  '.'
c1b5	ff	(unknown)  '.'
c1b6	ff	(unknown)  '.'
c1b7	ff	(unknown)  '.'
c1b8	ff	(unknown)  '.'
c1b9	ff	(unknown)  '.'
c1ba	ff	(unknown)  '.'
c1bb	ff	(unknown)  '.'
c1bc	ff	(unknown)  '.'
c1bd	ff	(unknown)  '.'
c1be	ff	(unknown)  '.'
c1bf	ff	(unknown)  '.'
c1c0	ff	(unknown)  '.'
c1c1	ff	(unknown)  '.'
c1c2	ff	(unknown)  '.'
c1c3	ff	(unknown)  '.'
c1c4	ff	(unknown)  '.'
c1c5	ff	(unknown)  '.'
c1c6	ff	(unknown)  '.'
c1c7	ff	(unknown)  '.'
c1c8	ff	(unknown)  '.'
c1c9	ff	(unknown)  '.'
c1ca	ff	(unknown)  '.'
c1cb	ff	(unknown)  '.'
c1cc	ff	(unknown)  '.'
c1cd	ff	(unknown)  '.'
c1ce	ff	(unknown)  '.'
c1cf	ff	(unknown)  '.'
c1d0	ff	(unknown)  '.'
c1d1	ff	(unknown)  '.'
c1d2	ff	(unknown)  '.'
c1d3	ff	(unknown)  '.'
c1d4	ff	(unknown)  '.'
c1d5	ff	(unknown)  '.'
c1d6	ff	(unknown)  '.'
c1d7	ff	(unknown)  '.'
c1d8	ff	(unknown)  '.'
c1d9	ff	(unknown)  '.'
c1da	ff	(unknown)  '.'
c1db	ff	(unknown)  '.'
c1dc	ff	(unknown)  '.'
c1dd	ff	(unknown)  '.'
c1de	ff	(unknown)  '.'
c1df	ff	(unknown)  '.'
c1e0	ff	(unknown)  '.'
c1e1	ff	(unknown)  '.'
c1e2	ff	(unknown)  '.'
c1e3	ff	(unknown)  '.'
c1e4	ff	(unknown)  '.'
c1e5	ff	(unknown)  '.'
c1e6	ff	(unknown)  '.'
c1e7	ff	(unknown)  '.'
c1e8	ff	(unknown)  '.'
c1e9	ff	(unknown)  '.'
c1ea	ff	(unknown)  '.'
c1eb	ff	(unknown)  '.'
c1ec	ff	(unknown)  '.'
c1ed	ff	(unknown)  '.'
c1ee	ff	(unknown)  '.'
c1ef	ff	(unknown)  '.'
c1f0	ff	(unknown)  '.'
c1f1	ff	(unknown)  '.'
c1f2	ff	(unknown)  '.'
c1f3	ff	(unknown)  '.'
c1f4	ff	(unknown)  '.'
c1f5	ff	(unknown)  '.'
c1f6	ff	(unknown)  '.'
c1f7	ff	(unknown)  '.'
c1f8	ff	(unknown)  '.'
c1f9	ff	(unknown)  '.'
c1fa	ff	(unknown)  '.'
c1fb	ff	(unknown)  '.'
c1fc	ff	(unknown)  '.'
c1fd	ff	(unknown)  '.'
c1fe	ff	(unknown)  '.'
c1ff	ff	(unknown)  '.'
c200	ff	(unknown)  '.'
c201	ff	(unknown)  '.'
c202	ff	(unknown)  '.'
c203	ff	(unknown)  '.'
c204	ff	(unknown)  '.'
c205	ff	(unknown)  '.'
c206	ff	(unknown)  '.'
c207	ff	(unknown)  '.'
c208	ff	(unknown)  '.'
c209	ff	(unknown)  '.'
c20a	ff	(unknown)  '.'
c20b	ff	(unknown)  '.'
c20c	ff	(unknown)  '.'
c20d	ff	(unknown)  '.'
c20e	ff	(unknown)  '.'
c20f	ff	(unknown)  '.'
c210	ff	(unknown)  '.'
c211	ff	(unknown)  '.'
c212	ff	(unknown)  '.'
c213	ff	(unknown)  '.'
c214	ff	(unknown)  '.'
c215	ff	(unknown)  '.'
c216	ff	(unknown)  '.'
c217	ff	(unknown)  '.'
c218	ff	(unknown)  '.'
c219	ff	(unknown)  '.'
c21a	ff	(unknown)  '.'
c21b	ff	(unknown)  '.'
c21c	ff	(unknown)  '.'
c21d	ff	(unknown)  '.'
c21e	ff	(unknown)  '.'
c21f	ff	(unknown)  '.'
c220	ff	(unknown)  '.'
c221	ff	(unknown)  '.'
c222	ff	(unknown)  '.'
c223	ff	(unknown)  '.'
c224	ff	(unknown)  '.'
c225	ff	(unknown)  '.'
c226	ff	(unknown)  '.'
c227	ff	(unknown)  '.'
c228	ff	(unknown)  '.'
c229	ff	(unknown)  '.'
c22a	ff	(unknown)  '.'
c22b	ff	(unknown)  '.'
c22c	ff	(unknown)  '.'
c22d	ff	(unknown)  '.'
c22e	ff	(unknown)  '.'
c22f	ff	(unknown)  '.'
c230	ff	(unknown)  '.'
c231	ff	(unknown)  '.'
c232	ff	(unknown)  '.'
c233	ff	(unknown)  '.'
c234	ff	(unknown)  '.'
c235	ff	(unknown)  '.'
c236	ff	(unknown)  '.'
c237	ff	(unknown)  '.'
c238	ff	(unknown)  '.'
c239	ff	(unknown)  '.'
c23a	ff	(unknown)  '.'
c23b	ff	(unknown)  '.'
c23c	ff	(unknown)  '.'
c23d	ff	(unknown)  '.'
c23e	ff	(unknown)  '.'
c23f	ff	(unknown)  '.'
c240	ff	(unknown)  '.'
c241	ff	(unknown)  '.'
c242	ff	(unknown)  '.'
c243	ff	(unknown)  '.'
c244	ff	(unknown)  '.'
c245	ff	(unknown)  '.'
c246	ff	(unknown)  '.'
c247	ff	(unknown)  '.'
c248	ff	(unknown)  '.'
c249	ff	(unknown)  '.'
c24a	ff	(unknown)  '.'
c24b	ff	(unknown)  '.'
c24c	ff	(unknown)  '.'
c24d	ff	(unknown)  '.'
c24e	ff	(unknown)  '.'
c24f	ff	(unknown)  '.'
c250	ff	(unknown)  '.'
c251	ff	(unknown)  '.'
c252	ff	(unknown)  '.'
c253	ff	(unknown)  '.'
c254	ff	(unknown)  '.'
c255	ff	(unknown)  '.'
c256	ff	(unknown)  '.'
c257	ff	(unknown)  '.'
c258	ff	(unknown)  '.'
c259	ff	(unknown)  '.'
c25a	ff	(unknown)  '.'
c25b	ff	(unknown)  '.'
c25c	ff	(unknown)  '.'
c25d	ff	(unknown)  '.'
c25e	ff	(unknown)  '.'
c25f	ff	(unknown)  '.'
c260	ff	(unknown)  '.'
c261	ff	(unknown)  '.'
c262	ff	(unknown)  '.'
c263	ff	(unknown)  '.'
c264	ff	(unknown)  '.'
c265	ff	(unknown)  '.'
c266	ff	(unknown)  '.'
c267	ff	(unknown)  '.'
c268	ff	(unknown)  '.'
c269	ff	(unknown)  '.'
c26a	ff	(unknown)  '.'
c26b	ff	(unknown)  '.'
c26c	ff	(unknown)  '.'
c26d	ff	(unknown)  '.'
c26e	ff	(unknown)  '.'
c26f	ff	(unknown)  '.'
c270	ff	(unknown)  '.'
c271	ff	(unknown)  '.'
c272	ff	(unknown)  '.'
c273	ff	(unknown)  '.'
c274	ff	(unknown)  '.'
c275	ff	(unknown)  '.'
c276	ff	(unknown)  '.'
c277	ff	(unknown)  '.'
c278	ff	(unknown)  '.'
c279	ff	(unknown)  '.'
c27a	ff	(unknown)  '.'
c27b	ff	(unknown)  '.'
c27c	ff	(unknown)  '.'
c27d	ff	(unknown)  '.'
c27e	ff	(unknown)  '.'
c27f	ff	(unknown)  '.'
c280	ff	(unknown)  '.'
c281	ff	(unknown)  '.'
c282	ff	(unknown)  '.'
c283	ff	(unknown)  '.'
c284	ff	(unknown)  '.'
c285	ff	(unknown)  '.'
c286	ff	(unknown)  '.'
c287	ff	(unknown)  '.'
c288	ff	(unknown)  '.'
c289	ff	(unknown)  '.'
c28a	ff	(unknown)  '.'
c28b	ff	(unknown)  '.'
c28c	ff	(unknown)  '.'
c28d	ff	(unknown)  '.'
c28e	ff	(unknown)  '.'
c28f	ff	(unknown)  '.'
c290	ff	(unknown)  '.'
c291	ff	(unknown)  '.'
c292	ff	(unknown)  '.'
c293	ff	(unknown)  '.'
c294	ff	(unknown)  '.'
c295	ff	(unknown)  '.'
c296	ff	(unknown)  '.'
c297	ff	(unknown)  '.'
c298	ff	(unknown)  '.'
c299	ff	(unknown)  '.'
c29a	ff	(unknown)  '.'
c29b	ff	(unknown)  '.'
c29c	ff	(unknown)  '.'
c29d	ff	(unknown)  '.'
c29e	ff	(unknown)  '.'
c29f	ff	(unknown)  '.'
c2a0	ff	(unknown)  '.'
c2a1	ff	(unknown)  '.'
c2a2	ff	(unknown)  '.'
c2a3	ff	(unknown)  '.'
c2a4	ff	(unknown)  '.'
c2a5	ff	(unknown)  '.'
c2a6	ff	(unknown)  '.'
c2a7	ff	(unknown)  '.'
c2a8	ff	(unknown)  '.'
c2a9	ff	(unknown)  '.'
c2aa	ff	(unknown)  '.'
c2ab	ff	(unknown)  '.'
c2ac	ff	(unknown)  '.'
c2ad	ff	(unknown)  '.'
c2ae	ff	(unknown)  '.'
c2af	ff	(unknown)  '.'
c2b0	ff	(unknown)  '.'
c2b1	ff	(unknown)  '.'
c2b2	ff	(unknown)  '.'
c2b3	ff	(unknown)  '.'
c2b4	ff	(unknown)  '.'
c2b5	ff	(unknown)  '.'
c2b6	ff	(unknown)  '.'
c2b7	ff	(unknown)  '.'
c2b8	ff	(unknown)  '.'
c2b9	ff	(unknown)  '.'
c2ba	ff	(unknown)  '.'
c2bb	ff	(unknown)  '.'
c2bc	ff	(unknown)  '.'
c2bd	ff	(unknown)  '.'
c2be	ff	(unknown)  '.'
c2bf	ff	(unknown)  '.'
c2c0	ff	(unknown)  '.'
c2c1	ff	(unknown)  '.'
c2c2	ff	(unknown)  '.'
c2c3	ff	(unknown)  '.'
c2c4	ff	(unknown)  '.'
c2c5	ff	(unknown)  '.'
c2c6	ff	(unknown)  '.'
c2c7	ff	(unknown)  '.'
c2c8	ff	(unknown)  '.'
c2c9	ff	(unknown)  '.'
c2ca	ff	(unknown)  '.'
c2cb	ff	(unknown)  '.'
c2cc	ff	(unknown)  '.'
c2cd	ff	(unknown)  '.'
c2ce	ff	(unknown)  '.'
c2cf	ff	(unknown)  '.'
c2d0	ff	(unknown)  '.'
c2d1	ff	(unknown)  '.'
c2d2	ff	(unknown)  '.'
c2d3	ff	(unknown)  '.'
c2d4	ff	(unknown)  '.'
c2d5	ff	(unknown)  '.'
c2d6	ff	(unknown)  '.'
c2d7	ff	(unknown)  '.'
c2d8	ff	(unknown)  '.'
c2d9	ff	(unknown)  '.'
c2da	ff	(unknown)  '.'
c2db	ff	(unknown)  '.'
c2dc	ff	(unknown)  '.'
c2dd	ff	(unknown)  '.'
c2de	ff	(unknown)  '.'
c2df	ff	(unknown)  '.'
c2e0	ff	(unknown)  '.'
c2e1	ff	(unknown)  '.'
c2e2	ff	(unknown)  '.'
c2e3	ff	(unknown)  '.'
c2e4	ff	(unknown)  '.'
c2e5	ff	(unknown)  '.'
c2e6	ff	(unknown)  '.'
c2e7	ff	(unknown)  '.'
c2e8	ff	(unknown)  '.'
c2e9	ff	(unknown)  '.'
c2ea	ff	(unknown)  '.'
c2eb	ff	(unknown)  '.'
c2ec	ff	(unknown)  '.'
c2ed	ff	(unknown)  '.'
c2ee	ff	(unknown)  '.'
c2ef	ff	(unknown)  '.'
c2f0	ff	(unknown)  '.'
c2f1	ff	(unknown)  '.'
c2f2	ff	(unknown)  '.'
c2f3	ff	(unknown)  '.'
c2f4	ff	(unknown)  '.'
c2f5	ff	(unknown)  '.'
c2f6	ff	(unknown)  '.'
c2f7	ff	(unknown)  '.'
c2f8	ff	(unknown)  '.'
c2f9	ff	(unknown)  '.'
c2fa	ff	(unknown)  '.'
c2fb	ff	(unknown)  '.'
c2fc	ff	(unknown)  '.'
c2fd	ff	(unknown)  '.'
c2fe	ff	(unknown)  '.'
c2ff	ff	(unknown)  '.'
c300	ff	(unknown)  '.'
c301	ff	(unknown)  '.'
c302	ff	(unknown)  '.'
c303	ff	(unknown)  '.'
c304	ff	(unknown)  '.'
c305	ff	(unknown)  '.'
c306	ff	(unknown)  '.'
c307	ff	(unknown)  '.'
c308	ff	(unknown)  '.'
c309	ff	(unknown)  '.'
c30a	ff	(unknown)  '.'
c30b	ff	(unknown)  '.'
c30c	ff	(unknown)  '.'
c30d	ff	(unknown)  '.'
c30e	ff	(unknown)  '.'
c30f	ff	(unknown)  '.'
c310	ff	(unknown)  '.'
c311	ff	(unknown)  '.'
c312	ff	(unknown)  '.'
c313	ff	(unknown)  '.'
c314	ff	(unknown)  '.'
c315	ff	(unknown)  '.'
c316	ff	(unknown)  '.'
c317	ff	(unknown)  '.'
c318	ff	(unknown)  '.'
c319	ff	(unknown)  '.'
c31a	ff	(unknown)  '.'
c31b	ff	(unknown)  '.'
c31c	ff	(unknown)  '.'
c31d	ff	(unknown)  '.'
c31e	ff	(unknown)  '.'
c31f	ff	(unknown)  '.'
c320	ff	(unknown)  '.'
c321	ff	(unknown)  '.'
c322	ff	(unknown)  '.'
c323	ff	(unknown)  '.'
c324	ff	(unknown)  '.'
c325	ff	(unknown)  '.'
c326	ff	(unknown)  '.'
c327	ff	(unknown)  '.'
c328	ff	(unknown)  '.'
c329	ff	(unknown)  '.'
c32a	ff	(unknown)  '.'
c32b	ff	(unknown)  '.'
c32c	ff	(unknown)  '.'
c32d	ff	(unknown)  '.'
c32e	ff	(unknown)  '.'
c32f	ff	(unknown)  '.'
c330	ff	(unknown)  '.'
c331	ff	(unknown)  '.'
c332	ff	(unknown)  '.'
c333	ff	(unknown)  '.'
c334	ff	(unknown)  '.'
c335	ff	(unknown)  '.'
c336	ff	(unknown)  '.'
c337	ff	(unknown)  '.'
c338	ff	(unknown)  '.'
c339	ff	(unknown)  '.'
c33a	ff	(unknown)  '.'
c33b	ff	(unknown)  '.'
c33c	ff	(unknown)  '.'
c33d	ff	(unknown)  '.'
c33e	ff	(unknown)  '.'
c33f	ff	(unknown)  '.'
c340	ff	(unknown)  '.'
c341	ff	(unknown)  '.'
c342	ff	(unknown)  '.'
c343	ff	(unknown)  '.'
c344	ff	(unknown)  '.'
c345	ff	(unknown)  '.'
c346	ff	(unknown)  '.'
c347	ff	(unknown)  '.'
c348	ff	(unknown)  '.'
c349	ff	(unknown)  '.'
c34a	ff	(unknown)  '.'
c34b	ff	(unknown)  '.'
c34c	ff	(unknown)  '.'
c34d	ff	(unknown)  '.'
c34e	ff	(unknown)  '.'
c34f	ff	(unknown)  '.'
c350	ff	(unknown)  '.'
c351	ff	(unknown)  '.'
c352	ff	(unknown)  '.'
c353	ff	(unknown)  '.'
c354	ff	(unknown)  '.'
c355	ff	(unknown)  '.'
c356	ff	(unknown)  '.'
c357	ff	(unknown)  '.'
c358	ff	(unknown)  '.'
c359	ff	(unknown)  '.'
c35a	ff	(unknown)  '.'
c35b	ff	(unknown)  '.'
c35c	ff	(unknown)  '.'
c35d	ff	(unknown)  '.'
c35e	ff	(unknown)  '.'
c35f	ff	(unknown)  '.'
c360	ff	(unknown)  '.'
c361	ff	(unknown)  '.'
c362	ff	(unknown)  '.'
c363	ff	(unknown)  '.'
c364	ff	(unknown)  '.'
c365	ff	(unknown)  '.'
c366	ff	(unknown)  '.'
c367	ff	(unknown)  '.'
c368	ff	(unknown)  '.'
c369	ff	(unknown)  '.'
c36a	ff	(unknown)  '.'
c36b	ff	(unknown)  '.'
c36c	ff	(unknown)  '.'
c36d	ff	(unknown)  '.'
c36e	ff	(unknown)  '.'
c36f	ff	(unknown)  '.'
c370	ff	(unknown)  '.'
c371	ff	(unknown)  '.'
c372	ff	(unknown)  '.'
c373	ff	(unknown)  '.'
c374	ff	(unknown)  '.'
c375	ff	(unknown)  '.'
c376	ff	(unknown)  '.'
c377	ff	(unknown)  '.'
c378	ff	(unknown)  '.'
c379	ff	(unknown)  '.'
c37a	ff	(unknown)  '.'
c37b	ff	(unknown)  '.'
c37c	ff	(unknown)  '.'
c37d	ff	(unknown)  '.'
c37e	ff	(unknown)  '.'
c37f	ff	(unknown)  '.'
c380	ff	(unknown)  '.'
c381	ff	(unknown)  '.'
c382	ff	(unknown)  '.'
c383	ff	(unknown)  '.'
c384	ff	(unknown)  '.'
c385	ff	(unknown)  '.'
c386	ff	(unknown)  '.'
c387	ff	(unknown)  '.'
c388	ff	(unknown)  '.'
c389	ff	(unknown)  '.'
c38a	ff	(unknown)  '.'
c38b	ff	(unknown)  '.'
c38c	ff	(unknown)  '.'
c38d	ff	(unknown)  '.'
c38e	ff	(unknown)  '.'
c38f	ff	(unknown)  '.'
c390	ff	(unknown)  '.'
c391	ff	(unknown)  '.'
c392	ff	(unknown)  '.'
c393	ff	(unknown)  '.'
c394	ff	(unknown)  '.'
c395	ff	(unknown)  '.'
c396	ff	(unknown)  '.'
c397	ff	(unknown)  '.'
c398	ff	(unknown)  '.'
c399	ff	(unknown)  '.'
c39a	ff	(unknown)  '.'
c39b	ff	(unknown)  '.'
c39c	ff	(unknown)  '.'
c39d	ff	(unknown)  '.'
c39e	ff	(unknown)  '.'
c39f	ff	(unknown)  '.'
c3a0	ff	(unknown)  '.'
c3a1	ff	(unknown)  '.'
c3a2	ff	(unknown)  '.'
c3a3	ff	(unknown)  '.'
c3a4	ff	(unknown)  '.'
c3a5	ff	(unknown)  '.'
c3a6	ff	(unknown)  '.'
c3a7	ff	(unknown)  '.'
c3a8	ff	(unknown)  '.'
c3a9	ff	(unknown)  '.'
c3aa	ff	(unknown)  '.'
c3ab	ff	(unknown)  '.'
c3ac	ff	(unknown)  '.'
c3ad	ff	(unknown)  '.'
c3ae	ff	(unknown)  '.'
c3af	ff	(unknown)  '.'
c3b0	ff	(unknown)  '.'
c3b1	ff	(unknown)  '.'
c3b2	ff	(unknown)  '.'
c3b3	ff	(unknown)  '.'
c3b4	ff	(unknown)  '.'
c3b5	ff	(unknown)  '.'
c3b6	ff	(unknown)  '.'
c3b7	ff	(unknown)  '.'
c3b8	ff	(unknown)  '.'
c3b9	ff	(unknown)  '.'
c3ba	ff	(unknown)  '.'
c3bb	ff	(unknown)  '.'
c3bc	ff	(unknown)  '.'
c3bd	ff	(unknown)  '.'
c3be	ff	(unknown)  '.'
c3bf	ff	(unknown)  '.'
c3c0	ff	(unknown)  '.'
c3c1	ff	(unknown)  '.'
c3c2	ff	(unknown)  '.'
c3c3	ff	(unknown)  '.'
c3c4	ff	(unknown)  '.'
c3c5	ff	(unknown)  '.'
c3c6	ff	(unknown)  '.'
c3c7	ff	(unknown)  '.'
c3c8	ff	(unknown)  '.'
c3c9	ff	(unknown)  '.'
c3ca	ff	(unknown)  '.'
c3cb	ff	(unknown)  '.'
c3cc	ff	(unknown)  '.'
c3cd	ff	(unknown)  '.'
c3ce	ff	(unknown)  '.'
c3cf	ff	(unknown)  '.'
c3d0	ff	(unknown)  '.'
c3d1	ff	(unknown)  '.'
c3d2	ff	(unknown)  '.'
c3d3	ff	(unknown)  '.'
c3d4	ff	(unknown)  '.'
c3d5	ff	(unknown)  '.'
c3d6	ff	(unknown)  '.'
c3d7	ff	(unknown)  '.'
c3d8	ff	(unknown)  '.'
c3d9	ff	(unknown)  '.'
c3da	ff	(unknown)  '.'
c3db	ff	(unknown)  '.'
c3dc	ff	(unknown)  '.'
c3dd	ff	(unknown)  '.'
c3de	ff	(unknown)  '.'
c3df	ff	(unknown)  '.'
c3e0	ff	(unknown)  '.'
c3e1	ff	(unknown)  '.'
c3e2	ff	(unknown)  '.'
c3e3	ff	(unknown)  '.'
c3e4	ff	(unknown)  '.'
c3e5	ff	(unknown)  '.'
c3e6	ff	(unknown)  '.'
c3e7	ff	(unknown)  '.'
c3e8	ff	(unknown)  '.'
c3e9	ff	(unknown)  '.'
c3ea	ff	(unknown)  '.'
c3eb	ff	(unknown)  '.'
c3ec	ff	(unknown)  '.'
c3ed	ff	(unknown)  '.'
c3ee	ff	(unknown)  '.'
c3ef	ff	(unknown)  '.'
c3f0	ff	(unknown)  '.'
c3f1	ff	(unknown)  '.'
c3f2	ff	(unknown)  '.'
c3f3	ff	(unknown)  '.'
c3f4	ff	(unknown)  '.'
c3f5	ff	(unknown)  '.'
c3f6	ff	(unknown)  '.'
c3f7	ff	(unknown)  '.'
c3f8	ff	(unknown)  '.'
c3f9	ff	(unknown)  '.'
c3fa	ff	(unknown)  '.'
c3fb	ff	(unknown)  '.'
c3fc	ff	(unknown)  '.'
c3fd	ff	(unknown)  '.'
c3fe	ff	(unknown)  '.'
c3ff	ff	(unknown)  '.'
c400	ff	(unknown)  '.'
c401	ff	(unknown)  '.'
c402	ff	(unknown)  '.'
c403	ff	(unknown)  '.'
c404	ff	(unknown)  '.'
c405	ff	(unknown)  '.'
c406	ff	(unknown)  '.'
c407	ff	(unknown)  '.'
c408	ff	(unknown)  '.'
c409	ff	(unknown)  '.'
c40a	ff	(unknown)  '.'
c40b	ff	(unknown)  '.'
c40c	ff	(unknown)  '.'
c40d	ff	(unknown)  '.'
c40e	ff	(unknown)  '.'
c40f	ff	(unknown)  '.'
c410	ff	(unknown)  '.'
c411	ff	(unknown)  '.'
c412	ff	(unknown)  '.'
c413	ff	(unknown)  '.'
c414	ff	(unknown)  '.'
c415	ff	(unknown)  '.'
c416	ff	(unknown)  '.'
c417	ff	(unknown)  '.'
c418	ff	(unknown)  '.'
c419	ff	(unknown)  '.'
c41a	ff	(unknown)  '.'
c41b	ff	(unknown)  '.'
c41c	ff	(unknown)  '.'
c41d	ff	(unknown)  '.'
c41e	ff	(unknown)  '.'
c41f	ff	(unknown)  '.'
c420	ff	(unknown)  '.'
c421	ff	(unknown)  '.'
c422	ff	(unknown)  '.'
c423	ff	(unknown)  '.'
c424	ff	(unknown)  '.'
c425	ff	(unknown)  '.'
c426	ff	(unknown)  '.'
c427	ff	(unknown)  '.'
c428	ff	(unknown)  '.'
c429	ff	(unknown)  '.'
c42a	ff	(unknown)  '.'
c42b	ff	(unknown)  '.'
c42c	ff	(unknown)  '.'
c42d	ff	(unknown)  '.'
c42e	ff	(unknown)  '.'
c42f	ff	(unknown)  '.'
c430	ff	(unknown)  '.'
c431	ff	(unknown)  '.'
c432	ff	(unknown)  '.'
c433	ff	(unknown)  '.'
c434	ff	(unknown)  '.'
c435	ff	(unknown)  '.'
c436	ff	(unknown)  '.'
c437	ff	(unknown)  '.'
c438	ff	(unknown)  '.'
c439	ff	(unknown)  '.'
c43a	ff	(unknown)  '.'
c43b	ff	(unknown)  '.'
c43c	ff	(unknown)  '.'
c43d	ff	(unknown)  '.'
c43e	ff	(unknown)  '.'
c43f	ff	(unknown)  '.'
c440	ff	(unknown)  '.'
c441	ff	(unknown)  '.'
c442	ff	(unknown)  '.'
c443	ff	(unknown)  '.'
c444	ff	(unknown)  '.'
c445	ff	(unknown)  '.'
c446	ff	(unknown)  '.'
c447	ff	(unknown)  '.'
c448	ff	(unknown)  '.'
c449	ff	(unknown)  '.'
c44a	ff	(unknown)  '.'
c44b	ff	(unknown)  '.'
c44c	ff	(unknown)  '.'
c44d	ff	(unknown)  '.'
c44e	ff	(unknown)  '.'
c44f	ff	(unknown)  '.'
c450	ff	(unknown)  '.'
c451	ff	(unknown)  '.'
c452	ff	(unknown)  '.'
c453	ff	(unknown)  '.'
c454	ff	(unknown)  '.'
c455	ff	(unknown)  '.'
c456	ff	(unknown)  '.'
c457	ff	(unknown)  '.'
c458	ff	(unknown)  '.'
c459	ff	(unknown)  '.'
c45a	ff	(unknown)  '.'
c45b	ff	(unknown)  '.'
c45c	ff	(unknown)  '.'
c45d	ff	(unknown)  '.'
c45e	ff	(unknown)  '.'
c45f	ff	(unknown)  '.'
c460	ff	(unknown)  '.'
c461	ff	(unknown)  '.'
c462	ff	(unknown)  '.'
c463	ff	(unknown)  '.'
c464	ff	(unknown)  '.'
c465	ff	(unknown)  '.'
c466	ff	(unknown)  '.'
c467	ff	(unknown)  '.'
c468	ff	(unknown)  '.'
c469	ff	(unknown)  '.'
c46a	ff	(unknown)  '.'
c46b	ff	(unknown)  '.'
c46c	ff	(unknown)  '.'
c46d	ff	(unknown)  '.'
c46e	ff	(unknown)  '.'
c46f	ff	(unknown)  '.'
c470	ff	(unknown)  '.'
c471	ff	(unknown)  '.'
c472	ff	(unknown)  '.'
c473	ff	(unknown)  '.'
c474	ff	(unknown)  '.'
c475	ff	(unknown)  '.'
c476	ff	(unknown)  '.'
c477	ff	(unknown)  '.'
c478	ff	(unknown)  '.'
c479	ff	(unknown)  '.'
c47a	ff	(unknown)  '.'
c47b	ff	(unknown)  '.'
c47c	ff	(unknown)  '.'
c47d	ff	(unknown)  '.'
c47e	ff	(unknown)  '.'
c47f	ff	(unknown)  '.'
c480	ff	(unknown)  '.'
c481	ff	(unknown)  '.'
c482	ff	(unknown)  '.'
c483	ff	(unknown)  '.'
c484	ff	(unknown)  '.'
c485	ff	(unknown)  '.'
c486	ff	(unknown)  '.'
c487	ff	(unknown)  '.'
c488	ff	(unknown)  '.'
c489	ff	(unknown)  '.'
c48a	ff	(unknown)  '.'
c48b	ff	(unknown)  '.'
c48c	ff	(unknown)  '.'
c48d	ff	(unknown)  '.'
c48e	ff	(unknown)  '.'
c48f	ff	(unknown)  '.'
c490	ff	(unknown)  '.'
c491	ff	(unknown)  '.'
c492	ff	(unknown)  '.'
c493	ff	(unknown)  '.'
c494	ff	(unknown)  '.'
c495	ff	(unknown)  '.'
c496	ff	(unknown)  '.'
c497	ff	(unknown)  '.'
c498	ff	(unknown)  '.'
c499	ff	(unknown)  '.'
c49a	ff	(unknown)  '.'
c49b	ff	(unknown)  '.'
c49c	ff	(unknown)  '.'
c49d	ff	(unknown)  '.'
c49e	ff	(unknown)  '.'
c49f	ff	(unknown)  '.'
c4a0	ff	(unknown)  '.'
c4a1	ff	(unknown)  '.'
c4a2	ff	(unknown)  '.'
c4a3	ff	(unknown)  '.'
c4a4	ff	(unknown)  '.'
c4a5	ff	(unknown)  '.'
c4a6	ff	(unknown)  '.'
c4a7	ff	(unknown)  '.'
c4a8	ff	(unknown)  '.'
c4a9	ff	(unknown)  '.'
c4aa	ff	(unknown)  '.'
c4ab	ff	(unknown)  '.'
c4ac	ff	(unknown)  '.'
c4ad	ff	(unknown)  '.'
c4ae	ff	(unknown)  '.'
c4af	ff	(unknown)  '.'
c4b0	ff	(unknown)  '.'
c4b1	ff	(unknown)  '.'
c4b2	ff	(unknown)  '.'
c4b3	ff	(unknown)  '.'
c4b4	ff	(unknown)  '.'
c4b5	ff	(unknown)  '.'
c4b6	ff	(unknown)  '.'
c4b7	ff	(unknown)  '.'
c4b8	ff	(unknown)  '.'
c4b9	ff	(unknown)  '.'
c4ba	ff	(unknown)  '.'
c4bb	ff	(unknown)  '.'
c4bc	ff	(unknown)  '.'
c4bd	ff	(unknown)  '.'
c4be	ff	(unknown)  '.'
c4bf	ff	(unknown)  '.'
c4c0	ff	(unknown)  '.'
c4c1	ff	(unknown)  '.'
c4c2	ff	(unknown)  '.'
c4c3	ff	(unknown)  '.'
c4c4	ff	(unknown)  '.'
c4c5	ff	(unknown)  '.'
c4c6	ff	(unknown)  '.'
c4c7	ff	(unknown)  '.'
c4c8	ff	(unknown)  '.'
c4c9	ff	(unknown)  '.'
c4ca	ff	(unknown)  '.'
c4cb	ff	(unknown)  '.'
c4cc	ff	(unknown)  '.'
c4cd	ff	(unknown)  '.'
c4ce	ff	(unknown)  '.'
c4cf	ff	(unknown)  '.'
c4d0	ff	(unknown)  '.'
c4d1	ff	(unknown)  '.'
c4d2	ff	(unknown)  '.'
c4d3	ff	(unknown)  '.'
c4d4	ff	(unknown)  '.'
c4d5	ff	(unknown)  '.'
c4d6	ff	(unknown)  '.'
c4d7	ff	(unknown)  '.'
c4d8	ff	(unknown)  '.'
c4d9	ff	(unknown)  '.'
c4da	ff	(unknown)  '.'
c4db	ff	(unknown)  '.'
c4dc	ff	(unknown)  '.'
c4dd	ff	(unknown)  '.'
c4de	ff	(unknown)  '.'
c4df	ff	(unknown)  '.'
c4e0	ff	(unknown)  '.'
c4e1	ff	(unknown)  '.'
c4e2	ff	(unknown)  '.'
c4e3	ff	(unknown)  '.'
c4e4	ff	(unknown)  '.'
c4e5	ff	(unknown)  '.'
c4e6	ff	(unknown)  '.'
c4e7	ff	(unknown)  '.'
c4e8	ff	(unknown)  '.'
c4e9	ff	(unknown)  '.'
c4ea	ff	(unknown)  '.'
c4eb	ff	(unknown)  '.'
c4ec	ff	(unknown)  '.'
c4ed	ff	(unknown)  '.'
c4ee	ff	(unknown)  '.'
c4ef	ff	(unknown)  '.'
c4f0	ff	(unknown)  '.'
c4f1	ff	(unknown)  '.'
c4f2	ff	(unknown)  '.'
c4f3	ff	(unknown)  '.'
c4f4	ff	(unknown)  '.'
c4f5	ff	(unknown)  '.'
c4f6	ff	(unknown)  '.'
c4f7	ff	(unknown)  '.'
c4f8	ff	(unknown)  '.'
c4f9	ff	(unknown)  '.'
c4fa	ff	(unknown)  '.'
c4fb	ff	(unknown)  '.'
c4fc	ff	(unknown)  '.'
c4fd	ff	(unknown)  '.'
c4fe	ff	(unknown)  '.'
c4ff	ff	(unknown)  '.'
c500	ff	(unknown)  '.'
c501	ff	(unknown)  '.'
c502	ff	(unknown)  '.'
c503	ff	(unknown)  '.'
c504	ff	(unknown)  '.'
c505	ff	(unknown)  '.'
c506	ff	(unknown)  '.'
c507	ff	(unknown)  '.'
c508	ff	(unknown)  '.'
c509	ff	(unknown)  '.'
c50a	ff	(unknown)  '.'
c50b	ff	(unknown)  '.'
c50c	ff	(unknown)  '.'
c50d	ff	(unknown)  '.'
c50e	ff	(unknown)  '.'
c50f	ff	(unknown)  '.'
c510	ff	(unknown)  '.'
c511	ff	(unknown)  '.'
c512	ff	(unknown)  '.'
c513	ff	(unknown)  '.'
c514	ff	(unknown)  '.'
c515	ff	(unknown)  '.'
c516	ff	(unknown)  '.'
c517	ff	(unknown)  '.'
c518	ff	(unknown)  '.'
c519	ff	(unknown)  '.'
c51a	ff	(unknown)  '.'
c51b	ff	(unknown)  '.'
c51c	ff	(unknown)  '.'
c51d	ff	(unknown)  '.'
c51e	ff	(unknown)  '.'
c51f	ff	(unknown)  '.'
c520	ff	(unknown)  '.'
c521	ff	(unknown)  '.'
c522	ff	(unknown)  '.'
c523	ff	(unknown)  '.'
c524	ff	(unknown)  '.'
c525	ff	(unknown)  '.'
c526	ff	(unknown)  '.'
c527	ff	(unknown)  '.'
c528	ff	(unknown)  '.'
c529	ff	(unknown)  '.'
c52a	ff	(unknown)  '.'
c52b	ff	(unknown)  '.'
c52c	ff	(unknown)  '.'
c52d	ff	(unknown)  '.'
c52e	ff	(unknown)  '.'
c52f	ff	(unknown)  '.'
c530	ff	(unknown)  '.'
c531	ff	(unknown)  '.'
c532	ff	(unknown)  '.'
c533	ff	(unknown)  '.'
c534	ff	(unknown)  '.'
c535	ff	(unknown)  '.'
c536	ff	(unknown)  '.'
c537	ff	(unknown)  '.'
c538	ff	(unknown)  '.'
c539	ff	(unknown)  '.'
c53a	ff	(unknown)  '.'
c53b	ff	(unknown)  '.'
c53c	ff	(unknown)  '.'
c53d	ff	(unknown)  '.'
c53e	ff	(unknown)  '.'
c53f	ff	(unknown)  '.'
c540	ff	(unknown)  '.'
c541	ff	(unknown)  '.'
c542	ff	(unknown)  '.'
c543	ff	(unknown)  '.'
c544	ff	(unknown)  '.'
c545	ff	(unknown)  '.'
c546	ff	(unknown)  '.'
c547	ff	(unknown)  '.'
c548	ff	(unknown)  '.'
c549	ff	(unknown)  '.'
c54a	ff	(unknown)  '.'
c54b	ff	(unknown)  '.'
c54c	ff	(unknown)  '.'
c54d	ff	(unknown)  '.'
c54e	ff	(unknown)  '.'
c54f	ff	(unknown)  '.'
c550	ff	(unknown)  '.'
c551	ff	(unknown)  '.'
c552	ff	(unknown)  '.'
c553	ff	(unknown)  '.'
c554	ff	(unknown)  '.'
c555	ff	(unknown)  '.'
c556	ff	(unknown)  '.'
c557	ff	(unknown)  '.'
c558	ff	(unknown)  '.'
c559	ff	(unknown)  '.'
c55a	ff	(unknown)  '.'
c55b	ff	(unknown)  '.'
c55c	ff	(unknown)  '.'
c55d	ff	(unknown)  '.'
c55e	ff	(unknown)  '.'
c55f	ff	(unknown)  '.'
c560	ff	(unknown)  '.'
c561	ff	(unknown)  '.'
c562	ff	(unknown)  '.'
c563	ff	(unknown)  '.'
c564	ff	(unknown)  '.'
c565	ff	(unknown)  '.'
c566	ff	(unknown)  '.'
c567	ff	(unknown)  '.'
c568	ff	(unknown)  '.'
c569	ff	(unknown)  '.'
c56a	ff	(unknown)  '.'
c56b	ff	(unknown)  '.'
c56c	ff	(unknown)  '.'
c56d	ff	(unknown)  '.'
c56e	ff	(unknown)  '.'
c56f	ff	(unknown)  '.'
c570	ff	(unknown)  '.'
c571	ff	(unknown)  '.'
c572	ff	(unknown)  '.'
c573	ff	(unknown)  '.'
c574	ff	(unknown)  '.'
c575	ff	(unknown)  '.'
c576	ff	(unknown)  '.'
c577	ff	(unknown)  '.'
c578	ff	(unknown)  '.'
c579	ff	(unknown)  '.'
c57a	ff	(unknown)  '.'
c57b	ff	(unknown)  '.'
c57c	ff	(unknown)  '.'
c57d	ff	(unknown)  '.'
c57e	ff	(unknown)  '.'
c57f	ff	(unknown)  '.'
c580	ff	(unknown)  '.'
c581	ff	(unknown)  '.'
c582	ff	(unknown)  '.'
c583	ff	(unknown)  '.'
c584	ff	(unknown)  '.'
c585	ff	(unknown)  '.'
c586	ff	(unknown)  '.'
c587	ff	(unknown)  '.'
c588	ff	(unknown)  '.'
c589	ff	(unknown)  '.'
c58a	ff	(unknown)  '.'
c58b	ff	(unknown)  '.'
c58c	ff	(unknown)  '.'
c58d	ff	(unknown)  '.'
c58e	ff	(unknown)  '.'
c58f	ff	(unknown)  '.'
c590	ff	(unknown)  '.'
c591	ff	(unknown)  '.'
c592	ff	(unknown)  '.'
c593	ff	(unknown)  '.'
c594	ff	(unknown)  '.'
c595	ff	(unknown)  '.'
c596	ff	(unknown)  '.'
c597	ff	(unknown)  '.'
c598	ff	(unknown)  '.'
c599	ff	(unknown)  '.'
c59a	ff	(unknown)  '.'
c59b	ff	(unknown)  '.'
c59c	ff	(unknown)  '.'
c59d	ff	(unknown)  '.'
c59e	ff	(unknown)  '.'
c59f	ff	(unknown)  '.'
c5a0	ff	(unknown)  '.'
c5a1	ff	(unknown)  '.'
c5a2	ff	(unknown)  '.'
c5a3	ff	(unknown)  '.'
c5a4	ff	(unknown)  '.'
c5a5	ff	(unknown)  '.'
c5a6	ff	(unknown)  '.'
c5a7	ff	(unknown)  '.'
c5a8	ff	(unknown)  '.'
c5a9	ff	(unknown)  '.'
c5aa	ff	(unknown)  '.'
c5ab	ff	(unknown)  '.'
c5ac	ff	(unknown)  '.'
c5ad	ff	(unknown)  '.'
c5ae	ff	(unknown)  '.'
c5af	ff	(unknown)  '.'
c5b0	ff	(unknown)  '.'
c5b1	ff	(unknown)  '.'
c5b2	ff	(unknown)  '.'
c5b3	ff	(unknown)  '.'
c5b4	ff	(unknown)  '.'
c5b5	ff	(unknown)  '.'
c5b6	ff	(unknown)  '.'
c5b7	ff	(unknown)  '.'
c5b8	ff	(unknown)  '.'
c5b9	ff	(unknown)  '.'
c5ba	ff	(unknown)  '.'
c5bb	ff	(unknown)  '.'
c5bc	ff	(unknown)  '.'
c5bd	ff	(unknown)  '.'
c5be	ff	(unknown)  '.'
c5bf	ff	(unknown)  '.'
c5c0	ff	(unknown)  '.'
c5c1	ff	(unknown)  '.'
c5c2	ff	(unknown)  '.'
c5c3	ff	(unknown)  '.'
c5c4	ff	(unknown)  '.'
c5c5	ff	(unknown)  '.'
c5c6	ff	(unknown)  '.'
c5c7	ff	(unknown)  '.'
c5c8	ff	(unknown)  '.'
c5c9	ff	(unknown)  '.'
c5ca	ff	(unknown)  '.'
c5cb	ff	(unknown)  '.'
c5cc	ff	(unknown)  '.'
c5cd	ff	(unknown)  '.'
c5ce	ff	(unknown)  '.'
c5cf	ff	(unknown)  '.'
c5d0	ff	(unknown)  '.'
c5d1	ff	(unknown)  '.'
c5d2	ff	(unknown)  '.'
c5d3	ff	(unknown)  '.'
c5d4	ff	(unknown)  '.'
c5d5	ff	(unknown)  '.'
c5d6	ff	(unknown)  '.'
c5d7	ff	(unknown)  '.'
c5d8	ff	(unknown)  '.'
c5d9	ff	(unknown)  '.'
c5da	ff	(unknown)  '.'
c5db	ff	(unknown)  '.'
c5dc	ff	(unknown)  '.'
c5dd	ff	(unknown)  '.'
c5de	ff	(unknown)  '.'
c5df	ff	(unknown)  '.'
c5e0	ff	(unknown)  '.'
c5e1	ff	(unknown)  '.'
c5e2	ff	(unknown)  '.'
c5e3	ff	(unknown)  '.'
c5e4	ff	(unknown)  '.'
c5e5	ff	(unknown)  '.'
c5e6	ff	(unknown)  '.'
c5e7	ff	(unknown)  '.'
c5e8	ff	(unknown)  '.'
c5e9	ff	(unknown)  '.'
c5ea	ff	(unknown)  '.'
c5eb	ff	(unknown)  '.'
c5ec	ff	(unknown)  '.'
c5ed	ff	(unknown)  '.'
c5ee	ff	(unknown)  '.'
c5ef	ff	(unknown)  '.'
c5f0	ff	(unknown)  '.'
c5f1	ff	(unknown)  '.'
c5f2	ff	(unknown)  '.'
c5f3	ff	(unknown)  '.'
c5f4	ff	(unknown)  '.'
c5f5	ff	(unknown)  '.'
c5f6	ff	(unknown)  '.'
c5f7	ff	(unknown)  '.'
c5f8	ff	(unknown)  '.'
c5f9	ff	(unknown)  '.'
c5fa	ff	(unknown)  '.'
c5fb	ff	(unknown)  '.'
c5fc	ff	(unknown)  '.'
c5fd	ff	(unknown)  '.'
c5fe	ff	(unknown)  '.'
c5ff	ff	(unknown)  '.'
c600	ff	(unknown)  '.'
c601	ff	(unknown)  '.'
c602	ff	(unknown)  '.'
c603	ff	(unknown)  '.'
c604	ff	(unknown)  '.'
c605	ff	(unknown)  '.'
c606	ff	(unknown)  '.'
c607	ff	(unknown)  '.'
c608	ff	(unknown)  '.'
c609	ff	(unknown)  '.'
c60a	ff	(unknown)  '.'
c60b	ff	(unknown)  '.'
c60c	ff	(unknown)  '.'
c60d	ff	(unknown)  '.'
c60e	ff	(unknown)  '.'
c60f	ff	(unknown)  '.'
c610	ff	(unknown)  '.'
c611	ff	(unknown)  '.'
c612	ff	(unknown)  '.'
c613	ff	(unknown)  '.'
c614	ff	(unknown)  '.'
c615	ff	(unknown)  '.'
c616	ff	(unknown)  '.'
c617	ff	(unknown)  '.'
c618	ff	(unknown)  '.'
c619	ff	(unknown)  '.'
c61a	ff	(unknown)  '.'
c61b	ff	(unknown)  '.'
c61c	ff	(unknown)  '.'
c61d	ff	(unknown)  '.'
c61e	ff	(unknown)  '.'
c61f	ff	(unknown)  '.'
c620	ff	(unknown)  '.'
c621	ff	(unknown)  '.'
c622	ff	(unknown)  '.'
c623	ff	(unknown)  '.'
c624	ff	(unknown)  '.'
c625	ff	(unknown)  '.'
c626	ff	(unknown)  '.'
c627	ff	(unknown)  '.'
c628	ff	(unknown)  '.'
c629	ff	(unknown)  '.'
c62a	ff	(unknown)  '.'
c62b	ff	(unknown)  '.'
c62c	ff	(unknown)  '.'
c62d	ff	(unknown)  '.'
c62e	ff	(unknown)  '.'
c62f	ff	(unknown)  '.'
c630	ff	(unknown)  '.'
c631	ff	(unknown)  '.'
c632	ff	(unknown)  '.'
c633	ff	(unknown)  '.'
c634	ff	(unknown)  '.'
c635	ff	(unknown)  '.'
c636	ff	(unknown)  '.'
c637	ff	(unknown)  '.'
c638	ff	(unknown)  '.'
c639	ff	(unknown)  '.'
c63a	ff	(unknown)  '.'
c63b	ff	(unknown)  '.'
c63c	ff	(unknown)  '.'
c63d	ff	(unknown)  '.'
c63e	ff	(unknown)  '.'
c63f	ff	(unknown)  '.'
c640	ff	(unknown)  '.'
c641	ff	(unknown)  '.'
c642	ff	(unknown)  '.'
c643	ff	(unknown)  '.'
c644	ff	(unknown)  '.'
c645	ff	(unknown)  '.'
c646	ff	(unknown)  '.'
c647	ff	(unknown)  '.'
c648	ff	(unknown)  '.'
c649	ff	(unknown)  '.'
c64a	ff	(unknown)  '.'
c64b	ff	(unknown)  '.'
c64c	ff	(unknown)  '.'
c64d	ff	(unknown)  '.'
c64e	ff	(unknown)  '.'
c64f	ff	(unknown)  '.'
c650	ff	(unknown)  '.'
c651	ff	(unknown)  '.'
c652	ff	(unknown)  '.'
c653	ff	(unknown)  '.'
c654	ff	(unknown)  '.'
c655	ff	(unknown)  '.'
c656	ff	(unknown)  '.'
c657	ff	(unknown)  '.'
c658	ff	(unknown)  '.'
c659	ff	(unknown)  '.'
c65a	ff	(unknown)  '.'
c65b	ff	(unknown)  '.'
c65c	ff	(unknown)  '.'
c65d	ff	(unknown)  '.'
c65e	ff	(unknown)  '.'
c65f	ff	(unknown)  '.'
c660	ff	(unknown)  '.'
c661	ff	(unknown)  '.'
c662	ff	(unknown)  '.'
c663	ff	(unknown)  '.'
c664	ff	(unknown)  '.'
c665	ff	(unknown)  '.'
c666	ff	(unknown)  '.'
c667	ff	(unknown)  '.'
c668	ff	(unknown)  '.'
c669	ff	(unknown)  '.'
c66a	ff	(unknown)  '.'
c66b	ff	(unknown)  '.'
c66c	ff	(unknown)  '.'
c66d	ff	(unknown)  '.'
c66e	ff	(unknown)  '.'
c66f	ff	(unknown)  '.'
c670	ff	(unknown)  '.'
c671	ff	(unknown)  '.'
c672	ff	(unknown)  '.'
c673	ff	(unknown)  '.'
c674	ff	(unknown)  '.'
c675	ff	(unknown)  '.'
c676	ff	(unknown)  '.'
c677	ff	(unknown)  '.'
c678	ff	(unknown)  '.'
c679	ff	(unknown)  '.'
c67a	ff	(unknown)  '.'
c67b	ff	(unknown)  '.'
c67c	ff	(unknown)  '.'
c67d	ff	(unknown)  '.'
c67e	ff	(unknown)  '.'
c67f	ff	(unknown)  '.'
c680	ff	(unknown)  '.'
c681	ff	(unknown)  '.'
c682	ff	(unknown)  '.'
c683	ff	(unknown)  '.'
c684	ff	(unknown)  '.'
c685	ff	(unknown)  '.'
c686	ff	(unknown)  '.'
c687	ff	(unknown)  '.'
c688	ff	(unknown)  '.'
c689	ff	(unknown)  '.'
c68a	ff	(unknown)  '.'
c68b	ff	(unknown)  '.'
c68c	ff	(unknown)  '.'
c68d	ff	(unknown)  '.'
c68e	ff	(unknown)  '.'
c68f	ff	(unknown)  '.'
c690	ff	(unknown)  '.'
c691	ff	(unknown)  '.'
c692	ff	(unknown)  '.'
c693	ff	(unknown)  '.'
c694	ff	(unknown)  '.'
c695	ff	(unknown)  '.'
c696	ff	(unknown)  '.'
c697	ff	(unknown)  '.'
c698	ff	(unknown)  '.'
c699	ff	(unknown)  '.'
c69a	ff	(unknown)  '.'
c69b	ff	(unknown)  '.'
c69c	ff	(unknown)  '.'
c69d	ff	(unknown)  '.'
c69e	ff	(unknown)  '.'
c69f	ff	(unknown)  '.'
c6a0	ff	(unknown)  '.'
c6a1	ff	(unknown)  '.'
c6a2	ff	(unknown)  '.'
c6a3	ff	(unknown)  '.'
c6a4	ff	(unknown)  '.'
c6a5	ff	(unknown)  '.'
c6a6	ff	(unknown)  '.'
c6a7	ff	(unknown)  '.'
c6a8	ff	(unknown)  '.'
c6a9	ff	(unknown)  '.'
c6aa	ff	(unknown)  '.'
c6ab	ff	(unknown)  '.'
c6ac	ff	(unknown)  '.'
c6ad	ff	(unknown)  '.'
c6ae	ff	(unknown)  '.'
c6af	ff	(unknown)  '.'
c6b0	ff	(unknown)  '.'
c6b1	ff	(unknown)  '.'
c6b2	ff	(unknown)  '.'
c6b3	ff	(unknown)  '.'
c6b4	ff	(unknown)  '.'
c6b5	ff	(unknown)  '.'
c6b6	ff	(unknown)  '.'
c6b7	ff	(unknown)  '.'
c6b8	ff	(unknown)  '.'
c6b9	ff	(unknown)  '.'
c6ba	ff	(unknown)  '.'
c6bb	ff	(unknown)  '.'
c6bc	ff	(unknown)  '.'
c6bd	ff	(unknown)  '.'
c6be	ff	(unknown)  '.'
c6bf	ff	(unknown)  '.'
c6c0	ff	(unknown)  '.'
c6c1	ff	(unknown)  '.'
c6c2	ff	(unknown)  '.'
c6c3	ff	(unknown)  '.'
c6c4	ff	(unknown)  '.'
c6c5	ff	(unknown)  '.'
c6c6	ff	(unknown)  '.'
c6c7	ff	(unknown)  '.'
c6c8	ff	(unknown)  '.'
c6c9	ff	(unknown)  '.'
c6ca	ff	(unknown)  '.'
c6cb	ff	(unknown)  '.'
c6cc	ff	(unknown)  '.'
c6cd	ff	(unknown)  '.'
c6ce	ff	(unknown)  '.'
c6cf	ff	(unknown)  '.'
c6d0	ff	(unknown)  '.'
c6d1	ff	(unknown)  '.'
c6d2	ff	(unknown)  '.'
c6d3	ff	(unknown)  '.'
c6d4	ff	(unknown)  '.'
c6d5	ff	(unknown)  '.'
c6d6	ff	(unknown)  '.'
c6d7	ff	(unknown)  '.'
c6d8	ff	(unknown)  '.'
c6d9	ff	(unknown)  '.'
c6da	ff	(unknown)  '.'
c6db	ff	(unknown)  '.'
c6dc	ff	(unknown)  '.'
c6dd	ff	(unknown)  '.'
c6de	ff	(unknown)  '.'
c6df	ff	(unknown)  '.'
c6e0	ff	(unknown)  '.'
c6e1	ff	(unknown)  '.'
c6e2	ff	(unknown)  '.'
c6e3	ff	(unknown)  '.'
c6e4	ff	(unknown)  '.'
c6e5	ff	(unknown)  '.'
c6e6	ff	(unknown)  '.'
c6e7	ff	(unknown)  '.'
c6e8	ff	(unknown)  '.'
c6e9	ff	(unknown)  '.'
c6ea	ff	(unknown)  '.'
c6eb	ff	(unknown)  '.'
c6ec	ff	(unknown)  '.'
c6ed	ff	(unknown)  '.'
c6ee	ff	(unknown)  '.'
c6ef	ff	(unknown)  '.'
c6f0	ff	(unknown)  '.'
c6f1	ff	(unknown)  '.'
c6f2	ff	(unknown)  '.'
c6f3	ff	(unknown)  '.'
c6f4	ff	(unknown)  '.'
c6f5	ff	(unknown)  '.'
c6f6	ff	(unknown)  '.'
c6f7	ff	(unknown)  '.'
c6f8	ff	(unknown)  '.'
c6f9	ff	(unknown)  '.'
c6fa	ff	(unknown)  '.'
c6fb	ff	(unknown)  '.'
c6fc	ff	(unknown)  '.'
c6fd	ff	(unknown)  '.'
c6fe	ff	(unknown)  '.'
c6ff	ff	(unknown)  '.'
c700	ff	(unknown)  '.'
c701	ff	(unknown)  '.'
c702	ff	(unknown)  '.'
c703	ff	(unknown)  '.'
c704	ff	(unknown)  '.'
c705	ff	(unknown)  '.'
c706	ff	(unknown)  '.'
c707	ff	(unknown)  '.'
c708	ff	(unknown)  '.'
c709	ff	(unknown)  '.'
c70a	ff	(unknown)  '.'
c70b	ff	(unknown)  '.'
c70c	ff	(unknown)  '.'
c70d	ff	(unknown)  '.'
c70e	ff	(unknown)  '.'
c70f	ff	(unknown)  '.'
c710	ff	(unknown)  '.'
c711	ff	(unknown)  '.'
c712	ff	(unknown)  '.'
c713	ff	(unknown)  '.'
c714	ff	(unknown)  '.'
c715	ff	(unknown)  '.'
c716	ff	(unknown)  '.'
c717	ff	(unknown)  '.'
c718	ff	(unknown)  '.'
c719	ff	(unknown)  '.'
c71a	ff	(unknown)  '.'
c71b	ff	(unknown)  '.'
c71c	ff	(unknown)  '.'
c71d	ff	(unknown)  '.'
c71e	ff	(unknown)  '.'
c71f	ff	(unknown)  '.'
c720	ff	(unknown)  '.'
c721	ff	(unknown)  '.'
c722	ff	(unknown)  '.'
c723	ff	(unknown)  '.'
c724	ff	(unknown)  '.'
c725	ff	(unknown)  '.'
c726	ff	(unknown)  '.'
c727	ff	(unknown)  '.'
c728	ff	(unknown)  '.'
c729	ff	(unknown)  '.'
c72a	ff	(unknown)  '.'
c72b	ff	(unknown)  '.'
c72c	ff	(unknown)  '.'
c72d	ff	(unknown)  '.'
c72e	ff	(unknown)  '.'
c72f	ff	(unknown)  '.'
c730	ff	(unknown)  '.'
c731	ff	(unknown)  '.'
c732	ff	(unknown)  '.'
c733	ff	(unknown)  '.'
c734	ff	(unknown)  '.'
c735	ff	(unknown)  '.'
c736	ff	(unknown)  '.'
c737	ff	(unknown)  '.'
c738	ff	(unknown)  '.'
c739	ff	(unknown)  '.'
c73a	ff	(unknown)  '.'
c73b	ff	(unknown)  '.'
c73c	ff	(unknown)  '.'
c73d	ff	(unknown)  '.'
c73e	ff	(unknown)  '.'
c73f	ff	(unknown)  '.'
c740	ff	(unknown)  '.'
c741	ff	(unknown)  '.'
c742	ff	(unknown)  '.'
c743	ff	(unknown)  '.'
c744	ff	(unknown)  '.'
c745	ff	(unknown)  '.'
c746	ff	(unknown)  '.'
c747	ff	(unknown)  '.'
c748	ff	(unknown)  '.'
c749	ff	(unknown)  '.'
c74a	ff	(unknown)  '.'
c74b	ff	(unknown)  '.'
c74c	ff	(unknown)  '.'
c74d	ff	(unknown)  '.'
c74e	ff	(unknown)  '.'
c74f	ff	(unknown)  '.'
c750	ff	(unknown)  '.'
c751	ff	(unknown)  '.'
c752	ff	(unknown)  '.'
c753	ff	(unknown)  '.'
c754	ff	(unknown)  '.'
c755	ff	(unknown)  '.'
c756	ff	(unknown)  '.'
c757	ff	(unknown)  '.'
c758	ff	(unknown)  '.'
c759	ff	(unknown)  '.'
c75a	ff	(unknown)  '.'
c75b	ff	(unknown)  '.'
c75c	ff	(unknown)  '.'
c75d	ff	(unknown)  '.'
c75e	ff	(unknown)  '.'
c75f	ff	(unknown)  '.'
c760	ff	(unknown)  '.'
c761	ff	(unknown)  '.'
c762	ff	(unknown)  '.'
c763	ff	(unknown)  '.'
c764	ff	(unknown)  '.'
c765	ff	(unknown)  '.'
c766	ff	(unknown)  '.'
c767	ff	(unknown)  '.'
c768	ff	(unknown)  '.'
c769	ff	(unknown)  '.'
c76a	ff	(unknown)  '.'
c76b	ff	(unknown)  '.'
c76c	ff	(unknown)  '.'
c76d	ff	(unknown)  '.'
c76e	ff	(unknown)  '.'
c76f	ff	(unknown)  '.'
c770	ff	(unknown)  '.'
c771	ff	(unknown)  '.'
c772	ff	(unknown)  '.'
c773	ff	(unknown)  '.'
c774	ff	(unknown)  '.'
c775	ff	(unknown)  '.'
c776	ff	(unknown)  '.'
c777	ff	(unknown)  '.'
c778	ff	(unknown)  '.'
c779	ff	(unknown)  '.'
c77a	ff	(unknown)  '.'
c77b	ff	(unknown)  '.'
c77c	ff	(unknown)  '.'
c77d	ff	(unknown)  '.'
c77e	ff	(unknown)  '.'
c77f	ff	(unknown)  '.'
c780	ff	(unknown)  '.'
c781	ff	(unknown)  '.'
c782	ff	(unknown)  '.'
c783	ff	(unknown)  '.'
c784	ff	(unknown)  '.'
c785	ff	(unknown)  '.'
c786	ff	(unknown)  '.'
c787	ff	(unknown)  '.'
c788	ff	(unknown)  '.'
c789	ff	(unknown)  '.'
c78a	ff	(unknown)  '.'
c78b	ff	(unknown)  '.'
c78c	ff	(unknown)  '.'
c78d	ff	(unknown)  '.'
c78e	ff	(unknown)  '.'
c78f	ff	(unknown)  '.'
c790	ff	(unknown)  '.'
c791	ff	(unknown)  '.'
c792	ff	(unknown)  '.'
c793	ff	(unknown)  '.'
c794	ff	(unknown)  '.'
c795	ff	(unknown)  '.'
c796	ff	(unknown)  '.'
c797	ff	(unknown)  '.'
c798	ff	(unknown)  '.'
c799	ff	(unknown)  '.'
c79a	ff	(unknown)  '.'
c79b	ff	(unknown)  '.'
c79c	ff	(unknown)  '.'
c79d	ff	(unknown)  '.'
c79e	ff	(unknown)  '.'
c79f	ff	(unknown)  '.'
c7a0	ff	(unknown)  '.'
c7a1	ff	(unknown)  '.'
c7a2	ff	(unknown)  '.'
c7a3	ff	(unknown)  '.'
c7a4	ff	(unknown)  '.'
c7a5	ff	(unknown)  '.'
c7a6	ff	(unknown)  '.'
c7a7	ff	(unknown)  '.'
c7a8	ff	(unknown)  '.'
c7a9	ff	(unknown)  '.'
c7aa	ff	(unknown)  '.'
c7ab	ff	(unknown)  '.'
c7ac	ff	(unknown)  '.'
c7ad	ff	(unknown)  '.'
c7ae	ff	(unknown)  '.'
c7af	ff	(unknown)  '.'
c7b0	ff	(unknown)  '.'
c7b1	ff	(unknown)  '.'
c7b2	ff	(unknown)  '.'
c7b3	ff	(unknown)  '.'
c7b4	ff	(unknown)  '.'
c7b5	ff	(unknown)  '.'
c7b6	ff	(unknown)  '.'
c7b7	ff	(unknown)  '.'
c7b8	ff	(unknown)  '.'
c7b9	ff	(unknown)  '.'
c7ba	ff	(unknown)  '.'
c7bb	ff	(unknown)  '.'
c7bc	ff	(unknown)  '.'
c7bd	ff	(unknown)  '.'
c7be	ff	(unknown)  '.'
c7bf	ff	(unknown)  '.'
c7c0	ff	(unknown)  '.'
c7c1	ff	(unknown)  '.'
c7c2	ff	(unknown)  '.'
c7c3	ff	(unknown)  '.'
c7c4	ff	(unknown)  '.'
c7c5	ff	(unknown)  '.'
c7c6	ff	(unknown)  '.'
c7c7	ff	(unknown)  '.'
c7c8	ff	(unknown)  '.'
c7c9	ff	(unknown)  '.'
c7ca	ff	(unknown)  '.'
c7cb	ff	(unknown)  '.'
c7cc	ff	(unknown)  '.'
c7cd	ff	(unknown)  '.'
c7ce	ff	(unknown)  '.'
c7cf	ff	(unknown)  '.'
c7d0	ff	(unknown)  '.'
c7d1	ff	(unknown)  '.'
c7d2	ff	(unknown)  '.'
c7d3	ff	(unknown)  '.'
c7d4	ff	(unknown)  '.'
c7d5	ff	(unknown)  '.'
c7d6	ff	(unknown)  '.'
c7d7	ff	(unknown)  '.'
c7d8	ff	(unknown)  '.'
c7d9	ff	(unknown)  '.'
c7da	ff	(unknown)  '.'
c7db	ff	(unknown)  '.'
c7dc	ff	(unknown)  '.'
c7dd	ff	(unknown)  '.'
c7de	ff	(unknown)  '.'
c7df	ff	(unknown)  '.'
c7e0	ff	(unknown)  '.'
c7e1	ff	(unknown)  '.'
c7e2	ff	(unknown)  '.'
c7e3	ff	(unknown)  '.'
c7e4	ff	(unknown)  '.'
c7e5	ff	(unknown)  '.'
c7e6	ff	(unknown)  '.'
c7e7	ff	(unknown)  '.'
c7e8	ff	(unknown)  '.'
c7e9	ff	(unknown)  '.'
c7ea	ff	(unknown)  '.'
c7eb	ff	(unknown)  '.'
c7ec	ff	(unknown)  '.'
c7ed	ff	(unknown)  '.'
c7ee	ff	(unknown)  '.'
c7ef	ff	(unknown)  '.'
c7f0	ff	(unknown)  '.'
c7f1	ff	(unknown)  '.'
c7f2	ff	(unknown)  '.'
c7f3	ff	(unknown)  '.'
c7f4	ff	(unknown)  '.'
c7f5	ff	(unknown)  '.'
c7f6	ff	(unknown)  '.'
c7f7	ff	(unknown)  '.'
c7f8	ff	(unknown)  '.'
c7f9	ff	(unknown)  '.'
c7fa	ff	(unknown)  '.'
c7fb	ff	(unknown)  '.'
c7fc	ff	(unknown)  '.'
c7fd	ff	(unknown)  '.'
c7fe	ff	(unknown)  '.'
c7ff	ff	(unknown)  '.'
c800	ff	(unknown)  '.'
c801	ff	(unknown)  '.'
c802	ff	(unknown)  '.'
c803	ff	(unknown)  '.'
c804	ff	(unknown)  '.'
c805	ff	(unknown)  '.'
c806	ff	(unknown)  '.'
c807	ff	(unknown)  '.'
c808	ff	(unknown)  '.'
c809	ff	(unknown)  '.'
c80a	ff	(unknown)  '.'
c80b	ff	(unknown)  '.'
c80c	ff	(unknown)  '.'
c80d	ff	(unknown)  '.'
c80e	ff	(unknown)  '.'
c80f	ff	(unknown)  '.'
c810	ff	(unknown)  '.'
c811	ff	(unknown)  '.'
c812	ff	(unknown)  '.'
c813	ff	(unknown)  '.'
c814	ff	(unknown)  '.'
c815	ff	(unknown)  '.'
c816	ff	(unknown)  '.'
c817	ff	(unknown)  '.'
c818	ff	(unknown)  '.'
c819	ff	(unknown)  '.'
c81a	ff	(unknown)  '.'
c81b	ff	(unknown)  '.'
c81c	ff	(unknown)  '.'
c81d	ff	(unknown)  '.'
c81e	ff	(unknown)  '.'
c81f	ff	(unknown)  '.'
c820	ff	(unknown)  '.'
c821	ff	(unknown)  '.'
c822	ff	(unknown)  '.'
c823	ff	(unknown)  '.'
c824	ff	(unknown)  '.'
c825	ff	(unknown)  '.'
c826	ff	(unknown)  '.'
c827	ff	(unknown)  '.'
c828	ff	(unknown)  '.'
c829	ff	(unknown)  '.'
c82a	ff	(unknown)  '.'
c82b	ff	(unknown)  '.'
c82c	ff	(unknown)  '.'
c82d	ff	(unknown)  '.'
c82e	ff	(unknown)  '.'
c82f	ff	(unknown)  '.'
c830	ff	(unknown)  '.'
c831	ff	(unknown)  '.'
c832	ff	(unknown)  '.'
c833	ff	(unknown)  '.'
c834	ff	(unknown)  '.'
c835	ff	(unknown)  '.'
c836	ff	(unknown)  '.'
c837	ff	(unknown)  '.'
c838	ff	(unknown)  '.'
c839	ff	(unknown)  '.'
c83a	ff	(unknown)  '.'
c83b	ff	(unknown)  '.'
c83c	ff	(unknown)  '.'
c83d	ff	(unknown)  '.'
c83e	ff	(unknown)  '.'
c83f	ff	(unknown)  '.'
c840	ff	(unknown)  '.'
c841	ff	(unknown)  '.'
c842	ff	(unknown)  '.'
c843	ff	(unknown)  '.'
c844	ff	(unknown)  '.'
c845	ff	(unknown)  '.'
c846	ff	(unknown)  '.'
c847	ff	(unknown)  '.'
c848	ff	(unknown)  '.'
c849	ff	(unknown)  '.'
c84a	ff	(unknown)  '.'
c84b	ff	(unknown)  '.'
c84c	ff	(unknown)  '.'
c84d	ff	(unknown)  '.'
c84e	ff	(unknown)  '.'
c84f	ff	(unknown)  '.'
c850	ff	(unknown)  '.'
c851	ff	(unknown)  '.'
c852	ff	(unknown)  '.'
c853	ff	(unknown)  '.'
c854	ff	(unknown)  '.'
c855	ff	(unknown)  '.'
c856	ff	(unknown)  '.'
c857	ff	(unknown)  '.'
c858	ff	(unknown)  '.'
c859	ff	(unknown)  '.'
c85a	ff	(unknown)  '.'
c85b	ff	(unknown)  '.'
c85c	ff	(unknown)  '.'
c85d	ff	(unknown)  '.'
c85e	ff	(unknown)  '.'
c85f	ff	(unknown)  '.'
c860	ff	(unknown)  '.'
c861	ff	(unknown)  '.'
c862	ff	(unknown)  '.'
c863	ff	(unknown)  '.'
c864	ff	(unknown)  '.'
c865	ff	(unknown)  '.'
c866	ff	(unknown)  '.'
c867	ff	(unknown)  '.'
c868	ff	(unknown)  '.'
c869	ff	(unknown)  '.'
c86a	ff	(unknown)  '.'
c86b	ff	(unknown)  '.'
c86c	ff	(unknown)  '.'
c86d	ff	(unknown)  '.'
c86e	ff	(unknown)  '.'
c86f	ff	(unknown)  '.'
c870	ff	(unknown)  '.'
c871	ff	(unknown)  '.'
c872	ff	(unknown)  '.'
c873	ff	(unknown)  '.'
c874	ff	(unknown)  '.'
c875	ff	(unknown)  '.'
c876	ff	(unknown)  '.'
c877	ff	(unknown)  '.'
c878	ff	(unknown)  '.'
c879	ff	(unknown)  '.'
c87a	ff	(unknown)  '.'
c87b	ff	(unknown)  '.'
c87c	ff	(unknown)  '.'
c87d	ff	(unknown)  '.'
c87e	ff	(unknown)  '.'
c87f	ff	(unknown)  '.'
c880	ff	(unknown)  '.'
c881	ff	(unknown)  '.'
c882	ff	(unknown)  '.'
c883	ff	(unknown)  '.'
c884	ff	(unknown)  '.'
c885	ff	(unknown)  '.'
c886	ff	(unknown)  '.'
c887	ff	(unknown)  '.'
c888	ff	(unknown)  '.'
c889	ff	(unknown)  '.'
c88a	ff	(unknown)  '.'
c88b	ff	(unknown)  '.'
c88c	ff	(unknown)  '.'
c88d	ff	(unknown)  '.'
c88e	ff	(unknown)  '.'
c88f	ff	(unknown)  '.'
c890	ff	(unknown)  '.'
c891	ff	(unknown)  '.'
c892	ff	(unknown)  '.'
c893	ff	(unknown)  '.'
c894	ff	(unknown)  '.'
c895	ff	(unknown)  '.'
c896	ff	(unknown)  '.'
c897	ff	(unknown)  '.'
c898	ff	(unknown)  '.'
c899	ff	(unknown)  '.'
c89a	ff	(unknown)  '.'
c89b	ff	(unknown)  '.'
c89c	ff	(unknown)  '.'
c89d	ff	(unknown)  '.'
c89e	ff	(unknown)  '.'
c89f	ff	(unknown)  '.'
c8a0	ff	(unknown)  '.'
c8a1	ff	(unknown)  '.'
c8a2	ff	(unknown)  '.'
c8a3	ff	(unknown)  '.'
c8a4	ff	(unknown)  '.'
c8a5	ff	(unknown)  '.'
c8a6	ff	(unknown)  '.'
c8a7	ff	(unknown)  '.'
c8a8	ff	(unknown)  '.'
c8a9	ff	(unknown)  '.'
c8aa	ff	(unknown)  '.'
c8ab	ff	(unknown)  '.'
c8ac	ff	(unknown)  '.'
c8ad	ff	(unknown)  '.'
c8ae	ff	(unknown)  '.'
c8af	ff	(unknown)  '.'
c8b0	ff	(unknown)  '.'
c8b1	ff	(unknown)  '.'
c8b2	ff	(unknown)  '.'
c8b3	ff	(unknown)  '.'
c8b4	ff	(unknown)  '.'
c8b5	ff	(unknown)  '.'
c8b6	ff	(unknown)  '.'
c8b7	ff	(unknown)  '.'
c8b8	ff	(unknown)  '.'
c8b9	ff	(unknown)  '.'
c8ba	ff	(unknown)  '.'
c8bb	ff	(unknown)  '.'
c8bc	ff	(unknown)  '.'
c8bd	ff	(unknown)  '.'
c8be	ff	(unknown)  '.'
c8bf	ff	(unknown)  '.'
c8c0	ff	(unknown)  '.'
c8c1	ff	(unknown)  '.'
c8c2	ff	(unknown)  '.'
c8c3	ff	(unknown)  '.'
c8c4	ff	(unknown)  '.'
c8c5	ff	(unknown)  '.'
c8c6	ff	(unknown)  '.'
c8c7	ff	(unknown)  '.'
c8c8	ff	(unknown)  '.'
c8c9	ff	(unknown)  '.'
c8ca	ff	(unknown)  '.'
c8cb	ff	(unknown)  '.'
c8cc	ff	(unknown)  '.'
c8cd	ff	(unknown)  '.'
c8ce	ff	(unknown)  '.'
c8cf	ff	(unknown)  '.'
c8d0	ff	(unknown)  '.'
c8d1	ff	(unknown)  '.'
c8d2	ff	(unknown)  '.'
c8d3	ff	(unknown)  '.'
c8d4	ff	(unknown)  '.'
c8d5	ff	(unknown)  '.'
c8d6	ff	(unknown)  '.'
c8d7	ff	(unknown)  '.'
c8d8	ff	(unknown)  '.'
c8d9	ff	(unknown)  '.'
c8da	ff	(unknown)  '.'
c8db	ff	(unknown)  '.'
c8dc	ff	(unknown)  '.'
c8dd	ff	(unknown)  '.'
c8de	ff	(unknown)  '.'
c8df	ff	(unknown)  '.'
c8e0	ff	(unknown)  '.'
c8e1	ff	(unknown)  '.'
c8e2	ff	(unknown)  '.'
c8e3	ff	(unknown)  '.'
c8e4	ff	(unknown)  '.'
c8e5	ff	(unknown)  '.'
c8e6	ff	(unknown)  '.'
c8e7	ff	(unknown)  '.'
c8e8	ff	(unknown)  '.'
c8e9	ff	(unknown)  '.'
c8ea	ff	(unknown)  '.'
c8eb	ff	(unknown)  '.'
c8ec	ff	(unknown)  '.'
c8ed	ff	(unknown)  '.'
c8ee	ff	(unknown)  '.'
c8ef	ff	(unknown)  '.'
c8f0	ff	(unknown)  '.'
c8f1	ff	(unknown)  '.'
c8f2	ff	(unknown)  '.'
c8f3	ff	(unknown)  '.'
c8f4	ff	(unknown)  '.'
c8f5	ff	(unknown)  '.'
c8f6	ff	(unknown)  '.'
c8f7	ff	(unknown)  '.'
c8f8	ff	(unknown)  '.'
c8f9	ff	(unknown)  '.'
c8fa	ff	(unknown)  '.'
c8fb	ff	(unknown)  '.'
c8fc	ff	(unknown)  '.'
c8fd	ff	(unknown)  '.'
c8fe	ff	(unknown)  '.'
c8ff	ff	(unknown)  '.'
c900	ff	(unknown)  '.'
c901	ff	(unknown)  '.'
c902	ff	(unknown)  '.'
c903	ff	(unknown)  '.'
c904	ff	(unknown)  '.'
c905	ff	(unknown)  '.'
c906	ff	(unknown)  '.'
c907	ff	(unknown)  '.'
c908	ff	(unknown)  '.'
c909	ff	(unknown)  '.'
c90a	ff	(unknown)  '.'
c90b	ff	(unknown)  '.'
c90c	ff	(unknown)  '.'
c90d	ff	(unknown)  '.'
c90e	ff	(unknown)  '.'
c90f	ff	(unknown)  '.'
c910	ff	(unknown)  '.'
c911	ff	(unknown)  '.'
c912	ff	(unknown)  '.'
c913	ff	(unknown)  '.'
c914	ff	(unknown)  '.'
c915	ff	(unknown)  '.'
c916	ff	(unknown)  '.'
c917	ff	(unknown)  '.'
c918	ff	(unknown)  '.'
c919	ff	(unknown)  '.'
c91a	ff	(unknown)  '.'
c91b	ff	(unknown)  '.'
c91c	ff	(unknown)  '.'
c91d	ff	(unknown)  '.'
c91e	ff	(unknown)  '.'
c91f	ff	(unknown)  '.'
c920	ff	(unknown)  '.'
c921	ff	(unknown)  '.'
c922	ff	(unknown)  '.'
c923	ff	(unknown)  '.'
c924	ff	(unknown)  '.'
c925	ff	(unknown)  '.'
c926	ff	(unknown)  '.'
c927	ff	(unknown)  '.'
c928	ff	(unknown)  '.'
c929	ff	(unknown)  '.'
c92a	ff	(unknown)  '.'
c92b	ff	(unknown)  '.'
c92c	ff	(unknown)  '.'
c92d	ff	(unknown)  '.'
c92e	ff	(unknown)  '.'
c92f	ff	(unknown)  '.'
c930	ff	(unknown)  '.'
c931	ff	(unknown)  '.'
c932	ff	(unknown)  '.'
c933	ff	(unknown)  '.'
c934	ff	(unknown)  '.'
c935	ff	(unknown)  '.'
c936	ff	(unknown)  '.'
c937	ff	(unknown)  '.'
c938	ff	(unknown)  '.'
c939	ff	(unknown)  '.'
c93a	ff	(unknown)  '.'
c93b	ff	(unknown)  '.'
c93c	ff	(unknown)  '.'
c93d	ff	(unknown)  '.'
c93e	ff	(unknown)  '.'
c93f	ff	(unknown)  '.'
c940	ff	(unknown)  '.'
c941	ff	(unknown)  '.'
c942	ff	(unknown)  '.'
c943	ff	(unknown)  '.'
c944	ff	(unknown)  '.'
c945	ff	(unknown)  '.'
c946	ff	(unknown)  '.'
c947	ff	(unknown)  '.'
c948	ff	(unknown)  '.'
c949	ff	(unknown)  '.'
c94a	ff	(unknown)  '.'
c94b	ff	(unknown)  '.'
c94c	ff	(unknown)  '.'
c94d	ff	(unknown)  '.'
c94e	ff	(unknown)  '.'
c94f	ff	(unknown)  '.'
c950	ff	(unknown)  '.'
c951	ff	(unknown)  '.'
c952	ff	(unknown)  '.'
c953	ff	(unknown)  '.'
c954	ff	(unknown)  '.'
c955	ff	(unknown)  '.'
c956	ff	(unknown)  '.'
c957	ff	(unknown)  '.'
c958	ff	(unknown)  '.'
c959	ff	(unknown)  '.'
c95a	ff	(unknown)  '.'
c95b	ff	(unknown)  '.'
c95c	ff	(unknown)  '.'
c95d	ff	(unknown)  '.'
c95e	ff	(unknown)  '.'
c95f	ff	(unknown)  '.'
c960	ff	(unknown)  '.'
c961	ff	(unknown)  '.'
c962	ff	(unknown)  '.'
c963	ff	(unknown)  '.'
c964	ff	(unknown)  '.'
c965	ff	(unknown)  '.'
c966	ff	(unknown)  '.'
c967	ff	(unknown)  '.'
c968	ff	(unknown)  '.'
c969	ff	(unknown)  '.'
c96a	ff	(unknown)  '.'
c96b	ff	(unknown)  '.'
c96c	ff	(unknown)  '.'
c96d	ff	(unknown)  '.'
c96e	ff	(unknown)  '.'
c96f	ff	(unknown)  '.'
c970	ff	(unknown)  '.'
c971	ff	(unknown)  '.'
c972	ff	(unknown)  '.'
c973	ff	(unknown)  '.'
c974	ff	(unknown)  '.'
c975	ff	(unknown)  '.'
c976	ff	(unknown)  '.'
c977	ff	(unknown)  '.'
c978	ff	(unknown)  '.'
c979	ff	(unknown)  '.'
c97a	ff	(unknown)  '.'
c97b	ff	(unknown)  '.'
c97c	ff	(unknown)  '.'
c97d	ff	(unknown)  '.'
c97e	ff	(unknown)  '.'
c97f	ff	(unknown)  '.'
c980	ff	(unknown)  '.'
c981	ff	(unknown)  '.'
c982	ff	(unknown)  '.'
c983	ff	(unknown)  '.'
c984	ff	(unknown)  '.'
c985	ff	(unknown)  '.'
c986	ff	(unknown)  '.'
c987	ff	(unknown)  '.'
c988	ff	(unknown)  '.'
c989	ff	(unknown)  '.'
c98a	ff	(unknown)  '.'
c98b	ff	(unknown)  '.'
c98c	ff	(unknown)  '.'
c98d	ff	(unknown)  '.'
c98e	ff	(unknown)  '.'
c98f	ff	(unknown)  '.'
c990	ff	(unknown)  '.'
c991	ff	(unknown)  '.'
c992	ff	(unknown)  '.'
c993	ff	(unknown)  '.'
c994	ff	(unknown)  '.'
c995	ff	(unknown)  '.'
c996	ff	(unknown)  '.'
c997	ff	(unknown)  '.'
c998	ff	(unknown)  '.'
c999	ff	(unknown)  '.'
c99a	ff	(unknown)  '.'
c99b	ff	(unknown)  '.'
c99c	ff	(unknown)  '.'
c99d	ff	(unknown)  '.'
c99e	ff	(unknown)  '.'
c99f	ff	(unknown)  '.'
c9a0	ff	(unknown)  '.'
c9a1	ff	(unknown)  '.'
c9a2	ff	(unknown)  '.'
c9a3	ff	(unknown)  '.'
c9a4	ff	(unknown)  '.'
c9a5	ff	(unknown)  '.'
c9a6	ff	(unknown)  '.'
c9a7	ff	(unknown)  '.'
c9a8	ff	(unknown)  '.'
c9a9	ff	(unknown)  '.'
c9aa	ff	(unknown)  '.'
c9ab	ff	(unknown)  '.'
c9ac	ff	(unknown)  '.'
c9ad	ff	(unknown)  '.'
c9ae	ff	(unknown)  '.'
c9af	ff	(unknown)  '.'
c9b0	ff	(unknown)  '.'
c9b1	ff	(unknown)  '.'
c9b2	ff	(unknown)  '.'
c9b3	ff	(unknown)  '.'
c9b4	ff	(unknown)  '.'
c9b5	ff	(unknown)  '.'
c9b6	ff	(unknown)  '.'
c9b7	ff	(unknown)  '.'
c9b8	ff	(unknown)  '.'
c9b9	ff	(unknown)  '.'
c9ba	ff	(unknown)  '.'
c9bb	ff	(unknown)  '.'
c9bc	ff	(unknown)  '.'
c9bd	ff	(unknown)  '.'
c9be	ff	(unknown)  '.'
c9bf	ff	(unknown)  '.'
c9c0	ff	(unknown)  '.'
c9c1	ff	(unknown)  '.'
c9c2	ff	(unknown)  '.'
c9c3	ff	(unknown)  '.'
c9c4	ff	(unknown)  '.'
c9c5	ff	(unknown)  '.'
c9c6	ff	(unknown)  '.'
c9c7	ff	(unknown)  '.'
c9c8	ff	(unknown)  '.'
c9c9	ff	(unknown)  '.'
c9ca	ff	(unknown)  '.'
c9cb	ff	(unknown)  '.'
c9cc	ff	(unknown)  '.'
c9cd	ff	(unknown)  '.'
c9ce	ff	(unknown)  '.'
c9cf	ff	(unknown)  '.'
c9d0	ff	(unknown)  '.'
c9d1	ff	(unknown)  '.'
c9d2	ff	(unknown)  '.'
c9d3	ff	(unknown)  '.'
c9d4	ff	(unknown)  '.'
c9d5	ff	(unknown)  '.'
c9d6	ff	(unknown)  '.'
c9d7	ff	(unknown)  '.'
c9d8	ff	(unknown)  '.'
c9d9	ff	(unknown)  '.'
c9da	ff	(unknown)  '.'
c9db	ff	(unknown)  '.'
c9dc	ff	(unknown)  '.'
c9dd	ff	(unknown)  '.'
c9de	ff	(unknown)  '.'
c9df	ff	(unknown)  '.'
c9e0	ff	(unknown)  '.'
c9e1	ff	(unknown)  '.'
c9e2	ff	(unknown)  '.'
c9e3	ff	(unknown)  '.'
c9e4	ff	(unknown)  '.'
c9e5	ff	(unknown)  '.'
c9e6	ff	(unknown)  '.'
c9e7	ff	(unknown)  '.'
c9e8	ff	(unknown)  '.'
c9e9	ff	(unknown)  '.'
c9ea	ff	(unknown)  '.'
c9eb	ff	(unknown)  '.'
c9ec	ff	(unknown)  '.'
c9ed	ff	(unknown)  '.'
c9ee	ff	(unknown)  '.'
c9ef	ff	(unknown)  '.'
c9f0	ff	(unknown)  '.'
c9f1	ff	(unknown)  '.'
c9f2	ff	(unknown)  '.'
c9f3	ff	(unknown)  '.'
c9f4	ff	(unknown)  '.'
c9f5	ff	(unknown)  '.'
c9f6	ff	(unknown)  '.'
c9f7	ff	(unknown)  '.'
c9f8	ff	(unknown)  '.'
c9f9	ff	(unknown)  '.'
c9fa	ff	(unknown)  '.'
c9fb	ff	(unknown)  '.'
c9fc	ff	(unknown)  '.'
c9fd	ff	(unknown)  '.'
c9fe	ff	(unknown)  '.'
c9ff	ff	(unknown)  '.'
ca00	ff	(unknown)  '.'
ca01	ff	(unknown)  '.'
ca02	ff	(unknown)  '.'
ca03	ff	(unknown)  '.'
ca04	ff	(unknown)  '.'
ca05	ff	(unknown)  '.'
ca06	ff	(unknown)  '.'
ca07	ff	(unknown)  '.'
ca08	ff	(unknown)  '.'
ca09	ff	(unknown)  '.'
ca0a	ff	(unknown)  '.'
ca0b	ff	(unknown)  '.'
ca0c	ff	(unknown)  '.'
ca0d	ff	(unknown)  '.'
ca0e	ff	(unknown)  '.'
ca0f	ff	(unknown)  '.'
ca10	ff	(unknown)  '.'
ca11	ff	(unknown)  '.'
ca12	ff	(unknown)  '.'
ca13	ff	(unknown)  '.'
ca14	ff	(unknown)  '.'
ca15	ff	(unknown)  '.'
ca16	ff	(unknown)  '.'
ca17	ff	(unknown)  '.'
ca18	ff	(unknown)  '.'
ca19	ff	(unknown)  '.'
ca1a	ff	(unknown)  '.'
ca1b	ff	(unknown)  '.'
ca1c	ff	(unknown)  '.'
ca1d	ff	(unknown)  '.'
ca1e	ff	(unknown)  '.'
ca1f	ff	(unknown)  '.'
ca20	ff	(unknown)  '.'
ca21	ff	(unknown)  '.'
ca22	ff	(unknown)  '.'
ca23	ff	(unknown)  '.'
ca24	ff	(unknown)  '.'
ca25	ff	(unknown)  '.'
ca26	ff	(unknown)  '.'
ca27	ff	(unknown)  '.'
ca28	ff	(unknown)  '.'
ca29	ff	(unknown)  '.'
ca2a	ff	(unknown)  '.'
ca2b	ff	(unknown)  '.'
ca2c	ff	(unknown)  '.'
ca2d	ff	(unknown)  '.'
ca2e	ff	(unknown)  '.'
ca2f	ff	(unknown)  '.'
ca30	ff	(unknown)  '.'
ca31	ff	(unknown)  '.'
ca32	ff	(unknown)  '.'
ca33	ff	(unknown)  '.'
ca34	ff	(unknown)  '.'
ca35	ff	(unknown)  '.'
ca36	ff	(unknown)  '.'
ca37	ff	(unknown)  '.'
ca38	ff	(unknown)  '.'
ca39	ff	(unknown)  '.'
ca3a	ff	(unknown)  '.'
ca3b	ff	(unknown)  '.'
ca3c	ff	(unknown)  '.'
ca3d	ff	(unknown)  '.'
ca3e	ff	(unknown)  '.'
ca3f	ff	(unknown)  '.'
ca40	ff	(unknown)  '.'
ca41	ff	(unknown)  '.'
ca42	ff	(unknown)  '.'
ca43	ff	(unknown)  '.'
ca44	ff	(unknown)  '.'
ca45	ff	(unknown)  '.'
ca46	ff	(unknown)  '.'
ca47	ff	(unknown)  '.'
ca48	ff	(unknown)  '.'
ca49	ff	(unknown)  '.'
ca4a	ff	(unknown)  '.'
ca4b	ff	(unknown)  '.'
ca4c	ff	(unknown)  '.'
ca4d	ff	(unknown)  '.'
ca4e	ff	(unknown)  '.'
ca4f	ff	(unknown)  '.'
ca50	ff	(unknown)  '.'
ca51	ff	(unknown)  '.'
ca52	ff	(unknown)  '.'
ca53	ff	(unknown)  '.'
ca54	ff	(unknown)  '.'
ca55	ff	(unknown)  '.'
ca56	ff	(unknown)  '.'
ca57	ff	(unknown)  '.'
ca58	ff	(unknown)  '.'
ca59	ff	(unknown)  '.'
ca5a	ff	(unknown)  '.'
ca5b	ff	(unknown)  '.'
ca5c	ff	(unknown)  '.'
ca5d	ff	(unknown)  '.'
ca5e	ff	(unknown)  '.'
ca5f	ff	(unknown)  '.'
ca60	ff	(unknown)  '.'
ca61	ff	(unknown)  '.'
ca62	ff	(unknown)  '.'
ca63	ff	(unknown)  '.'
ca64	ff	(unknown)  '.'
ca65	ff	(unknown)  '.'
ca66	ff	(unknown)  '.'
ca67	ff	(unknown)  '.'
ca68	ff	(unknown)  '.'
ca69	ff	(unknown)  '.'
ca6a	ff	(unknown)  '.'
ca6b	ff	(unknown)  '.'
ca6c	ff	(unknown)  '.'
ca6d	ff	(unknown)  '.'
ca6e	ff	(unknown)  '.'
ca6f	ff	(unknown)  '.'
ca70	ff	(unknown)  '.'
ca71	ff	(unknown)  '.'
ca72	ff	(unknown)  '.'
ca73	ff	(unknown)  '.'
ca74	ff	(unknown)  '.'
ca75	ff	(unknown)  '.'
ca76	ff	(unknown)  '.'
ca77	ff	(unknown)  '.'
ca78	ff	(unknown)  '.'
ca79	ff	(unknown)  '.'
ca7a	ff	(unknown)  '.'
ca7b	ff	(unknown)  '.'
ca7c	ff	(unknown)  '.'
ca7d	ff	(unknown)  '.'
ca7e	ff	(unknown)  '.'
ca7f	ff	(unknown)  '.'
ca80	ff	(unknown)  '.'
ca81	ff	(unknown)  '.'
ca82	ff	(unknown)  '.'
ca83	ff	(unknown)  '.'
ca84	ff	(unknown)  '.'
ca85	ff	(unknown)  '.'
ca86	ff	(unknown)  '.'
ca87	ff	(unknown)  '.'
ca88	ff	(unknown)  '.'
ca89	ff	(unknown)  '.'
ca8a	ff	(unknown)  '.'
ca8b	ff	(unknown)  '.'
ca8c	ff	(unknown)  '.'
ca8d	ff	(unknown)  '.'
ca8e	ff	(unknown)  '.'
ca8f	ff	(unknown)  '.'
ca90	ff	(unknown)  '.'
ca91	ff	(unknown)  '.'
ca92	ff	(unknown)  '.'
ca93	ff	(unknown)  '.'
ca94	ff	(unknown)  '.'
ca95	ff	(unknown)  '.'
ca96	ff	(unknown)  '.'
ca97	ff	(unknown)  '.'
ca98	ff	(unknown)  '.'
ca99	ff	(unknown)  '.'
ca9a	ff	(unknown)  '.'
ca9b	ff	(unknown)  '.'
ca9c	ff	(unknown)  '.'
ca9d	ff	(unknown)  '.'
ca9e	ff	(unknown)  '.'
ca9f	ff	(unknown)  '.'
caa0	ff	(unknown)  '.'
caa1	ff	(unknown)  '.'
caa2	ff	(unknown)  '.'
caa3	ff	(unknown)  '.'
caa4	ff	(unknown)  '.'
caa5	ff	(unknown)  '.'
caa6	ff	(unknown)  '.'
caa7	ff	(unknown)  '.'
caa8	ff	(unknown)  '.'
caa9	ff	(unknown)  '.'
caaa	ff	(unknown)  '.'
caab	ff	(unknown)  '.'
caac	ff	(unknown)  '.'
caad	ff	(unknown)  '.'
caae	ff	(unknown)  '.'
caaf	ff	(unknown)  '.'
cab0	ff	(unknown)  '.'
cab1	ff	(unknown)  '.'
cab2	ff	(unknown)  '.'
cab3	ff	(unknown)  '.'
cab4	ff	(unknown)  '.'
cab5	ff	(unknown)  '.'
cab6	ff	(unknown)  '.'
cab7	ff	(unknown)  '.'
cab8	ff	(unknown)  '.'
cab9	ff	(unknown)  '.'
caba	ff	(unknown)  '.'
cabb	ff	(unknown)  '.'
cabc	ff	(unknown)  '.'
cabd	ff	(unknown)  '.'
cabe	ff	(unknown)  '.'
cabf	ff	(unknown)  '.'
cac0	ff	(unknown)  '.'
cac1	ff	(unknown)  '.'
cac2	ff	(unknown)  '.'
cac3	ff	(unknown)  '.'
cac4	ff	(unknown)  '.'
cac5	ff	(unknown)  '.'
cac6	ff	(unknown)  '.'
cac7	ff	(unknown)  '.'
cac8	ff	(unknown)  '.'
cac9	ff	(unknown)  '.'
caca	ff	(unknown)  '.'
cacb	ff	(unknown)  '.'
cacc	ff	(unknown)  '.'
cacd	ff	(unknown)  '.'
cace	ff	(unknown)  '.'
cacf	ff	(unknown)  '.'
cad0	ff	(unknown)  '.'
cad1	ff	(unknown)  '.'
cad2	ff	(unknown)  '.'
cad3	ff	(unknown)  '.'
cad4	ff	(unknown)  '.'
cad5	ff	(unknown)  '.'
cad6	ff	(unknown)  '.'
cad7	ff	(unknown)  '.'
cad8	ff	(unknown)  '.'
cad9	ff	(unknown)  '.'
cada	ff	(unknown)  '.'
cadb	ff	(unknown)  '.'
cadc	ff	(unknown)  '.'
cadd	ff	(unknown)  '.'
cade	ff	(unknown)  '.'
cadf	ff	(unknown)  '.'
cae0	ff	(unknown)  '.'
cae1	ff	(unknown)  '.'
cae2	ff	(unknown)  '.'
cae3	ff	(unknown)  '.'
cae4	ff	(unknown)  '.'
cae5	ff	(unknown)  '.'
cae6	ff	(unknown)  '.'
cae7	ff	(unknown)  '.'
cae8	ff	(unknown)  '.'
cae9	ff	(unknown)  '.'
caea	ff	(unknown)  '.'
caeb	ff	(unknown)  '.'
caec	ff	(unknown)  '.'
caed	ff	(unknown)  '.'
caee	ff	(unknown)  '.'
caef	ff	(unknown)  '.'
caf0	ff	(unknown)  '.'
caf1	ff	(unknown)  '.'
caf2	ff	(unknown)  '.'
caf3	ff	(unknown)  '.'
caf4	ff	(unknown)  '.'
caf5	ff	(unknown)  '.'
caf6	ff	(unknown)  '.'
caf7	ff	(unknown)  '.'
caf8	ff	(unknown)  '.'
caf9	ff	(unknown)  '.'
cafa	ff	(unknown)  '.'
cafb	ff	(unknown)  '.'
cafc	ff	(unknown)  '.'
cafd	ff	(unknown)  '.'
cafe	ff	(unknown)  '.'
caff	ff	(unknown)  '.'
cb00	ff	(unknown)  '.'
cb01	ff	(unknown)  '.'
cb02	ff	(unknown)  '.'
cb03	ff	(unknown)  '.'
cb04	ff	(unknown)  '.'
cb05	ff	(unknown)  '.'
cb06	ff	(unknown)  '.'
cb07	ff	(unknown)  '.'
cb08	ff	(unknown)  '.'
cb09	ff	(unknown)  '.'
cb0a	ff	(unknown)  '.'
cb0b	ff	(unknown)  '.'
cb0c	ff	(unknown)  '.'
cb0d	ff	(unknown)  '.'
cb0e	ff	(unknown)  '.'
cb0f	ff	(unknown)  '.'
cb10	ff	(unknown)  '.'
cb11	ff	(unknown)  '.'
cb12	ff	(unknown)  '.'
cb13	ff	(unknown)  '.'
cb14	ff	(unknown)  '.'
cb15	ff	(unknown)  '.'
cb16	ff	(unknown)  '.'
cb17	ff	(unknown)  '.'
cb18	ff	(unknown)  '.'
cb19	ff	(unknown)  '.'
cb1a	ff	(unknown)  '.'
cb1b	ff	(unknown)  '.'
cb1c	ff	(unknown)  '.'
cb1d	ff	(unknown)  '.'
cb1e	ff	(unknown)  '.'
cb1f	ff	(unknown)  '.'
cb20	ff	(unknown)  '.'
cb21	ff	(unknown)  '.'
cb22	ff	(unknown)  '.'
cb23	ff	(unknown)  '.'
cb24	ff	(unknown)  '.'
cb25	ff	(unknown)  '.'
cb26	ff	(unknown)  '.'
cb27	ff	(unknown)  '.'
cb28	ff	(unknown)  '.'
cb29	ff	(unknown)  '.'
cb2a	ff	(unknown)  '.'
cb2b	ff	(unknown)  '.'
cb2c	ff	(unknown)  '.'
cb2d	ff	(unknown)  '.'
cb2e	ff	(unknown)  '.'
cb2f	ff	(unknown)  '.'
cb30	ff	(unknown)  '.'
cb31	ff	(unknown)  '.'
cb32	ff	(unknown)  '.'
cb33	ff	(unknown)  '.'
cb34	ff	(unknown)  '.'
cb35	ff	(unknown)  '.'
cb36	ff	(unknown)  '.'
cb37	ff	(unknown)  '.'
cb38	ff	(unknown)  '.'
cb39	ff	(unknown)  '.'
cb3a	ff	(unknown)  '.'
cb3b	ff	(unknown)  '.'
cb3c	ff	(unknown)  '.'
cb3d	ff	(unknown)  '.'
cb3e	ff	(unknown)  '.'
cb3f	ff	(unknown)  '.'
cb40	ff	(unknown)  '.'
cb41	ff	(unknown)  '.'
cb42	ff	(unknown)  '.'
cb43	ff	(unknown)  '.'
cb44	ff	(unknown)  '.'
cb45	ff	(unknown)  '.'
cb46	ff	(unknown)  '.'
cb47	ff	(unknown)  '.'
cb48	ff	(unknown)  '.'
cb49	ff	(unknown)  '.'
cb4a	ff	(unknown)  '.'
cb4b	ff	(unknown)  '.'
cb4c	ff	(unknown)  '.'
cb4d	ff	(unknown)  '.'
cb4e	ff	(unknown)  '.'
cb4f	ff	(unknown)  '.'
cb50	ff	(unknown)  '.'
cb51	ff	(unknown)  '.'
cb52	ff	(unknown)  '.'
cb53	ff	(unknown)  '.'
cb54	ff	(unknown)  '.'
cb55	ff	(unknown)  '.'
cb56	ff	(unknown)  '.'
cb57	ff	(unknown)  '.'
cb58	ff	(unknown)  '.'
cb59	ff	(unknown)  '.'
cb5a	ff	(unknown)  '.'
cb5b	ff	(unknown)  '.'
cb5c	ff	(unknown)  '.'
cb5d	ff	(unknown)  '.'
cb5e	ff	(unknown)  '.'
cb5f	ff	(unknown)  '.'
cb60	ff	(unknown)  '.'
cb61	ff	(unknown)  '.'
cb62	ff	(unknown)  '.'
cb63	ff	(unknown)  '.'
cb64	ff	(unknown)  '.'
cb65	ff	(unknown)  '.'
cb66	ff	(unknown)  '.'
cb67	ff	(unknown)  '.'
cb68	ff	(unknown)  '.'
cb69	ff	(unknown)  '.'
cb6a	ff	(unknown)  '.'
cb6b	ff	(unknown)  '.'
cb6c	ff	(unknown)  '.'
cb6d	ff	(unknown)  '.'
cb6e	ff	(unknown)  '.'
cb6f	ff	(unknown)  '.'
cb70	ff	(unknown)  '.'
cb71	ff	(unknown)  '.'
cb72	ff	(unknown)  '.'
cb73	ff	(unknown)  '.'
cb74	ff	(unknown)  '.'
cb75	ff	(unknown)  '.'
cb76	ff	(unknown)  '.'
cb77	ff	(unknown)  '.'
cb78	ff	(unknown)  '.'
cb79	ff	(unknown)  '.'
cb7a	ff	(unknown)  '.'
cb7b	ff	(unknown)  '.'
cb7c	ff	(unknown)  '.'
cb7d	ff	(unknown)  '.'
cb7e	ff	(unknown)  '.'
cb7f	ff	(unknown)  '.'
cb80	ff	(unknown)  '.'
cb81	ff	(unknown)  '.'
cb82	ff	(unknown)  '.'
cb83	ff	(unknown)  '.'
cb84	ff	(unknown)  '.'
cb85	ff	(unknown)  '.'
cb86	ff	(unknown)  '.'
cb87	ff	(unknown)  '.'
cb88	ff	(unknown)  '.'
cb89	ff	(unknown)  '.'
cb8a	ff	(unknown)  '.'
cb8b	ff	(unknown)  '.'
cb8c	ff	(unknown)  '.'
cb8d	ff	(unknown)  '.'
cb8e	ff	(unknown)  '.'
cb8f	ff	(unknown)  '.'
cb90	ff	(unknown)  '.'
cb91	ff	(unknown)  '.'
cb92	ff	(unknown)  '.'
cb93	ff	(unknown)  '.'
cb94	ff	(unknown)  '.'
cb95	ff	(unknown)  '.'
cb96	ff	(unknown)  '.'
cb97	ff	(unknown)  '.'
cb98	ff	(unknown)  '.'
cb99	ff	(unknown)  '.'
cb9a	ff	(unknown)  '.'
cb9b	ff	(unknown)  '.'
cb9c	ff	(unknown)  '.'
cb9d	ff	(unknown)  '.'
cb9e	ff	(unknown)  '.'
cb9f	ff	(unknown)  '.'
cba0	ff	(unknown)  '.'
cba1	ff	(unknown)  '.'
cba2	ff	(unknown)  '.'
cba3	ff	(unknown)  '.'
cba4	ff	(unknown)  '.'
cba5	ff	(unknown)  '.'
cba6	ff	(unknown)  '.'
cba7	ff	(unknown)  '.'
cba8	ff	(unknown)  '.'
cba9	ff	(unknown)  '.'
cbaa	ff	(unknown)  '.'
cbab	ff	(unknown)  '.'
cbac	ff	(unknown)  '.'
cbad	ff	(unknown)  '.'
cbae	ff	(unknown)  '.'
cbaf	ff	(unknown)  '.'
cbb0	ff	(unknown)  '.'
cbb1	ff	(unknown)  '.'
cbb2	ff	(unknown)  '.'
cbb3	ff	(unknown)  '.'
cbb4	ff	(unknown)  '.'
cbb5	ff	(unknown)  '.'
cbb6	ff	(unknown)  '.'
cbb7	ff	(unknown)  '.'
cbb8	ff	(unknown)  '.'
cbb9	ff	(unknown)  '.'
cbba	ff	(unknown)  '.'
cbbb	ff	(unknown)  '.'
cbbc	ff	(unknown)  '.'
cbbd	ff	(unknown)  '.'
cbbe	ff	(unknown)  '.'
cbbf	ff	(unknown)  '.'
cbc0	ff	(unknown)  '.'
cbc1	ff	(unknown)  '.'
cbc2	ff	(unknown)  '.'
cbc3	ff	(unknown)  '.'
cbc4	ff	(unknown)  '.'
cbc5	ff	(unknown)  '.'
cbc6	ff	(unknown)  '.'
cbc7	ff	(unknown)  '.'
cbc8	ff	(unknown)  '.'
cbc9	ff	(unknown)  '.'
cbca	ff	(unknown)  '.'
cbcb	ff	(unknown)  '.'
cbcc	ff	(unknown)  '.'
cbcd	ff	(unknown)  '.'
cbce	ff	(unknown)  '.'
cbcf	ff	(unknown)  '.'
cbd0	ff	(unknown)  '.'
cbd1	ff	(unknown)  '.'
cbd2	ff	(unknown)  '.'
cbd3	ff	(unknown)  '.'
cbd4	ff	(unknown)  '.'
cbd5	ff	(unknown)  '.'
cbd6	ff	(unknown)  '.'
cbd7	ff	(unknown)  '.'
cbd8	ff	(unknown)  '.'
cbd9	ff	(unknown)  '.'
cbda	ff	(unknown)  '.'
cbdb	ff	(unknown)  '.'
cbdc	ff	(unknown)  '.'
cbdd	ff	(unknown)  '.'
cbde	ff	(unknown)  '.'
cbdf	ff	(unknown)  '.'
cbe0	ff	(unknown)  '.'
cbe1	ff	(unknown)  '.'
cbe2	ff	(unknown)  '.'
cbe3	ff	(unknown)  '.'
cbe4	ff	(unknown)  '.'
cbe5	ff	(unknown)  '.'
cbe6	ff	(unknown)  '.'
cbe7	ff	(unknown)  '.'
cbe8	ff	(unknown)  '.'
cbe9	ff	(unknown)  '.'
cbea	ff	(unknown)  '.'
cbeb	ff	(unknown)  '.'
cbec	ff	(unknown)  '.'
cbed	ff	(unknown)  '.'
cbee	ff	(unknown)  '.'
cbef	ff	(unknown)  '.'
cbf0	ff	(unknown)  '.'
cbf1	ff	(unknown)  '.'
cbf2	ff	(unknown)  '.'
cbf3	ff	(unknown)  '.'
cbf4	ff	(unknown)  '.'
cbf5	ff	(unknown)  '.'
cbf6	ff	(unknown)  '.'
cbf7	ff	(unknown)  '.'
cbf8	ff	(unknown)  '.'
cbf9	ff	(unknown)  '.'
cbfa	ff	(unknown)  '.'
cbfb	ff	(unknown)  '.'
cbfc	ff	(unknown)  '.'
cbfd	ff	(unknown)  '.'
cbfe	ff	(unknown)  '.'
cbff	ff	(unknown)  '.'
cc00	ff	(unknown)  '.'
cc01	ff	(unknown)  '.'
cc02	ff	(unknown)  '.'
cc03	ff	(unknown)  '.'
cc04	ff	(unknown)  '.'
cc05	ff	(unknown)  '.'
cc06	ff	(unknown)  '.'
cc07	ff	(unknown)  '.'
cc08	ff	(unknown)  '.'
cc09	ff	(unknown)  '.'
cc0a	ff	(unknown)  '.'
cc0b	ff	(unknown)  '.'
cc0c	ff	(unknown)  '.'
cc0d	ff	(unknown)  '.'
cc0e	ff	(unknown)  '.'
cc0f	ff	(unknown)  '.'
cc10	ff	(unknown)  '.'
cc11	ff	(unknown)  '.'
cc12	ff	(unknown)  '.'
cc13	ff	(unknown)  '.'
cc14	ff	(unknown)  '.'
cc15	ff	(unknown)  '.'
cc16	ff	(unknown)  '.'
cc17	ff	(unknown)  '.'
cc18	ff	(unknown)  '.'
cc19	ff	(unknown)  '.'
cc1a	ff	(unknown)  '.'
cc1b	ff	(unknown)  '.'
cc1c	ff	(unknown)  '.'
cc1d	ff	(unknown)  '.'
cc1e	ff	(unknown)  '.'
cc1f	ff	(unknown)  '.'
cc20	ff	(unknown)  '.'
cc21	ff	(unknown)  '.'
cc22	ff	(unknown)  '.'
cc23	ff	(unknown)  '.'
cc24	ff	(unknown)  '.'
cc25	ff	(unknown)  '.'
cc26	ff	(unknown)  '.'
cc27	ff	(unknown)  '.'
cc28	ff	(unknown)  '.'
cc29	ff	(unknown)  '.'
cc2a	ff	(unknown)  '.'
cc2b	ff	(unknown)  '.'
cc2c	ff	(unknown)  '.'
cc2d	ff	(unknown)  '.'
cc2e	ff	(unknown)  '.'
cc2f	ff	(unknown)  '.'
cc30	ff	(unknown)  '.'
cc31	ff	(unknown)  '.'
cc32	ff	(unknown)  '.'
cc33	ff	(unknown)  '.'
cc34	ff	(unknown)  '.'
cc35	ff	(unknown)  '.'
cc36	ff	(unknown)  '.'
cc37	ff	(unknown)  '.'
cc38	ff	(unknown)  '.'
cc39	ff	(unknown)  '.'
cc3a	ff	(unknown)  '.'
cc3b	ff	(unknown)  '.'
cc3c	ff	(unknown)  '.'
cc3d	ff	(unknown)  '.'
cc3e	ff	(unknown)  '.'
cc3f	ff	(unknown)  '.'
cc40	ff	(unknown)  '.'
cc41	ff	(unknown)  '.'
cc42	ff	(unknown)  '.'
cc43	ff	(unknown)  '.'
cc44	ff	(unknown)  '.'
cc45	ff	(unknown)  '.'
cc46	ff	(unknown)  '.'
cc47	ff	(unknown)  '.'
cc48	ff	(unknown)  '.'
cc49	ff	(unknown)  '.'
cc4a	ff	(unknown)  '.'
cc4b	ff	(unknown)  '.'
cc4c	ff	(unknown)  '.'
cc4d	ff	(unknown)  '.'
cc4e	ff	(unknown)  '.'
cc4f	ff	(unknown)  '.'
cc50	ff	(unknown)  '.'
cc51	ff	(unknown)  '.'
cc52	ff	(unknown)  '.'
cc53	ff	(unknown)  '.'
cc54	ff	(unknown)  '.'
cc55	ff	(unknown)  '.'
cc56	ff	(unknown)  '.'
cc57	ff	(unknown)  '.'
cc58	ff	(unknown)  '.'
cc59	ff	(unknown)  '.'
cc5a	ff	(unknown)  '.'
cc5b	ff	(unknown)  '.'
cc5c	ff	(unknown)  '.'
cc5d	ff	(unknown)  '.'
cc5e	ff	(unknown)  '.'
cc5f	ff	(unknown)  '.'
cc60	ff	(unknown)  '.'
cc61	ff	(unknown)  '.'
cc62	ff	(unknown)  '.'
cc63	ff	(unknown)  '.'
cc64	ff	(unknown)  '.'
cc65	ff	(unknown)  '.'
cc66	ff	(unknown)  '.'
cc67	ff	(unknown)  '.'
cc68	ff	(unknown)  '.'
cc69	ff	(unknown)  '.'
cc6a	ff	(unknown)  '.'
cc6b	ff	(unknown)  '.'
cc6c	ff	(unknown)  '.'
cc6d	ff	(unknown)  '.'
cc6e	ff	(unknown)  '.'
cc6f	ff	(unknown)  '.'
cc70	ff	(unknown)  '.'
cc71	ff	(unknown)  '.'
cc72	ff	(unknown)  '.'
cc73	ff	(unknown)  '.'
cc74	ff	(unknown)  '.'
cc75	ff	(unknown)  '.'
cc76	ff	(unknown)  '.'
cc77	ff	(unknown)  '.'
cc78	ff	(unknown)  '.'
cc79	ff	(unknown)  '.'
cc7a	ff	(unknown)  '.'
cc7b	ff	(unknown)  '.'
cc7c	ff	(unknown)  '.'
cc7d	ff	(unknown)  '.'
cc7e	ff	(unknown)  '.'
cc7f	ff	(unknown)  '.'
cc80	ff	(unknown)  '.'
cc81	ff	(unknown)  '.'
cc82	ff	(unknown)  '.'
cc83	ff	(unknown)  '.'
cc84	ff	(unknown)  '.'
cc85	ff	(unknown)  '.'
cc86	ff	(unknown)  '.'
cc87	ff	(unknown)  '.'
cc88	ff	(unknown)  '.'
cc89	ff	(unknown)  '.'
cc8a	ff	(unknown)  '.'
cc8b	ff	(unknown)  '.'
cc8c	ff	(unknown)  '.'
cc8d	ff	(unknown)  '.'
cc8e	ff	(unknown)  '.'
cc8f	ff	(unknown)  '.'
cc90	ff	(unknown)  '.'
cc91	ff	(unknown)  '.'
cc92	ff	(unknown)  '.'
cc93	ff	(unknown)  '.'
cc94	ff	(unknown)  '.'
cc95	ff	(unknown)  '.'
cc96	ff	(unknown)  '.'
cc97	ff	(unknown)  '.'
cc98	ff	(unknown)  '.'
cc99	ff	(unknown)  '.'
cc9a	ff	(unknown)  '.'
cc9b	ff	(unknown)  '.'
cc9c	ff	(unknown)  '.'
cc9d	ff	(unknown)  '.'
cc9e	ff	(unknown)  '.'
cc9f	ff	(unknown)  '.'
cca0	ff	(unknown)  '.'
cca1	ff	(unknown)  '.'
cca2	ff	(unknown)  '.'
cca3	ff	(unknown)  '.'
cca4	ff	(unknown)  '.'
cca5	ff	(unknown)  '.'
cca6	ff	(unknown)  '.'
cca7	ff	(unknown)  '.'
cca8	ff	(unknown)  '.'
cca9	ff	(unknown)  '.'
ccaa	ff	(unknown)  '.'
ccab	ff	(unknown)  '.'
ccac	ff	(unknown)  '.'
ccad	ff	(unknown)  '.'
ccae	ff	(unknown)  '.'
ccaf	ff	(unknown)  '.'
ccb0	ff	(unknown)  '.'
ccb1	ff	(unknown)  '.'
ccb2	ff	(unknown)  '.'
ccb3	ff	(unknown)  '.'
ccb4	ff	(unknown)  '.'
ccb5	ff	(unknown)  '.'
ccb6	ff	(unknown)  '.'
ccb7	ff	(unknown)  '.'
ccb8	ff	(unknown)  '.'
ccb9	ff	(unknown)  '.'
ccba	ff	(unknown)  '.'
ccbb	ff	(unknown)  '.'
ccbc	ff	(unknown)  '.'
ccbd	ff	(unknown)  '.'
ccbe	ff	(unknown)  '.'
ccbf	ff	(unknown)  '.'
ccc0	ff	(unknown)  '.'
ccc1	ff	(unknown)  '.'
ccc2	ff	(unknown)  '.'
ccc3	ff	(unknown)  '.'
ccc4	ff	(unknown)  '.'
ccc5	ff	(unknown)  '.'
ccc6	ff	(unknown)  '.'
ccc7	ff	(unknown)  '.'
ccc8	ff	(unknown)  '.'
ccc9	ff	(unknown)  '.'
ccca	ff	(unknown)  '.'
cccb	ff	(unknown)  '.'
cccc	ff	(unknown)  '.'
cccd	ff	(unknown)  '.'
ccce	ff	(unknown)  '.'
cccf	ff	(unknown)  '.'
ccd0	ff	(unknown)  '.'
ccd1	ff	(unknown)  '.'
ccd2	ff	(unknown)  '.'
ccd3	ff	(unknown)  '.'
ccd4	ff	(unknown)  '.'
ccd5	ff	(unknown)  '.'
ccd6	ff	(unknown)  '.'
ccd7	ff	(unknown)  '.'
ccd8	ff	(unknown)  '.'
ccd9	ff	(unknown)  '.'
ccda	ff	(unknown)  '.'
ccdb	ff	(unknown)  '.'
ccdc	ff	(unknown)  '.'
ccdd	ff	(unknown)  '.'
ccde	ff	(unknown)  '.'
ccdf	ff	(unknown)  '.'
cce0	ff	(unknown)  '.'
cce1	ff	(unknown)  '.'
cce2	ff	(unknown)  '.'
cce3	ff	(unknown)  '.'
cce4	ff	(unknown)  '.'
cce5	ff	(unknown)  '.'
cce6	ff	(unknown)  '.'
cce7	ff	(unknown)  '.'
cce8	ff	(unknown)  '.'
cce9	ff	(unknown)  '.'
ccea	ff	(unknown)  '.'
cceb	ff	(unknown)  '.'
ccec	ff	(unknown)  '.'
cced	ff	(unknown)  '.'
ccee	ff	(unknown)  '.'
ccef	ff	(unknown)  '.'
ccf0	ff	(unknown)  '.'
ccf1	ff	(unknown)  '.'
ccf2	ff	(unknown)  '.'
ccf3	ff	(unknown)  '.'
ccf4	ff	(unknown)  '.'
ccf5	ff	(unknown)  '.'
ccf6	ff	(unknown)  '.'
ccf7	ff	(unknown)  '.'
ccf8	ff	(unknown)  '.'
ccf9	ff	(unknown)  '.'
ccfa	ff	(unknown)  '.'
ccfb	ff	(unknown)  '.'
ccfc	ff	(unknown)  '.'
ccfd	ff	(unknown)  '.'
ccfe	ff	(unknown)  '.'
ccff	ff	(unknown)  '.'
cd00	ff	(unknown)  '.'
cd01	ff	(unknown)  '.'
cd02	ff	(unknown)  '.'
cd03	ff	(unknown)  '.'
cd04	ff	(unknown)  '.'
cd05	ff	(unknown)  '.'
cd06	ff	(unknown)  '.'
cd07	ff	(unknown)  '.'
cd08	ff	(unknown)  '.'
cd09	ff	(unknown)  '.'
cd0a	ff	(unknown)  '.'
cd0b	ff	(unknown)  '.'
cd0c	ff	(unknown)  '.'
cd0d	ff	(unknown)  '.'
cd0e	ff	(unknown)  '.'
cd0f	ff	(unknown)  '.'
cd10	ff	(unknown)  '.'
cd11	ff	(unknown)  '.'
cd12	ff	(unknown)  '.'
cd13	ff	(unknown)  '.'
cd14	ff	(unknown)  '.'
cd15	ff	(unknown)  '.'
cd16	ff	(unknown)  '.'
cd17	ff	(unknown)  '.'
cd18	ff	(unknown)  '.'
cd19	ff	(unknown)  '.'
cd1a	ff	(unknown)  '.'
cd1b	ff	(unknown)  '.'
cd1c	ff	(unknown)  '.'
cd1d	ff	(unknown)  '.'
cd1e	ff	(unknown)  '.'
cd1f	ff	(unknown)  '.'
cd20	ff	(unknown)  '.'
cd21	ff	(unknown)  '.'
cd22	ff	(unknown)  '.'
cd23	ff	(unknown)  '.'
cd24	ff	(unknown)  '.'
cd25	ff	(unknown)  '.'
cd26	ff	(unknown)  '.'
cd27	ff	(unknown)  '.'
cd28	ff	(unknown)  '.'
cd29	ff	(unknown)  '.'
cd2a	ff	(unknown)  '.'
cd2b	ff	(unknown)  '.'
cd2c	ff	(unknown)  '.'
cd2d	ff	(unknown)  '.'
cd2e	ff	(unknown)  '.'
cd2f	ff	(unknown)  '.'
cd30	ff	(unknown)  '.'
cd31	ff	(unknown)  '.'
cd32	ff	(unknown)  '.'
cd33	ff	(unknown)  '.'
cd34	ff	(unknown)  '.'
cd35	ff	(unknown)  '.'
cd36	ff	(unknown)  '.'
cd37	ff	(unknown)  '.'
cd38	ff	(unknown)  '.'
cd39	ff	(unknown)  '.'
cd3a	ff	(unknown)  '.'
cd3b	ff	(unknown)  '.'
cd3c	ff	(unknown)  '.'
cd3d	ff	(unknown)  '.'
cd3e	ff	(unknown)  '.'
cd3f	ff	(unknown)  '.'
cd40	ff	(unknown)  '.'
cd41	ff	(unknown)  '.'
cd42	ff	(unknown)  '.'
cd43	ff	(unknown)  '.'
cd44	ff	(unknown)  '.'
cd45	ff	(unknown)  '.'
cd46	ff	(unknown)  '.'
cd47	ff	(unknown)  '.'
cd48	ff	(unknown)  '.'
cd49	ff	(unknown)  '.'
cd4a	ff	(unknown)  '.'
cd4b	ff	(unknown)  '.'
cd4c	ff	(unknown)  '.'
cd4d	ff	(unknown)  '.'
cd4e	ff	(unknown)  '.'
cd4f	ff	(unknown)  '.'
cd50	ff	(unknown)  '.'
cd51	ff	(unknown)  '.'
cd52	ff	(unknown)  '.'
cd53	ff	(unknown)  '.'
cd54	ff	(unknown)  '.'
cd55	ff	(unknown)  '.'
cd56	ff	(unknown)  '.'
cd57	ff	(unknown)  '.'
cd58	ff	(unknown)  '.'
cd59	ff	(unknown)  '.'
cd5a	ff	(unknown)  '.'
cd5b	ff	(unknown)  '.'
cd5c	ff	(unknown)  '.'
cd5d	ff	(unknown)  '.'
cd5e	ff	(unknown)  '.'
cd5f	ff	(unknown)  '.'
cd60	ff	(unknown)  '.'
cd61	ff	(unknown)  '.'
cd62	ff	(unknown)  '.'
cd63	ff	(unknown)  '.'
cd64	ff	(unknown)  '.'
cd65	ff	(unknown)  '.'
cd66	ff	(unknown)  '.'
cd67	ff	(unknown)  '.'
cd68	ff	(unknown)  '.'
cd69	ff	(unknown)  '.'
cd6a	ff	(unknown)  '.'
cd6b	ff	(unknown)  '.'
cd6c	ff	(unknown)  '.'
cd6d	ff	(unknown)  '.'
cd6e	ff	(unknown)  '.'
cd6f	ff	(unknown)  '.'
cd70	ff	(unknown)  '.'
cd71	ff	(unknown)  '.'
cd72	ff	(unknown)  '.'
cd73	ff	(unknown)  '.'
cd74	ff	(unknown)  '.'
cd75	ff	(unknown)  '.'
cd76	ff	(unknown)  '.'
cd77	ff	(unknown)  '.'
cd78	ff	(unknown)  '.'
cd79	ff	(unknown)  '.'
cd7a	ff	(unknown)  '.'
cd7b	ff	(unknown)  '.'
cd7c	ff	(unknown)  '.'
cd7d	ff	(unknown)  '.'
cd7e	ff	(unknown)  '.'
cd7f	ff	(unknown)  '.'
cd80	ff	(unknown)  '.'
cd81	ff	(unknown)  '.'
cd82	ff	(unknown)  '.'
cd83	ff	(unknown)  '.'
cd84	ff	(unknown)  '.'
cd85	ff	(unknown)  '.'
cd86	ff	(unknown)  '.'
cd87	ff	(unknown)  '.'
cd88	ff	(unknown)  '.'
cd89	ff	(unknown)  '.'
cd8a	ff	(unknown)  '.'
cd8b	ff	(unknown)  '.'
cd8c	ff	(unknown)  '.'
cd8d	ff	(unknown)  '.'
cd8e	ff	(unknown)  '.'
cd8f	ff	(unknown)  '.'
cd90	ff	(unknown)  '.'
cd91	ff	(unknown)  '.'
cd92	ff	(unknown)  '.'
cd93	ff	(unknown)  '.'
cd94	ff	(unknown)  '.'
cd95	ff	(unknown)  '.'
cd96	ff	(unknown)  '.'
cd97	ff	(unknown)  '.'
cd98	ff	(unknown)  '.'
cd99	ff	(unknown)  '.'
cd9a	ff	(unknown)  '.'
cd9b	ff	(unknown)  '.'
cd9c	ff	(unknown)  '.'
cd9d	ff	(unknown)  '.'
cd9e	ff	(unknown)  '.'
cd9f	ff	(unknown)  '.'
cda0	ff	(unknown)  '.'
cda1	ff	(unknown)  '.'
cda2	ff	(unknown)  '.'
cda3	ff	(unknown)  '.'
cda4	ff	(unknown)  '.'
cda5	ff	(unknown)  '.'
cda6	ff	(unknown)  '.'
cda7	ff	(unknown)  '.'
cda8	ff	(unknown)  '.'
cda9	ff	(unknown)  '.'
cdaa	ff	(unknown)  '.'
cdab	ff	(unknown)  '.'
cdac	ff	(unknown)  '.'
cdad	ff	(unknown)  '.'
cdae	ff	(unknown)  '.'
cdaf	ff	(unknown)  '.'
cdb0	ff	(unknown)  '.'
cdb1	ff	(unknown)  '.'
cdb2	ff	(unknown)  '.'
cdb3	ff	(unknown)  '.'
cdb4	ff	(unknown)  '.'
cdb5	ff	(unknown)  '.'
cdb6	ff	(unknown)  '.'
cdb7	ff	(unknown)  '.'
cdb8	ff	(unknown)  '.'
cdb9	ff	(unknown)  '.'
cdba	ff	(unknown)  '.'
cdbb	ff	(unknown)  '.'
cdbc	ff	(unknown)  '.'
cdbd	ff	(unknown)  '.'
cdbe	ff	(unknown)  '.'
cdbf	ff	(unknown)  '.'
cdc0	ff	(unknown)  '.'
cdc1	ff	(unknown)  '.'
cdc2	ff	(unknown)  '.'
cdc3	ff	(unknown)  '.'
cdc4	ff	(unknown)  '.'
cdc5	ff	(unknown)  '.'
cdc6	ff	(unknown)  '.'
cdc7	ff	(unknown)  '.'
cdc8	ff	(unknown)  '.'
cdc9	ff	(unknown)  '.'
cdca	ff	(unknown)  '.'
cdcb	ff	(unknown)  '.'
cdcc	ff	(unknown)  '.'
cdcd	ff	(unknown)  '.'
cdce	ff	(unknown)  '.'
cdcf	ff	(unknown)  '.'
cdd0	ff	(unknown)  '.'
cdd1	ff	(unknown)  '.'
cdd2	ff	(unknown)  '.'
cdd3	ff	(unknown)  '.'
cdd4	ff	(unknown)  '.'
cdd5	ff	(unknown)  '.'
cdd6	ff	(unknown)  '.'
cdd7	ff	(unknown)  '.'
cdd8	ff	(unknown)  '.'
cdd9	ff	(unknown)  '.'
cdda	ff	(unknown)  '.'
cddb	ff	(unknown)  '.'
cddc	ff	(unknown)  '.'
cddd	ff	(unknown)  '.'
cdde	ff	(unknown)  '.'
cddf	ff	(unknown)  '.'
cde0	ff	(unknown)  '.'
cde1	ff	(unknown)  '.'
cde2	ff	(unknown)  '.'
cde3	ff	(unknown)  '.'
cde4	ff	(unknown)  '.'
cde5	ff	(unknown)  '.'
cde6	ff	(unknown)  '.'
cde7	ff	(unknown)  '.'
cde8	ff	(unknown)  '.'
cde9	ff	(unknown)  '.'
cdea	ff	(unknown)  '.'
cdeb	ff	(unknown)  '.'
cdec	ff	(unknown)  '.'
cded	ff	(unknown)  '.'
cdee	ff	(unknown)  '.'
cdef	ff	(unknown)  '.'
cdf0	ff	(unknown)  '.'
cdf1	ff	(unknown)  '.'
cdf2	ff	(unknown)  '.'
cdf3	ff	(unknown)  '.'
cdf4	ff	(unknown)  '.'
cdf5	ff	(unknown)  '.'
cdf6	ff	(unknown)  '.'
cdf7	ff	(unknown)  '.'
cdf8	ff	(unknown)  '.'
cdf9	ff	(unknown)  '.'
cdfa	ff	(unknown)  '.'
cdfb	ff	(unknown)  '.'
cdfc	ff	(unknown)  '.'
cdfd	ff	(unknown)  '.'
cdfe	ff	(unknown)  '.'
cdff	ff	(unknown)  '.'
ce00	ff	(unknown)  '.'
ce01	ff	(unknown)  '.'
ce02	ff	(unknown)  '.'
ce03	ff	(unknown)  '.'
ce04	ff	(unknown)  '.'
ce05	ff	(unknown)  '.'
ce06	ff	(unknown)  '.'
ce07	ff	(unknown)  '.'
ce08	ff	(unknown)  '.'
ce09	ff	(unknown)  '.'
ce0a	ff	(unknown)  '.'
ce0b	ff	(unknown)  '.'
ce0c	ff	(unknown)  '.'
ce0d	ff	(unknown)  '.'
ce0e	ff	(unknown)  '.'
ce0f	ff	(unknown)  '.'
ce10	ff	(unknown)  '.'
ce11	ff	(unknown)  '.'
ce12	ff	(unknown)  '.'
ce13	ff	(unknown)  '.'
ce14	ff	(unknown)  '.'
ce15	ff	(unknown)  '.'
ce16	ff	(unknown)  '.'
ce17	ff	(unknown)  '.'
ce18	ff	(unknown)  '.'
ce19	ff	(unknown)  '.'
ce1a	ff	(unknown)  '.'
ce1b	ff	(unknown)  '.'
ce1c	ff	(unknown)  '.'
ce1d	ff	(unknown)  '.'
ce1e	ff	(unknown)  '.'
ce1f	ff	(unknown)  '.'
ce20	ff	(unknown)  '.'
ce21	ff	(unknown)  '.'
ce22	ff	(unknown)  '.'
ce23	ff	(unknown)  '.'
ce24	ff	(unknown)  '.'
ce25	ff	(unknown)  '.'
ce26	ff	(unknown)  '.'
ce27	ff	(unknown)  '.'
ce28	ff	(unknown)  '.'
ce29	ff	(unknown)  '.'
ce2a	ff	(unknown)  '.'
ce2b	ff	(unknown)  '.'
ce2c	ff	(unknown)  '.'
ce2d	ff	(unknown)  '.'
ce2e	ff	(unknown)  '.'
ce2f	ff	(unknown)  '.'
ce30	ff	(unknown)  '.'
ce31	ff	(unknown)  '.'
ce32	ff	(unknown)  '.'
ce33	ff	(unknown)  '.'
ce34	ff	(unknown)  '.'
ce35	ff	(unknown)  '.'
ce36	ff	(unknown)  '.'
ce37	ff	(unknown)  '.'
ce38	ff	(unknown)  '.'
ce39	ff	(unknown)  '.'
ce3a	ff	(unknown)  '.'
ce3b	ff	(unknown)  '.'
ce3c	ff	(unknown)  '.'
ce3d	ff	(unknown)  '.'
ce3e	ff	(unknown)  '.'
ce3f	ff	(unknown)  '.'
ce40	ff	(unknown)  '.'
ce41	ff	(unknown)  '.'
ce42	ff	(unknown)  '.'
ce43	ff	(unknown)  '.'
ce44	ff	(unknown)  '.'
ce45	ff	(unknown)  '.'
ce46	ff	(unknown)  '.'
ce47	ff	(unknown)  '.'
ce48	ff	(unknown)  '.'
ce49	ff	(unknown)  '.'
ce4a	ff	(unknown)  '.'
ce4b	ff	(unknown)  '.'
ce4c	ff	(unknown)  '.'
ce4d	ff	(unknown)  '.'
ce4e	ff	(unknown)  '.'
ce4f	ff	(unknown)  '.'
ce50	ff	(unknown)  '.'
ce51	ff	(unknown)  '.'
ce52	ff	(unknown)  '.'
ce53	ff	(unknown)  '.'
ce54	ff	(unknown)  '.'
ce55	ff	(unknown)  '.'
ce56	ff	(unknown)  '.'
ce57	ff	(unknown)  '.'
ce58	ff	(unknown)  '.'
ce59	ff	(unknown)  '.'
ce5a	ff	(unknown)  '.'
ce5b	ff	(unknown)  '.'
ce5c	ff	(unknown)  '.'
ce5d	ff	(unknown)  '.'
ce5e	ff	(unknown)  '.'
ce5f	ff	(unknown)  '.'
ce60	ff	(unknown)  '.'
ce61	ff	(unknown)  '.'
ce62	ff	(unknown)  '.'
ce63	ff	(unknown)  '.'
ce64	ff	(unknown)  '.'
ce65	ff	(unknown)  '.'
ce66	ff	(unknown)  '.'
ce67	ff	(unknown)  '.'
ce68	ff	(unknown)  '.'
ce69	ff	(unknown)  '.'
ce6a	ff	(unknown)  '.'
ce6b	ff	(unknown)  '.'
ce6c	ff	(unknown)  '.'
ce6d	ff	(unknown)  '.'
ce6e	ff	(unknown)  '.'
ce6f	ff	(unknown)  '.'
ce70	ff	(unknown)  '.'
ce71	ff	(unknown)  '.'
ce72	ff	(unknown)  '.'
ce73	ff	(unknown)  '.'
ce74	ff	(unknown)  '.'
ce75	ff	(unknown)  '.'
ce76	ff	(unknown)  '.'
ce77	ff	(unknown)  '.'
ce78	ff	(unknown)  '.'
ce79	ff	(unknown)  '.'
ce7a	ff	(unknown)  '.'
ce7b	ff	(unknown)  '.'
ce7c	ff	(unknown)  '.'
ce7d	ff	(unknown)  '.'
ce7e	ff	(unknown)  '.'
ce7f	ff	(unknown)  '.'
ce80	ff	(unknown)  '.'
ce81	ff	(unknown)  '.'
ce82	ff	(unknown)  '.'
ce83	ff	(unknown)  '.'
ce84	ff	(unknown)  '.'
ce85	ff	(unknown)  '.'
ce86	ff	(unknown)  '.'
ce87	ff	(unknown)  '.'
ce88	ff	(unknown)  '.'
ce89	ff	(unknown)  '.'
ce8a	ff	(unknown)  '.'
ce8b	ff	(unknown)  '.'
ce8c	ff	(unknown)  '.'
ce8d	ff	(unknown)  '.'
ce8e	ff	(unknown)  '.'
ce8f	ff	(unknown)  '.'
ce90	ff	(unknown)  '.'
ce91	ff	(unknown)  '.'
ce92	ff	(unknown)  '.'
ce93	ff	(unknown)  '.'
ce94	ff	(unknown)  '.'
ce95	ff	(unknown)  '.'
ce96	ff	(unknown)  '.'
ce97	ff	(unknown)  '.'
ce98	ff	(unknown)  '.'
ce99	ff	(unknown)  '.'
ce9a	ff	(unknown)  '.'
ce9b	ff	(unknown)  '.'
ce9c	ff	(unknown)  '.'
ce9d	ff	(unknown)  '.'
ce9e	ff	(unknown)  '.'
ce9f	ff	(unknown)  '.'
cea0	ff	(unknown)  '.'
cea1	ff	(unknown)  '.'
cea2	ff	(unknown)  '.'
cea3	ff	(unknown)  '.'
cea4	ff	(unknown)  '.'
cea5	ff	(unknown)  '.'
cea6	ff	(unknown)  '.'
cea7	ff	(unknown)  '.'
cea8	ff	(unknown)  '.'
cea9	ff	(unknown)  '.'
ceaa	ff	(unknown)  '.'
ceab	ff	(unknown)  '.'
ceac	ff	(unknown)  '.'
cead	ff	(unknown)  '.'
ceae	ff	(unknown)  '.'
ceaf	ff	(unknown)  '.'
ceb0	ff	(unknown)  '.'
ceb1	ff	(unknown)  '.'
ceb2	ff	(unknown)  '.'
ceb3	ff	(unknown)  '.'
ceb4	ff	(unknown)  '.'
ceb5	ff	(unknown)  '.'
ceb6	ff	(unknown)  '.'
ceb7	ff	(unknown)  '.'
ceb8	ff	(unknown)  '.'
ceb9	ff	(unknown)  '.'
ceba	ff	(unknown)  '.'
cebb	ff	(unknown)  '.'
cebc	ff	(unknown)  '.'
cebd	ff	(unknown)  '.'
cebe	ff	(unknown)  '.'
cebf	ff	(unknown)  '.'
cec0	ff	(unknown)  '.'
cec1	ff	(unknown)  '.'
cec2	ff	(unknown)  '.'
cec3	ff	(unknown)  '.'
cec4	ff	(unknown)  '.'
cec5	ff	(unknown)  '.'
cec6	ff	(unknown)  '.'
cec7	ff	(unknown)  '.'
cec8	ff	(unknown)  '.'
cec9	ff	(unknown)  '.'
ceca	ff	(unknown)  '.'
cecb	ff	(unknown)  '.'
cecc	ff	(unknown)  '.'
cecd	ff	(unknown)  '.'
cece	ff	(unknown)  '.'
cecf	ff	(unknown)  '.'
ced0	ff	(unknown)  '.'
ced1	ff	(unknown)  '.'
ced2	ff	(unknown)  '.'
ced3	ff	(unknown)  '.'
ced4	ff	(unknown)  '.'
ced5	ff	(unknown)  '.'
ced6	ff	(unknown)  '.'
ced7	ff	(unknown)  '.'
ced8	ff	(unknown)  '.'
ced9	ff	(unknown)  '.'
ceda	ff	(unknown)  '.'
cedb	ff	(unknown)  '.'
cedc	ff	(unknown)  '.'
cedd	ff	(unknown)  '.'
cede	ff	(unknown)  '.'
cedf	ff	(unknown)  '.'
cee0	ff	(unknown)  '.'
cee1	ff	(unknown)  '.'
cee2	ff	(unknown)  '.'
cee3	ff	(unknown)  '.'
cee4	ff	(unknown)  '.'
cee5	ff	(unknown)  '.'
cee6	ff	(unknown)  '.'
cee7	ff	(unknown)  '.'
cee8	ff	(unknown)  '.'
cee9	ff	(unknown)  '.'
ceea	ff	(unknown)  '.'
ceeb	ff	(unknown)  '.'
ceec	ff	(unknown)  '.'
ceed	ff	(unknown)  '.'
ceee	ff	(unknown)  '.'
ceef	ff	(unknown)  '.'
cef0	ff	(unknown)  '.'
cef1	ff	(unknown)  '.'
cef2	ff	(unknown)  '.'
cef3	ff	(unknown)  '.'
cef4	ff	(unknown)  '.'
cef5	ff	(unknown)  '.'
cef6	ff	(unknown)  '.'
cef7	ff	(unknown)  '.'
cef8	ff	(unknown)  '.'
cef9	ff	(unknown)  '.'
cefa	ff	(unknown)  '.'
cefb	ff	(unknown)  '.'
cefc	ff	(unknown)  '.'
cefd	ff	(unknown)  '.'
cefe	ff	(unknown)  '.'
ceff	ff	(unknown)  '.'
cf00	ff	(unknown)  '.'
cf01	ff	(unknown)  '.'
cf02	ff	(unknown)  '.'
cf03	ff	(unknown)  '.'
cf04	ff	(unknown)  '.'
cf05	ff	(unknown)  '.'
cf06	ff	(unknown)  '.'
cf07	ff	(unknown)  '.'
cf08	ff	(unknown)  '.'
cf09	ff	(unknown)  '.'
cf0a	ff	(unknown)  '.'
cf0b	ff	(unknown)  '.'
cf0c	ff	(unknown)  '.'
cf0d	ff	(unknown)  '.'
cf0e	ff	(unknown)  '.'
cf0f	ff	(unknown)  '.'
cf10	ff	(unknown)  '.'
cf11	ff	(unknown)  '.'
cf12	ff	(unknown)  '.'
cf13	ff	(unknown)  '.'
cf14	ff	(unknown)  '.'
cf15	ff	(unknown)  '.'
cf16	ff	(unknown)  '.'
cf17	ff	(unknown)  '.'
cf18	ff	(unknown)  '.'
cf19	ff	(unknown)  '.'
cf1a	ff	(unknown)  '.'
cf1b	ff	(unknown)  '.'
cf1c	ff	(unknown)  '.'
cf1d	ff	(unknown)  '.'
cf1e	ff	(unknown)  '.'
cf1f	ff	(unknown)  '.'
cf20	ff	(unknown)  '.'
cf21	ff	(unknown)  '.'
cf22	ff	(unknown)  '.'
cf23	ff	(unknown)  '.'
cf24	ff	(unknown)  '.'
cf25	ff	(unknown)  '.'
cf26	ff	(unknown)  '.'
cf27	ff	(unknown)  '.'
cf28	ff	(unknown)  '.'
cf29	ff	(unknown)  '.'
cf2a	ff	(unknown)  '.'
cf2b	ff	(unknown)  '.'
cf2c	ff	(unknown)  '.'
cf2d	ff	(unknown)  '.'
cf2e	ff	(unknown)  '.'
cf2f	ff	(unknown)  '.'
cf30	ff	(unknown)  '.'
cf31	ff	(unknown)  '.'
cf32	ff	(unknown)  '.'
cf33	ff	(unknown)  '.'
cf34	ff	(unknown)  '.'
cf35	ff	(unknown)  '.'
cf36	ff	(unknown)  '.'
cf37	ff	(unknown)  '.'
cf38	ff	(unknown)  '.'
cf39	ff	(unknown)  '.'
cf3a	ff	(unknown)  '.'
cf3b	ff	(unknown)  '.'
cf3c	ff	(unknown)  '.'
cf3d	ff	(unknown)  '.'
cf3e	ff	(unknown)  '.'
cf3f	ff	(unknown)  '.'
cf40	ff	(unknown)  '.'
cf41	ff	(unknown)  '.'
cf42	ff	(unknown)  '.'
cf43	ff	(unknown)  '.'
cf44	ff	(unknown)  '.'
cf45	ff	(unknown)  '.'
cf46	ff	(unknown)  '.'
cf47	ff	(unknown)  '.'
cf48	ff	(unknown)  '.'
cf49	ff	(unknown)  '.'
cf4a	ff	(unknown)  '.'
cf4b	ff	(unknown)  '.'
cf4c	ff	(unknown)  '.'
cf4d	ff	(unknown)  '.'
cf4e	ff	(unknown)  '.'
cf4f	ff	(unknown)  '.'
cf50	ff	(unknown)  '.'
cf51	ff	(unknown)  '.'
cf52	ff	(unknown)  '.'
cf53	ff	(unknown)  '.'
cf54	ff	(unknown)  '.'
cf55	ff	(unknown)  '.'
cf56	ff	(unknown)  '.'
cf57	ff	(unknown)  '.'
cf58	ff	(unknown)  '.'
cf59	ff	(unknown)  '.'
cf5a	ff	(unknown)  '.'
cf5b	ff	(unknown)  '.'
cf5c	ff	(unknown)  '.'
cf5d	ff	(unknown)  '.'
cf5e	ff	(unknown)  '.'
cf5f	ff	(unknown)  '.'
cf60	ff	(unknown)  '.'
cf61	ff	(unknown)  '.'
cf62	ff	(unknown)  '.'
cf63	ff	(unknown)  '.'
cf64	ff	(unknown)  '.'
cf65	ff	(unknown)  '.'
cf66	ff	(unknown)  '.'
cf67	ff	(unknown)  '.'
cf68	ff	(unknown)  '.'
cf69	ff	(unknown)  '.'
cf6a	ff	(unknown)  '.'
cf6b	ff	(unknown)  '.'
cf6c	ff	(unknown)  '.'
cf6d	ff	(unknown)  '.'
cf6e	ff	(unknown)  '.'
cf6f	ff	(unknown)  '.'
cf70	ff	(unknown)  '.'
cf71	ff	(unknown)  '.'
cf72	ff	(unknown)  '.'
cf73	ff	(unknown)  '.'
cf74	ff	(unknown)  '.'
cf75	ff	(unknown)  '.'
cf76	ff	(unknown)  '.'
cf77	ff	(unknown)  '.'
cf78	ff	(unknown)  '.'
cf79	ff	(unknown)  '.'
cf7a	ff	(unknown)  '.'
cf7b	ff	(unknown)  '.'
cf7c	ff	(unknown)  '.'
cf7d	ff	(unknown)  '.'
cf7e	ff	(unknown)  '.'
cf7f	ff	(unknown)  '.'
cf80	ff	(unknown)  '.'
cf81	ff	(unknown)  '.'
cf82	ff	(unknown)  '.'
cf83	ff	(unknown)  '.'
cf84	ff	(unknown)  '.'
cf85	ff	(unknown)  '.'
cf86	ff	(unknown)  '.'
cf87	ff	(unknown)  '.'
cf88	ff	(unknown)  '.'
cf89	ff	(unknown)  '.'
cf8a	ff	(unknown)  '.'
cf8b	ff	(unknown)  '.'
cf8c	ff	(unknown)  '.'
cf8d	ff	(unknown)  '.'
cf8e	ff	(unknown)  '.'
cf8f	ff	(unknown)  '.'
cf90	ff	(unknown)  '.'
cf91	ff	(unknown)  '.'
cf92	ff	(unknown)  '.'
cf93	ff	(unknown)  '.'
cf94	ff	(unknown)  '.'
cf95	ff	(unknown)  '.'
cf96	ff	(unknown)  '.'
cf97	ff	(unknown)  '.'
cf98	ff	(unknown)  '.'
cf99	ff	(unknown)  '.'
cf9a	ff	(unknown)  '.'
cf9b	ff	(unknown)  '.'
cf9c	ff	(unknown)  '.'
cf9d	ff	(unknown)  '.'
cf9e	ff	(unknown)  '.'
cf9f	ff	(unknown)  '.'
cfa0	ff	(unknown)  '.'
cfa1	ff	(unknown)  '.'
cfa2	ff	(unknown)  '.'
cfa3	ff	(unknown)  '.'
cfa4	ff	(unknown)  '.'
cfa5	ff	(unknown)  '.'
cfa6	ff	(unknown)  '.'
cfa7	ff	(unknown)  '.'
cfa8	ff	(unknown)  '.'
cfa9	ff	(unknown)  '.'
cfaa	ff	(unknown)  '.'
cfab	ff	(unknown)  '.'
cfac	ff	(unknown)  '.'
cfad	ff	(unknown)  '.'
cfae	ff	(unknown)  '.'
cfaf	ff	(unknown)  '.'
cfb0	ff	(unknown)  '.'
cfb1	ff	(unknown)  '.'
cfb2	ff	(unknown)  '.'
cfb3	ff	(unknown)  '.'
cfb4	ff	(unknown)  '.'
cfb5	ff	(unknown)  '.'
cfb6	ff	(unknown)  '.'
cfb7	ff	(unknown)  '.'
cfb8	ff	(unknown)  '.'
cfb9	ff	(unknown)  '.'
cfba	ff	(unknown)  '.'
cfbb	ff	(unknown)  '.'
cfbc	ff	(unknown)  '.'
cfbd	ff	(unknown)  '.'
cfbe	ff	(unknown)  '.'
cfbf	ff	(unknown)  '.'
cfc0	ff	(unknown)  '.'
cfc1	ff	(unknown)  '.'
cfc2	ff	(unknown)  '.'
cfc3	ff	(unknown)  '.'
cfc4	ff	(unknown)  '.'
cfc5	ff	(unknown)  '.'
cfc6	ff	(unknown)  '.'
cfc7	ff	(unknown)  '.'
cfc8	ff	(unknown)  '.'
cfc9	ff	(unknown)  '.'
cfca	ff	(unknown)  '.'
cfcb	ff	(unknown)  '.'
cfcc	ff	(unknown)  '.'
cfcd	ff	(unknown)  '.'
cfce	ff	(unknown)  '.'
cfcf	ff	(unknown)  '.'
cfd0	ff	(unknown)  '.'
cfd1	ff	(unknown)  '.'
cfd2	ff	(unknown)  '.'
cfd3	ff	(unknown)  '.'
cfd4	ff	(unknown)  '.'
cfd5	ff	(unknown)  '.'
cfd6	ff	(unknown)  '.'
cfd7	ff	(unknown)  '.'
cfd8	ff	(unknown)  '.'
cfd9	ff	(unknown)  '.'
cfda	ff	(unknown)  '.'
cfdb	ff	(unknown)  '.'
cfdc	ff	(unknown)  '.'
cfdd	ff	(unknown)  '.'
cfde	ff	(unknown)  '.'
cfdf	ff	(unknown)  '.'
cfe0	ff	(unknown)  '.'
cfe1	ff	(unknown)  '.'
cfe2	ff	(unknown)  '.'
cfe3	ff	(unknown)  '.'
cfe4	ff	(unknown)  '.'
cfe5	ff	(unknown)  '.'
cfe6	ff	(unknown)  '.'
cfe7	ff	(unknown)  '.'
cfe8	ff	(unknown)  '.'
cfe9	ff	(unknown)  '.'
cfea	ff	(unknown)  '.'
cfeb	ff	(unknown)  '.'
cfec	ff	(unknown)  '.'
cfed	ff	(unknown)  '.'
cfee	ff	(unknown)  '.'
cfef	ff	(unknown)  '.'
cff0	ff	(unknown)  '.'
cff1	ff	(unknown)  '.'
cff2	ff	(unknown)  '.'
cff3	ff	(unknown)  '.'
cff4	ff	(unknown)  '.'
cff5	ff	(unknown)  '.'
cff6	ff	(unknown)  '.'
cff7	ff	(unknown)  '.'
cff8	ff	(unknown)  '.'
cff9	ff	(unknown)  '.'
cffa	ff	(unknown)  '.'
cffb	ff	(unknown)  '.'
cffc	ff	(unknown)  '.'
cffd	ff	(unknown)  '.'
cffe	ff	(unknown)  '.'
cfff	ff	(unknown)  '.'
d000	ff	(unknown)  '.'
d001	ff	(unknown)  '.'
d002	ff	(unknown)  '.'
d003	ff	(unknown)  '.'
d004	ff	(unknown)  '.'
d005	ff	(unknown)  '.'
d006	ff	(unknown)  '.'
d007	ff	(unknown)  '.'
d008	ff	(unknown)  '.'
d009	ff	(unknown)  '.'
d00a	ff	(unknown)  '.'
d00b	ff	(unknown)  '.'
d00c	ff	(unknown)  '.'
d00d	ff	(unknown)  '.'
d00e	ff	(unknown)  '.'
d00f	ff	(unknown)  '.'
d010	ff	(unknown)  '.'
d011	ff	(unknown)  '.'
d012	ff	(unknown)  '.'
d013	ff	(unknown)  '.'
d014	ff	(unknown)  '.'
d015	ff	(unknown)  '.'
d016	ff	(unknown)  '.'
d017	ff	(unknown)  '.'
d018	ff	(unknown)  '.'
d019	ff	(unknown)  '.'
d01a	ff	(unknown)  '.'
d01b	ff	(unknown)  '.'
d01c	ff	(unknown)  '.'
d01d	ff	(unknown)  '.'
d01e	ff	(unknown)  '.'
d01f	ff	(unknown)  '.'
d020	ff	(unknown)  '.'
d021	ff	(unknown)  '.'
d022	ff	(unknown)  '.'
d023	ff	(unknown)  '.'
d024	ff	(unknown)  '.'
d025	ff	(unknown)  '.'
d026	ff	(unknown)  '.'
d027	ff	(unknown)  '.'
d028	ff	(unknown)  '.'
d029	ff	(unknown)  '.'
d02a	ff	(unknown)  '.'
d02b	ff	(unknown)  '.'
d02c	ff	(unknown)  '.'
d02d	ff	(unknown)  '.'
d02e	ff	(unknown)  '.'
d02f	ff	(unknown)  '.'
d030	ff	(unknown)  '.'
d031	ff	(unknown)  '.'
d032	ff	(unknown)  '.'
d033	ff	(unknown)  '.'
d034	ff	(unknown)  '.'
d035	ff	(unknown)  '.'
d036	ff	(unknown)  '.'
d037	ff	(unknown)  '.'
d038	ff	(unknown)  '.'
d039	ff	(unknown)  '.'
d03a	ff	(unknown)  '.'
d03b	ff	(unknown)  '.'
d03c	ff	(unknown)  '.'
d03d	ff	(unknown)  '.'
d03e	ff	(unknown)  '.'
d03f	ff	(unknown)  '.'
d040	ff	(unknown)  '.'
d041	ff	(unknown)  '.'
d042	ff	(unknown)  '.'
d043	ff	(unknown)  '.'
d044	ff	(unknown)  '.'
d045	ff	(unknown)  '.'
d046	ff	(unknown)  '.'
d047	ff	(unknown)  '.'
d048	ff	(unknown)  '.'
d049	ff	(unknown)  '.'
d04a	ff	(unknown)  '.'
d04b	ff	(unknown)  '.'
d04c	ff	(unknown)  '.'
d04d	ff	(unknown)  '.'
d04e	ff	(unknown)  '.'
d04f	ff	(unknown)  '.'
d050	ff	(unknown)  '.'
d051	ff	(unknown)  '.'
d052	ff	(unknown)  '.'
d053	ff	(unknown)  '.'
d054	ff	(unknown)  '.'
d055	ff	(unknown)  '.'
d056	ff	(unknown)  '.'
d057	ff	(unknown)  '.'
d058	ff	(unknown)  '.'
d059	ff	(unknown)  '.'
d05a	ff	(unknown)  '.'
d05b	ff	(unknown)  '.'
d05c	ff	(unknown)  '.'
d05d	ff	(unknown)  '.'
d05e	ff	(unknown)  '.'
d05f	ff	(unknown)  '.'
d060	ff	(unknown)  '.'
d061	ff	(unknown)  '.'
d062	ff	(unknown)  '.'
d063	ff	(unknown)  '.'
d064	ff	(unknown)  '.'
d065	ff	(unknown)  '.'
d066	ff	(unknown)  '.'
d067	ff	(unknown)  '.'
d068	ff	(unknown)  '.'
d069	ff	(unknown)  '.'
d06a	ff	(unknown)  '.'
d06b	ff	(unknown)  '.'
d06c	ff	(unknown)  '.'
d06d	ff	(unknown)  '.'
d06e	ff	(unknown)  '.'
d06f	ff	(unknown)  '.'
d070	ff	(unknown)  '.'
d071	ff	(unknown)  '.'
d072	ff	(unknown)  '.'
d073	ff	(unknown)  '.'
d074	ff	(unknown)  '.'
d075	ff	(unknown)  '.'
d076	ff	(unknown)  '.'
d077	ff	(unknown)  '.'
d078	ff	(unknown)  '.'
d079	ff	(unknown)  '.'
d07a	ff	(unknown)  '.'
d07b	ff	(unknown)  '.'
d07c	ff	(unknown)  '.'
d07d	ff	(unknown)  '.'
d07e	ff	(unknown)  '.'
d07f	ff	(unknown)  '.'
d080	ff	(unknown)  '.'
d081	ff	(unknown)  '.'
d082	ff	(unknown)  '.'
d083	ff	(unknown)  '.'
d084	ff	(unknown)  '.'
d085	ff	(unknown)  '.'
d086	ff	(unknown)  '.'
d087	ff	(unknown)  '.'
d088	ff	(unknown)  '.'
d089	ff	(unknown)  '.'
d08a	ff	(unknown)  '.'
d08b	ff	(unknown)  '.'
d08c	ff	(unknown)  '.'
d08d	ff	(unknown)  '.'
d08e	ff	(unknown)  '.'
d08f	ff	(unknown)  '.'
d090	ff	(unknown)  '.'
d091	ff	(unknown)  '.'
d092	ff	(unknown)  '.'
d093	ff	(unknown)  '.'
d094	ff	(unknown)  '.'
d095	ff	(unknown)  '.'
d096	ff	(unknown)  '.'
d097	ff	(unknown)  '.'
d098	ff	(unknown)  '.'
d099	ff	(unknown)  '.'
d09a	ff	(unknown)  '.'
d09b	ff	(unknown)  '.'
d09c	ff	(unknown)  '.'
d09d	ff	(unknown)  '.'
d09e	ff	(unknown)  '.'
d09f	ff	(unknown)  '.'
d0a0	ff	(unknown)  '.'
d0a1	ff	(unknown)  '.'
d0a2	ff	(unknown)  '.'
d0a3	ff	(unknown)  '.'
d0a4	ff	(unknown)  '.'
d0a5	ff	(unknown)  '.'
d0a6	ff	(unknown)  '.'
d0a7	ff	(unknown)  '.'
d0a8	ff	(unknown)  '.'
d0a9	ff	(unknown)  '.'
d0aa	ff	(unknown)  '.'
d0ab	ff	(unknown)  '.'
d0ac	ff	(unknown)  '.'
d0ad	ff	(unknown)  '.'
d0ae	ff	(unknown)  '.'
d0af	ff	(unknown)  '.'
d0b0	ff	(unknown)  '.'
d0b1	ff	(unknown)  '.'
d0b2	ff	(unknown)  '.'
d0b3	ff	(unknown)  '.'
d0b4	ff	(unknown)  '.'
d0b5	ff	(unknown)  '.'
d0b6	ff	(unknown)  '.'
d0b7	ff	(unknown)  '.'
d0b8	ff	(unknown)  '.'
d0b9	ff	(unknown)  '.'
d0ba	ff	(unknown)  '.'
d0bb	ff	(unknown)  '.'
d0bc	ff	(unknown)  '.'
d0bd	ff	(unknown)  '.'
d0be	ff	(unknown)  '.'
d0bf	ff	(unknown)  '.'
d0c0	ff	(unknown)  '.'
d0c1	ff	(unknown)  '.'
d0c2	ff	(unknown)  '.'
d0c3	ff	(unknown)  '.'
d0c4	ff	(unknown)  '.'
d0c5	ff	(unknown)  '.'
d0c6	ff	(unknown)  '.'
d0c7	ff	(unknown)  '.'
d0c8	ff	(unknown)  '.'
d0c9	ff	(unknown)  '.'
d0ca	ff	(unknown)  '.'
d0cb	ff	(unknown)  '.'
d0cc	ff	(unknown)  '.'
d0cd	ff	(unknown)  '.'
d0ce	ff	(unknown)  '.'
d0cf	ff	(unknown)  '.'
d0d0	ff	(unknown)  '.'
d0d1	ff	(unknown)  '.'
d0d2	ff	(unknown)  '.'
d0d3	ff	(unknown)  '.'
d0d4	ff	(unknown)  '.'
d0d5	ff	(unknown)  '.'
d0d6	ff	(unknown)  '.'
d0d7	ff	(unknown)  '.'
d0d8	ff	(unknown)  '.'
d0d9	ff	(unknown)  '.'
d0da	ff	(unknown)  '.'
d0db	ff	(unknown)  '.'
d0dc	ff	(unknown)  '.'
d0dd	ff	(unknown)  '.'
d0de	ff	(unknown)  '.'
d0df	ff	(unknown)  '.'
d0e0	ff	(unknown)  '.'
d0e1	ff	(unknown)  '.'
d0e2	ff	(unknown)  '.'
d0e3	ff	(unknown)  '.'
d0e4	ff	(unknown)  '.'
d0e5	ff	(unknown)  '.'
d0e6	ff	(unknown)  '.'
d0e7	ff	(unknown)  '.'
d0e8	ff	(unknown)  '.'
d0e9	ff	(unknown)  '.'
d0ea	ff	(unknown)  '.'
d0eb	ff	(unknown)  '.'
d0ec	ff	(unknown)  '.'
d0ed	ff	(unknown)  '.'
d0ee	ff	(unknown)  '.'
d0ef	ff	(unknown)  '.'
d0f0	ff	(unknown)  '.'
d0f1	ff	(unknown)  '.'
d0f2	ff	(unknown)  '.'
d0f3	ff	(unknown)  '.'
d0f4	ff	(unknown)  '.'
d0f5	ff	(unknown)  '.'
d0f6	ff	(unknown)  '.'
d0f7	ff	(unknown)  '.'
d0f8	ff	(unknown)  '.'
d0f9	ff	(unknown)  '.'
d0fa	ff	(unknown)  '.'
d0fb	ff	(unknown)  '.'
d0fc	ff	(unknown)  '.'
d0fd	ff	(unknown)  '.'
d0fe	ff	(unknown)  '.'
d0ff	ff	(unknown)  '.'
d100	ff	(unknown)  '.'
d101	ff	(unknown)  '.'
d102	ff	(unknown)  '.'
d103	ff	(unknown)  '.'
d104	ff	(unknown)  '.'
d105	ff	(unknown)  '.'
d106	ff	(unknown)  '.'
d107	ff	(unknown)  '.'
d108	ff	(unknown)  '.'
d109	ff	(unknown)  '.'
d10a	ff	(unknown)  '.'
d10b	ff	(unknown)  '.'
d10c	ff	(unknown)  '.'
d10d	ff	(unknown)  '.'
d10e	ff	(unknown)  '.'
d10f	ff	(unknown)  '.'
d110	ff	(unknown)  '.'
d111	ff	(unknown)  '.'
d112	ff	(unknown)  '.'
d113	ff	(unknown)  '.'
d114	ff	(unknown)  '.'
d115	ff	(unknown)  '.'
d116	ff	(unknown)  '.'
d117	ff	(unknown)  '.'
d118	ff	(unknown)  '.'
d119	ff	(unknown)  '.'
d11a	ff	(unknown)  '.'
d11b	ff	(unknown)  '.'
d11c	ff	(unknown)  '.'
d11d	ff	(unknown)  '.'
d11e	ff	(unknown)  '.'
d11f	ff	(unknown)  '.'
d120	ff	(unknown)  '.'
d121	ff	(unknown)  '.'
d122	ff	(unknown)  '.'
d123	ff	(unknown)  '.'
d124	ff	(unknown)  '.'
d125	ff	(unknown)  '.'
d126	ff	(unknown)  '.'
d127	ff	(unknown)  '.'
d128	ff	(unknown)  '.'
d129	ff	(unknown)  '.'
d12a	ff	(unknown)  '.'
d12b	ff	(unknown)  '.'
d12c	ff	(unknown)  '.'
d12d	ff	(unknown)  '.'
d12e	ff	(unknown)  '.'
d12f	ff	(unknown)  '.'
d130	ff	(unknown)  '.'
d131	ff	(unknown)  '.'
d132	ff	(unknown)  '.'
d133	ff	(unknown)  '.'
d134	ff	(unknown)  '.'
d135	ff	(unknown)  '.'
d136	ff	(unknown)  '.'
d137	ff	(unknown)  '.'
d138	ff	(unknown)  '.'
d139	ff	(unknown)  '.'
d13a	ff	(unknown)  '.'
d13b	ff	(unknown)  '.'
d13c	ff	(unknown)  '.'
d13d	ff	(unknown)  '.'
d13e	ff	(unknown)  '.'
d13f	ff	(unknown)  '.'
d140	ff	(unknown)  '.'
d141	ff	(unknown)  '.'
d142	ff	(unknown)  '.'
d143	ff	(unknown)  '.'
d144	ff	(unknown)  '.'
d145	ff	(unknown)  '.'
d146	ff	(unknown)  '.'
d147	ff	(unknown)  '.'
d148	ff	(unknown)  '.'
d149	ff	(unknown)  '.'
d14a	ff	(unknown)  '.'
d14b	ff	(unknown)  '.'
d14c	ff	(unknown)  '.'
d14d	ff	(unknown)  '.'
d14e	ff	(unknown)  '.'
d14f	ff	(unknown)  '.'
d150	ff	(unknown)  '.'
d151	ff	(unknown)  '.'
d152	ff	(unknown)  '.'
d153	ff	(unknown)  '.'
d154	ff	(unknown)  '.'
d155	ff	(unknown)  '.'
d156	ff	(unknown)  '.'
d157	ff	(unknown)  '.'
d158	ff	(unknown)  '.'
d159	ff	(unknown)  '.'
d15a	ff	(unknown)  '.'
d15b	ff	(unknown)  '.'
d15c	ff	(unknown)  '.'
d15d	ff	(unknown)  '.'
d15e	ff	(unknown)  '.'
d15f	ff	(unknown)  '.'
d160	ff	(unknown)  '.'
d161	ff	(unknown)  '.'
d162	ff	(unknown)  '.'
d163	ff	(unknown)  '.'
d164	ff	(unknown)  '.'
d165	ff	(unknown)  '.'
d166	ff	(unknown)  '.'
d167	ff	(unknown)  '.'
d168	ff	(unknown)  '.'
d169	ff	(unknown)  '.'
d16a	ff	(unknown)  '.'
d16b	ff	(unknown)  '.'
d16c	ff	(unknown)  '.'
d16d	ff	(unknown)  '.'
d16e	ff	(unknown)  '.'
d16f	ff	(unknown)  '.'
d170	ff	(unknown)  '.'
d171	ff	(unknown)  '.'
d172	ff	(unknown)  '.'
d173	ff	(unknown)  '.'
d174	ff	(unknown)  '.'
d175	ff	(unknown)  '.'
d176	ff	(unknown)  '.'
d177	ff	(unknown)  '.'
d178	ff	(unknown)  '.'
d179	ff	(unknown)  '.'
d17a	ff	(unknown)  '.'
d17b	ff	(unknown)  '.'
d17c	ff	(unknown)  '.'
d17d	ff	(unknown)  '.'
d17e	ff	(unknown)  '.'
d17f	ff	(unknown)  '.'
d180	ff	(unknown)  '.'
d181	ff	(unknown)  '.'
d182	ff	(unknown)  '.'
d183	ff	(unknown)  '.'
d184	ff	(unknown)  '.'
d185	ff	(unknown)  '.'
d186	ff	(unknown)  '.'
d187	ff	(unknown)  '.'
d188	ff	(unknown)  '.'
d189	ff	(unknown)  '.'
d18a	ff	(unknown)  '.'
d18b	ff	(unknown)  '.'
d18c	ff	(unknown)  '.'
d18d	ff	(unknown)  '.'
d18e	ff	(unknown)  '.'
d18f	ff	(unknown)  '.'
d190	ff	(unknown)  '.'
d191	ff	(unknown)  '.'
d192	ff	(unknown)  '.'
d193	ff	(unknown)  '.'
d194	ff	(unknown)  '.'
d195	ff	(unknown)  '.'
d196	ff	(unknown)  '.'
d197	ff	(unknown)  '.'
d198	ff	(unknown)  '.'
d199	ff	(unknown)  '.'
d19a	ff	(unknown)  '.'
d19b	ff	(unknown)  '.'
d19c	ff	(unknown)  '.'
d19d	ff	(unknown)  '.'
d19e	ff	(unknown)  '.'
d19f	ff	(unknown)  '.'
d1a0	ff	(unknown)  '.'
d1a1	ff	(unknown)  '.'
d1a2	ff	(unknown)  '.'
d1a3	ff	(unknown)  '.'
d1a4	ff	(unknown)  '.'
d1a5	ff	(unknown)  '.'
d1a6	ff	(unknown)  '.'
d1a7	ff	(unknown)  '.'
d1a8	ff	(unknown)  '.'
d1a9	ff	(unknown)  '.'
d1aa	ff	(unknown)  '.'
d1ab	ff	(unknown)  '.'
d1ac	ff	(unknown)  '.'
d1ad	ff	(unknown)  '.'
d1ae	ff	(unknown)  '.'
d1af	ff	(unknown)  '.'
d1b0	ff	(unknown)  '.'
d1b1	ff	(unknown)  '.'
d1b2	ff	(unknown)  '.'
d1b3	ff	(unknown)  '.'
d1b4	ff	(unknown)  '.'
d1b5	ff	(unknown)  '.'
d1b6	ff	(unknown)  '.'
d1b7	ff	(unknown)  '.'
d1b8	ff	(unknown)  '.'
d1b9	ff	(unknown)  '.'
d1ba	ff	(unknown)  '.'
d1bb	ff	(unknown)  '.'
d1bc	ff	(unknown)  '.'
d1bd	ff	(unknown)  '.'
d1be	ff	(unknown)  '.'
d1bf	ff	(unknown)  '.'
d1c0	ff	(unknown)  '.'
d1c1	ff	(unknown)  '.'
d1c2	ff	(unknown)  '.'
d1c3	ff	(unknown)  '.'
d1c4	ff	(unknown)  '.'
d1c5	ff	(unknown)  '.'
d1c6	ff	(unknown)  '.'
d1c7	ff	(unknown)  '.'
d1c8	ff	(unknown)  '.'
d1c9	ff	(unknown)  '.'
d1ca	ff	(unknown)  '.'
d1cb	ff	(unknown)  '.'
d1cc	ff	(unknown)  '.'
d1cd	ff	(unknown)  '.'
d1ce	ff	(unknown)  '.'
d1cf	ff	(unknown)  '.'
d1d0	ff	(unknown)  '.'
d1d1	ff	(unknown)  '.'
d1d2	ff	(unknown)  '.'
d1d3	ff	(unknown)  '.'
d1d4	ff	(unknown)  '.'
d1d5	ff	(unknown)  '.'
d1d6	ff	(unknown)  '.'
d1d7	ff	(unknown)  '.'
d1d8	ff	(unknown)  '.'
d1d9	ff	(unknown)  '.'
d1da	ff	(unknown)  '.'
d1db	ff	(unknown)  '.'
d1dc	ff	(unknown)  '.'
d1dd	ff	(unknown)  '.'
d1de	ff	(unknown)  '.'
d1df	ff	(unknown)  '.'
d1e0	ff	(unknown)  '.'
d1e1	ff	(unknown)  '.'
d1e2	ff	(unknown)  '.'
d1e3	ff	(unknown)  '.'
d1e4	ff	(unknown)  '.'
d1e5	ff	(unknown)  '.'
d1e6	ff	(unknown)  '.'
d1e7	ff	(unknown)  '.'
d1e8	ff	(unknown)  '.'
d1e9	ff	(unknown)  '.'
d1ea	ff	(unknown)  '.'
d1eb	ff	(unknown)  '.'
d1ec	ff	(unknown)  '.'
d1ed	ff	(unknown)  '.'
d1ee	ff	(unknown)  '.'
d1ef	ff	(unknown)  '.'
d1f0	ff	(unknown)  '.'
d1f1	ff	(unknown)  '.'
d1f2	ff	(unknown)  '.'
d1f3	ff	(unknown)  '.'
d1f4	ff	(unknown)  '.'
d1f5	ff	(unknown)  '.'
d1f6	ff	(unknown)  '.'
d1f7	ff	(unknown)  '.'
d1f8	ff	(unknown)  '.'
d1f9	ff	(unknown)  '.'
d1fa	ff	(unknown)  '.'
d1fb	ff	(unknown)  '.'
d1fc	ff	(unknown)  '.'
d1fd	ff	(unknown)  '.'
d1fe	ff	(unknown)  '.'
d1ff	ff	(unknown)  '.'
d200	ff	(unknown)  '.'
d201	ff	(unknown)  '.'
d202	ff	(unknown)  '.'
d203	ff	(unknown)  '.'
d204	ff	(unknown)  '.'
d205	ff	(unknown)  '.'
d206	ff	(unknown)  '.'
d207	ff	(unknown)  '.'
d208	ff	(unknown)  '.'
d209	ff	(unknown)  '.'
d20a	ff	(unknown)  '.'
d20b	ff	(unknown)  '.'
d20c	ff	(unknown)  '.'
d20d	ff	(unknown)  '.'
d20e	ff	(unknown)  '.'
d20f	ff	(unknown)  '.'
d210	ff	(unknown)  '.'
d211	ff	(unknown)  '.'
d212	ff	(unknown)  '.'
d213	ff	(unknown)  '.'
d214	ff	(unknown)  '.'
d215	ff	(unknown)  '.'
d216	ff	(unknown)  '.'
d217	ff	(unknown)  '.'
d218	ff	(unknown)  '.'
d219	ff	(unknown)  '.'
d21a	ff	(unknown)  '.'
d21b	ff	(unknown)  '.'
d21c	ff	(unknown)  '.'
d21d	ff	(unknown)  '.'
d21e	ff	(unknown)  '.'
d21f	ff	(unknown)  '.'
d220	ff	(unknown)  '.'
d221	ff	(unknown)  '.'
d222	ff	(unknown)  '.'
d223	ff	(unknown)  '.'
d224	ff	(unknown)  '.'
d225	ff	(unknown)  '.'
d226	ff	(unknown)  '.'
d227	ff	(unknown)  '.'
d228	ff	(unknown)  '.'
d229	ff	(unknown)  '.'
d22a	ff	(unknown)  '.'
d22b	ff	(unknown)  '.'
d22c	ff	(unknown)  '.'
d22d	ff	(unknown)  '.'
d22e	ff	(unknown)  '.'
d22f	ff	(unknown)  '.'
d230	ff	(unknown)  '.'
d231	ff	(unknown)  '.'
d232	ff	(unknown)  '.'
d233	ff	(unknown)  '.'
d234	ff	(unknown)  '.'
d235	ff	(unknown)  '.'
d236	ff	(unknown)  '.'
d237	ff	(unknown)  '.'
d238	ff	(unknown)  '.'
d239	ff	(unknown)  '.'
d23a	ff	(unknown)  '.'
d23b	ff	(unknown)  '.'
d23c	ff	(unknown)  '.'
d23d	ff	(unknown)  '.'
d23e	ff	(unknown)  '.'
d23f	ff	(unknown)  '.'
d240	ff	(unknown)  '.'
d241	ff	(unknown)  '.'
d242	ff	(unknown)  '.'
d243	ff	(unknown)  '.'
d244	ff	(unknown)  '.'
d245	ff	(unknown)  '.'
d246	ff	(unknown)  '.'
d247	ff	(unknown)  '.'
d248	ff	(unknown)  '.'
d249	ff	(unknown)  '.'
d24a	ff	(unknown)  '.'
d24b	ff	(unknown)  '.'
d24c	ff	(unknown)  '.'
d24d	ff	(unknown)  '.'
d24e	ff	(unknown)  '.'
d24f	ff	(unknown)  '.'
d250	ff	(unknown)  '.'
d251	ff	(unknown)  '.'
d252	ff	(unknown)  '.'
d253	ff	(unknown)  '.'
d254	ff	(unknown)  '.'
d255	ff	(unknown)  '.'
d256	ff	(unknown)  '.'
d257	ff	(unknown)  '.'
d258	ff	(unknown)  '.'
d259	ff	(unknown)  '.'
d25a	ff	(unknown)  '.'
d25b	ff	(unknown)  '.'
d25c	ff	(unknown)  '.'
d25d	ff	(unknown)  '.'
d25e	ff	(unknown)  '.'
d25f	ff	(unknown)  '.'
d260	ff	(unknown)  '.'
d261	ff	(unknown)  '.'
d262	ff	(unknown)  '.'
d263	ff	(unknown)  '.'
d264	ff	(unknown)  '.'
d265	ff	(unknown)  '.'
d266	ff	(unknown)  '.'
d267	ff	(unknown)  '.'
d268	ff	(unknown)  '.'
d269	ff	(unknown)  '.'
d26a	ff	(unknown)  '.'
d26b	ff	(unknown)  '.'
d26c	ff	(unknown)  '.'
d26d	ff	(unknown)  '.'
d26e	ff	(unknown)  '.'
d26f	ff	(unknown)  '.'
d270	ff	(unknown)  '.'
d271	ff	(unknown)  '.'
d272	ff	(unknown)  '.'
d273	ff	(unknown)  '.'
d274	ff	(unknown)  '.'
d275	ff	(unknown)  '.'
d276	ff	(unknown)  '.'
d277	ff	(unknown)  '.'
d278	ff	(unknown)  '.'
d279	ff	(unknown)  '.'
d27a	ff	(unknown)  '.'
d27b	ff	(unknown)  '.'
d27c	ff	(unknown)  '.'
d27d	ff	(unknown)  '.'
d27e	ff	(unknown)  '.'
d27f	ff	(unknown)  '.'
d280	ff	(unknown)  '.'
d281	ff	(unknown)  '.'
d282	ff	(unknown)  '.'
d283	ff	(unknown)  '.'
d284	ff	(unknown)  '.'
d285	ff	(unknown)  '.'
d286	ff	(unknown)  '.'
d287	ff	(unknown)  '.'
d288	ff	(unknown)  '.'
d289	ff	(unknown)  '.'
d28a	ff	(unknown)  '.'
d28b	ff	(unknown)  '.'
d28c	ff	(unknown)  '.'
d28d	ff	(unknown)  '.'
d28e	ff	(unknown)  '.'
d28f	ff	(unknown)  '.'
d290	ff	(unknown)  '.'
d291	ff	(unknown)  '.'
d292	ff	(unknown)  '.'
d293	ff	(unknown)  '.'
d294	ff	(unknown)  '.'
d295	ff	(unknown)  '.'
d296	ff	(unknown)  '.'
d297	ff	(unknown)  '.'
d298	ff	(unknown)  '.'
d299	ff	(unknown)  '.'
d29a	ff	(unknown)  '.'
d29b	ff	(unknown)  '.'
d29c	ff	(unknown)  '.'
d29d	ff	(unknown)  '.'
d29e	ff	(unknown)  '.'
d29f	ff	(unknown)  '.'
d2a0	ff	(unknown)  '.'
d2a1	ff	(unknown)  '.'
d2a2	ff	(unknown)  '.'
d2a3	ff	(unknown)  '.'
d2a4	ff	(unknown)  '.'
d2a5	ff	(unknown)  '.'
d2a6	ff	(unknown)  '.'
d2a7	ff	(unknown)  '.'
d2a8	ff	(unknown)  '.'
d2a9	ff	(unknown)  '.'
d2aa	ff	(unknown)  '.'
d2ab	ff	(unknown)  '.'
d2ac	ff	(unknown)  '.'
d2ad	ff	(unknown)  '.'
d2ae	ff	(unknown)  '.'
d2af	ff	(unknown)  '.'
d2b0	ff	(unknown)  '.'
d2b1	ff	(unknown)  '.'
d2b2	ff	(unknown)  '.'
d2b3	ff	(unknown)  '.'
d2b4	ff	(unknown)  '.'
d2b5	ff	(unknown)  '.'
d2b6	ff	(unknown)  '.'
d2b7	ff	(unknown)  '.'
d2b8	ff	(unknown)  '.'
d2b9	ff	(unknown)  '.'
d2ba	ff	(unknown)  '.'
d2bb	ff	(unknown)  '.'
d2bc	ff	(unknown)  '.'
d2bd	ff	(unknown)  '.'
d2be	ff	(unknown)  '.'
d2bf	ff	(unknown)  '.'
d2c0	ff	(unknown)  '.'
d2c1	ff	(unknown)  '.'
d2c2	ff	(unknown)  '.'
d2c3	ff	(unknown)  '.'
d2c4	ff	(unknown)  '.'
d2c5	ff	(unknown)  '.'
d2c6	ff	(unknown)  '.'
d2c7	ff	(unknown)  '.'
d2c8	ff	(unknown)  '.'
d2c9	ff	(unknown)  '.'
d2ca	ff	(unknown)  '.'
d2cb	ff	(unknown)  '.'
d2cc	ff	(unknown)  '.'
d2cd	ff	(unknown)  '.'
d2ce	ff	(unknown)  '.'
d2cf	ff	(unknown)  '.'
d2d0	ff	(unknown)  '.'
d2d1	ff	(unknown)  '.'
d2d2	ff	(unknown)  '.'
d2d3	ff	(unknown)  '.'
d2d4	ff	(unknown)  '.'
d2d5	ff	(unknown)  '.'
d2d6	ff	(unknown)  '.'
d2d7	ff	(unknown)  '.'
d2d8	ff	(unknown)  '.'
d2d9	ff	(unknown)  '.'
d2da	ff	(unknown)  '.'
d2db	ff	(unknown)  '.'
d2dc	ff	(unknown)  '.'
d2dd	ff	(unknown)  '.'
d2de	ff	(unknown)  '.'
d2df	ff	(unknown)  '.'
d2e0	ff	(unknown)  '.'
d2e1	ff	(unknown)  '.'
d2e2	ff	(unknown)  '.'
d2e3	ff	(unknown)  '.'
d2e4	ff	(unknown)  '.'
d2e5	ff	(unknown)  '.'
d2e6	ff	(unknown)  '.'
d2e7	ff	(unknown)  '.'
d2e8	ff	(unknown)  '.'
d2e9	ff	(unknown)  '.'
d2ea	ff	(unknown)  '.'
d2eb	ff	(unknown)  '.'
d2ec	ff	(unknown)  '.'
d2ed	ff	(unknown)  '.'
d2ee	ff	(unknown)  '.'
d2ef	ff	(unknown)  '.'
d2f0	ff	(unknown)  '.'
d2f1	ff	(unknown)  '.'
d2f2	ff	(unknown)  '.'
d2f3	ff	(unknown)  '.'
d2f4	ff	(unknown)  '.'
d2f5	ff	(unknown)  '.'
d2f6	ff	(unknown)  '.'
d2f7	ff	(unknown)  '.'
d2f8	ff	(unknown)  '.'
d2f9	ff	(unknown)  '.'
d2fa	ff	(unknown)  '.'
d2fb	ff	(unknown)  '.'
d2fc	ff	(unknown)  '.'
d2fd	ff	(unknown)  '.'
d2fe	ff	(unknown)  '.'
d2ff	ff	(unknown)  '.'
d300	ff	(unknown)  '.'
d301	ff	(unknown)  '.'
d302	ff	(unknown)  '.'
d303	ff	(unknown)  '.'
d304	ff	(unknown)  '.'
d305	ff	(unknown)  '.'
d306	ff	(unknown)  '.'
d307	ff	(unknown)  '.'
d308	ff	(unknown)  '.'
d309	ff	(unknown)  '.'
d30a	ff	(unknown)  '.'
d30b	ff	(unknown)  '.'
d30c	ff	(unknown)  '.'
d30d	ff	(unknown)  '.'
d30e	ff	(unknown)  '.'
d30f	ff	(unknown)  '.'
d310	ff	(unknown)  '.'
d311	ff	(unknown)  '.'
d312	ff	(unknown)  '.'
d313	ff	(unknown)  '.'
d314	ff	(unknown)  '.'
d315	ff	(unknown)  '.'
d316	ff	(unknown)  '.'
d317	ff	(unknown)  '.'
d318	ff	(unknown)  '.'
d319	ff	(unknown)  '.'
d31a	ff	(unknown)  '.'
d31b	ff	(unknown)  '.'
d31c	ff	(unknown)  '.'
d31d	ff	(unknown)  '.'
d31e	ff	(unknown)  '.'
d31f	ff	(unknown)  '.'
d320	ff	(unknown)  '.'
d321	ff	(unknown)  '.'
d322	ff	(unknown)  '.'
d323	ff	(unknown)  '.'
d324	ff	(unknown)  '.'
d325	ff	(unknown)  '.'
d326	ff	(unknown)  '.'
d327	ff	(unknown)  '.'
d328	ff	(unknown)  '.'
d329	ff	(unknown)  '.'
d32a	ff	(unknown)  '.'
d32b	ff	(unknown)  '.'
d32c	ff	(unknown)  '.'
d32d	ff	(unknown)  '.'
d32e	ff	(unknown)  '.'
d32f	ff	(unknown)  '.'
d330	ff	(unknown)  '.'
d331	ff	(unknown)  '.'
d332	ff	(unknown)  '.'
d333	ff	(unknown)  '.'
d334	ff	(unknown)  '.'
d335	ff	(unknown)  '.'
d336	ff	(unknown)  '.'
d337	ff	(unknown)  '.'
d338	ff	(unknown)  '.'
d339	ff	(unknown)  '.'
d33a	ff	(unknown)  '.'
d33b	ff	(unknown)  '.'
d33c	ff	(unknown)  '.'
d33d	ff	(unknown)  '.'
d33e	ff	(unknown)  '.'
d33f	ff	(unknown)  '.'
d340	ff	(unknown)  '.'
d341	ff	(unknown)  '.'
d342	ff	(unknown)  '.'
d343	ff	(unknown)  '.'
d344	ff	(unknown)  '.'
d345	ff	(unknown)  '.'
d346	ff	(unknown)  '.'
d347	ff	(unknown)  '.'
d348	ff	(unknown)  '.'
d349	ff	(unknown)  '.'
d34a	ff	(unknown)  '.'
d34b	ff	(unknown)  '.'
d34c	ff	(unknown)  '.'
d34d	ff	(unknown)  '.'
d34e	ff	(unknown)  '.'
d34f	ff	(unknown)  '.'
d350	ff	(unknown)  '.'
d351	ff	(unknown)  '.'
d352	ff	(unknown)  '.'
d353	ff	(unknown)  '.'
d354	ff	(unknown)  '.'
d355	ff	(unknown)  '.'
d356	ff	(unknown)  '.'
d357	ff	(unknown)  '.'
d358	ff	(unknown)  '.'
d359	ff	(unknown)  '.'
d35a	ff	(unknown)  '.'
d35b	ff	(unknown)  '.'
d35c	ff	(unknown)  '.'
d35d	ff	(unknown)  '.'
d35e	ff	(unknown)  '.'
d35f	ff	(unknown)  '.'
d360	ff	(unknown)  '.'
d361	ff	(unknown)  '.'
d362	ff	(unknown)  '.'
d363	ff	(unknown)  '.'
d364	ff	(unknown)  '.'
d365	ff	(unknown)  '.'
d366	ff	(unknown)  '.'
d367	ff	(unknown)  '.'
d368	ff	(unknown)  '.'
d369	ff	(unknown)  '.'
d36a	ff	(unknown)  '.'
d36b	ff	(unknown)  '.'
d36c	ff	(unknown)  '.'
d36d	ff	(unknown)  '.'
d36e	ff	(unknown)  '.'
d36f	ff	(unknown)  '.'
d370	ff	(unknown)  '.'
d371	ff	(unknown)  '.'
d372	ff	(unknown)  '.'
d373	ff	(unknown)  '.'
d374	ff	(unknown)  '.'
d375	ff	(unknown)  '.'
d376	ff	(unknown)  '.'
d377	ff	(unknown)  '.'
d378	ff	(unknown)  '.'
d379	ff	(unknown)  '.'
d37a	ff	(unknown)  '.'
d37b	ff	(unknown)  '.'
d37c	ff	(unknown)  '.'
d37d	ff	(unknown)  '.'
d37e	ff	(unknown)  '.'
d37f	ff	(unknown)  '.'
d380	ff	(unknown)  '.'
d381	ff	(unknown)  '.'
d382	ff	(unknown)  '.'
d383	ff	(unknown)  '.'
d384	ff	(unknown)  '.'
d385	ff	(unknown)  '.'
d386	ff	(unknown)  '.'
d387	ff	(unknown)  '.'
d388	ff	(unknown)  '.'
d389	ff	(unknown)  '.'
d38a	ff	(unknown)  '.'
d38b	ff	(unknown)  '.'
d38c	ff	(unknown)  '.'
d38d	ff	(unknown)  '.'
d38e	ff	(unknown)  '.'
d38f	ff	(unknown)  '.'
d390	ff	(unknown)  '.'
d391	ff	(unknown)  '.'
d392	ff	(unknown)  '.'
d393	ff	(unknown)  '.'
d394	ff	(unknown)  '.'
d395	ff	(unknown)  '.'
d396	ff	(unknown)  '.'
d397	ff	(unknown)  '.'
d398	ff	(unknown)  '.'
d399	ff	(unknown)  '.'
d39a	ff	(unknown)  '.'
d39b	ff	(unknown)  '.'
d39c	ff	(unknown)  '.'
d39d	ff	(unknown)  '.'
d39e	ff	(unknown)  '.'
d39f	ff	(unknown)  '.'
d3a0	ff	(unknown)  '.'
d3a1	ff	(unknown)  '.'
d3a2	ff	(unknown)  '.'
d3a3	ff	(unknown)  '.'
d3a4	ff	(unknown)  '.'
d3a5	ff	(unknown)  '.'
d3a6	ff	(unknown)  '.'
d3a7	ff	(unknown)  '.'
d3a8	ff	(unknown)  '.'
d3a9	ff	(unknown)  '.'
d3aa	ff	(unknown)  '.'
d3ab	ff	(unknown)  '.'
d3ac	ff	(unknown)  '.'
d3ad	ff	(unknown)  '.'
d3ae	ff	(unknown)  '.'
d3af	ff	(unknown)  '.'
d3b0	ff	(unknown)  '.'
d3b1	ff	(unknown)  '.'
d3b2	ff	(unknown)  '.'
d3b3	ff	(unknown)  '.'
d3b4	ff	(unknown)  '.'
d3b5	ff	(unknown)  '.'
d3b6	ff	(unknown)  '.'
d3b7	ff	(unknown)  '.'
d3b8	ff	(unknown)  '.'
d3b9	ff	(unknown)  '.'
d3ba	ff	(unknown)  '.'
d3bb	ff	(unknown)  '.'
d3bc	ff	(unknown)  '.'
d3bd	ff	(unknown)  '.'
d3be	ff	(unknown)  '.'
d3bf	ff	(unknown)  '.'
d3c0	ff	(unknown)  '.'
d3c1	ff	(unknown)  '.'
d3c2	ff	(unknown)  '.'
d3c3	ff	(unknown)  '.'
d3c4	ff	(unknown)  '.'
d3c5	ff	(unknown)  '.'
d3c6	ff	(unknown)  '.'
d3c7	ff	(unknown)  '.'
d3c8	ff	(unknown)  '.'
d3c9	ff	(unknown)  '.'
d3ca	ff	(unknown)  '.'
d3cb	ff	(unknown)  '.'
d3cc	ff	(unknown)  '.'
d3cd	ff	(unknown)  '.'
d3ce	ff	(unknown)  '.'
d3cf	ff	(unknown)  '.'
d3d0	ff	(unknown)  '.'
d3d1	ff	(unknown)  '.'
d3d2	ff	(unknown)  '.'
d3d3	ff	(unknown)  '.'
d3d4	ff	(unknown)  '.'
d3d5	ff	(unknown)  '.'
d3d6	ff	(unknown)  '.'
d3d7	ff	(unknown)  '.'
d3d8	ff	(unknown)  '.'
d3d9	ff	(unknown)  '.'
d3da	ff	(unknown)  '.'
d3db	ff	(unknown)  '.'
d3dc	ff	(unknown)  '.'
d3dd	ff	(unknown)  '.'
d3de	ff	(unknown)  '.'
d3df	ff	(unknown)  '.'
d3e0	ff	(unknown)  '.'
d3e1	ff	(unknown)  '.'
d3e2	ff	(unknown)  '.'
d3e3	ff	(unknown)  '.'
d3e4	ff	(unknown)  '.'
d3e5	ff	(unknown)  '.'
d3e6	ff	(unknown)  '.'
d3e7	ff	(unknown)  '.'
d3e8	ff	(unknown)  '.'
d3e9	ff	(unknown)  '.'
d3ea	ff	(unknown)  '.'
d3eb	ff	(unknown)  '.'
d3ec	ff	(unknown)  '.'
d3ed	ff	(unknown)  '.'
d3ee	ff	(unknown)  '.'
d3ef	ff	(unknown)  '.'
d3f0	ff	(unknown)  '.'
d3f1	ff	(unknown)  '.'
d3f2	ff	(unknown)  '.'
d3f3	ff	(unknown)  '.'
d3f4	ff	(unknown)  '.'
d3f5	ff	(unknown)  '.'
d3f6	ff	(unknown)  '.'
d3f7	ff	(unknown)  '.'
d3f8	ff	(unknown)  '.'
d3f9	ff	(unknown)  '.'
d3fa	ff	(unknown)  '.'
d3fb	ff	(unknown)  '.'
d3fc	ff	(unknown)  '.'
d3fd	ff	(unknown)  '.'
d3fe	ff	(unknown)  '.'
d3ff	ff	(unknown)  '.'
d400	ff	(unknown)  '.'
d401	ff	(unknown)  '.'
d402	ff	(unknown)  '.'
d403	ff	(unknown)  '.'
d404	ff	(unknown)  '.'
d405	ff	(unknown)  '.'
d406	ff	(unknown)  '.'
d407	ff	(unknown)  '.'
d408	ff	(unknown)  '.'
d409	ff	(unknown)  '.'
d40a	ff	(unknown)  '.'
d40b	ff	(unknown)  '.'
d40c	ff	(unknown)  '.'
d40d	ff	(unknown)  '.'
d40e	ff	(unknown)  '.'
d40f	ff	(unknown)  '.'
d410	ff	(unknown)  '.'
d411	ff	(unknown)  '.'
d412	ff	(unknown)  '.'
d413	ff	(unknown)  '.'
d414	ff	(unknown)  '.'
d415	ff	(unknown)  '.'
d416	ff	(unknown)  '.'
d417	ff	(unknown)  '.'
d418	ff	(unknown)  '.'
d419	ff	(unknown)  '.'
d41a	ff	(unknown)  '.'
d41b	ff	(unknown)  '.'
d41c	ff	(unknown)  '.'
d41d	ff	(unknown)  '.'
d41e	ff	(unknown)  '.'
d41f	ff	(unknown)  '.'
d420	ff	(unknown)  '.'
d421	ff	(unknown)  '.'
d422	ff	(unknown)  '.'
d423	ff	(unknown)  '.'
d424	ff	(unknown)  '.'
d425	ff	(unknown)  '.'
d426	ff	(unknown)  '.'
d427	ff	(unknown)  '.'
d428	ff	(unknown)  '.'
d429	ff	(unknown)  '.'
d42a	ff	(unknown)  '.'
d42b	ff	(unknown)  '.'
d42c	ff	(unknown)  '.'
d42d	ff	(unknown)  '.'
d42e	ff	(unknown)  '.'
d42f	ff	(unknown)  '.'
d430	ff	(unknown)  '.'
d431	ff	(unknown)  '.'
d432	ff	(unknown)  '.'
d433	ff	(unknown)  '.'
d434	ff	(unknown)  '.'
d435	ff	(unknown)  '.'
d436	ff	(unknown)  '.'
d437	ff	(unknown)  '.'
d438	ff	(unknown)  '.'
d439	ff	(unknown)  '.'
d43a	ff	(unknown)  '.'
d43b	ff	(unknown)  '.'
d43c	ff	(unknown)  '.'
d43d	ff	(unknown)  '.'
d43e	ff	(unknown)  '.'
d43f	ff	(unknown)  '.'
d440	ff	(unknown)  '.'
d441	ff	(unknown)  '.'
d442	ff	(unknown)  '.'
d443	ff	(unknown)  '.'
d444	ff	(unknown)  '.'
d445	ff	(unknown)  '.'
d446	ff	(unknown)  '.'
d447	ff	(unknown)  '.'
d448	ff	(unknown)  '.'
d449	ff	(unknown)  '.'
d44a	ff	(unknown)  '.'
d44b	ff	(unknown)  '.'
d44c	ff	(unknown)  '.'
d44d	ff	(unknown)  '.'
d44e	ff	(unknown)  '.'
d44f	ff	(unknown)  '.'
d450	ff	(unknown)  '.'
d451	ff	(unknown)  '.'
d452	ff	(unknown)  '.'
d453	ff	(unknown)  '.'
d454	ff	(unknown)  '.'
d455	ff	(unknown)  '.'
d456	ff	(unknown)  '.'
d457	ff	(unknown)  '.'
d458	ff	(unknown)  '.'
d459	ff	(unknown)  '.'
d45a	ff	(unknown)  '.'
d45b	ff	(unknown)  '.'
d45c	ff	(unknown)  '.'
d45d	ff	(unknown)  '.'
d45e	ff	(unknown)  '.'
d45f	ff	(unknown)  '.'
d460	ff	(unknown)  '.'
d461	ff	(unknown)  '.'
d462	ff	(unknown)  '.'
d463	ff	(unknown)  '.'
d464	ff	(unknown)  '.'
d465	ff	(unknown)  '.'
d466	ff	(unknown)  '.'
d467	ff	(unknown)  '.'
d468	ff	(unknown)  '.'
d469	ff	(unknown)  '.'
d46a	ff	(unknown)  '.'
d46b	ff	(unknown)  '.'
d46c	ff	(unknown)  '.'
d46d	ff	(unknown)  '.'
d46e	ff	(unknown)  '.'
d46f	ff	(unknown)  '.'
d470	ff	(unknown)  '.'
d471	ff	(unknown)  '.'
d472	ff	(unknown)  '.'
d473	ff	(unknown)  '.'
d474	ff	(unknown)  '.'
d475	ff	(unknown)  '.'
d476	ff	(unknown)  '.'
d477	ff	(unknown)  '.'
d478	ff	(unknown)  '.'
d479	ff	(unknown)  '.'
d47a	ff	(unknown)  '.'
d47b	ff	(unknown)  '.'
d47c	ff	(unknown)  '.'
d47d	ff	(unknown)  '.'
d47e	ff	(unknown)  '.'
d47f	ff	(unknown)  '.'
d480	ff	(unknown)  '.'
d481	ff	(unknown)  '.'
d482	ff	(unknown)  '.'
d483	ff	(unknown)  '.'
d484	ff	(unknown)  '.'
d485	ff	(unknown)  '.'
d486	ff	(unknown)  '.'
d487	ff	(unknown)  '.'
d488	ff	(unknown)  '.'
d489	ff	(unknown)  '.'
d48a	ff	(unknown)  '.'
d48b	ff	(unknown)  '.'
d48c	ff	(unknown)  '.'
d48d	ff	(unknown)  '.'
d48e	ff	(unknown)  '.'
d48f	ff	(unknown)  '.'
d490	ff	(unknown)  '.'
d491	ff	(unknown)  '.'
d492	ff	(unknown)  '.'
d493	ff	(unknown)  '.'
d494	ff	(unknown)  '.'
d495	ff	(unknown)  '.'
d496	ff	(unknown)  '.'
d497	ff	(unknown)  '.'
d498	ff	(unknown)  '.'
d499	ff	(unknown)  '.'
d49a	ff	(unknown)  '.'
d49b	ff	(unknown)  '.'
d49c	ff	(unknown)  '.'
d49d	ff	(unknown)  '.'
d49e	ff	(unknown)  '.'
d49f	ff	(unknown)  '.'
d4a0	ff	(unknown)  '.'
d4a1	ff	(unknown)  '.'
d4a2	ff	(unknown)  '.'
d4a3	ff	(unknown)  '.'
d4a4	ff	(unknown)  '.'
d4a5	ff	(unknown)  '.'
d4a6	ff	(unknown)  '.'
d4a7	ff	(unknown)  '.'
d4a8	ff	(unknown)  '.'
d4a9	ff	(unknown)  '.'
d4aa	ff	(unknown)  '.'
d4ab	ff	(unknown)  '.'
d4ac	ff	(unknown)  '.'
d4ad	ff	(unknown)  '.'
d4ae	ff	(unknown)  '.'
d4af	ff	(unknown)  '.'
d4b0	ff	(unknown)  '.'
d4b1	ff	(unknown)  '.'
d4b2	ff	(unknown)  '.'
d4b3	ff	(unknown)  '.'
d4b4	ff	(unknown)  '.'
d4b5	ff	(unknown)  '.'
d4b6	ff	(unknown)  '.'
d4b7	ff	(unknown)  '.'
d4b8	ff	(unknown)  '.'
d4b9	ff	(unknown)  '.'
d4ba	ff	(unknown)  '.'
d4bb	ff	(unknown)  '.'
d4bc	ff	(unknown)  '.'
d4bd	ff	(unknown)  '.'
d4be	ff	(unknown)  '.'
d4bf	ff	(unknown)  '.'
d4c0	ff	(unknown)  '.'
d4c1	ff	(unknown)  '.'
d4c2	ff	(unknown)  '.'
d4c3	ff	(unknown)  '.'
d4c4	ff	(unknown)  '.'
d4c5	ff	(unknown)  '.'
d4c6	ff	(unknown)  '.'
d4c7	ff	(unknown)  '.'
d4c8	ff	(unknown)  '.'
d4c9	ff	(unknown)  '.'
d4ca	ff	(unknown)  '.'
d4cb	ff	(unknown)  '.'
d4cc	ff	(unknown)  '.'
d4cd	ff	(unknown)  '.'
d4ce	ff	(unknown)  '.'
d4cf	ff	(unknown)  '.'
d4d0	ff	(unknown)  '.'
d4d1	ff	(unknown)  '.'
d4d2	ff	(unknown)  '.'
d4d3	ff	(unknown)  '.'
d4d4	ff	(unknown)  '.'
d4d5	ff	(unknown)  '.'
d4d6	ff	(unknown)  '.'
d4d7	ff	(unknown)  '.'
d4d8	ff	(unknown)  '.'
d4d9	ff	(unknown)  '.'
d4da	ff	(unknown)  '.'
d4db	ff	(unknown)  '.'
d4dc	ff	(unknown)  '.'
d4dd	ff	(unknown)  '.'
d4de	ff	(unknown)  '.'
d4df	ff	(unknown)  '.'
d4e0	ff	(unknown)  '.'
d4e1	ff	(unknown)  '.'
d4e2	ff	(unknown)  '.'
d4e3	ff	(unknown)  '.'
d4e4	ff	(unknown)  '.'
d4e5	ff	(unknown)  '.'
d4e6	ff	(unknown)  '.'
d4e7	ff	(unknown)  '.'
d4e8	ff	(unknown)  '.'
d4e9	ff	(unknown)  '.'
d4ea	ff	(unknown)  '.'
d4eb	ff	(unknown)  '.'
d4ec	ff	(unknown)  '.'
d4ed	ff	(unknown)  '.'
d4ee	ff	(unknown)  '.'
d4ef	ff	(unknown)  '.'
d4f0	ff	(unknown)  '.'
d4f1	ff	(unknown)  '.'
d4f2	ff	(unknown)  '.'
d4f3	ff	(unknown)  '.'
d4f4	ff	(unknown)  '.'
d4f5	ff	(unknown)  '.'
d4f6	ff	(unknown)  '.'
d4f7	ff	(unknown)  '.'
d4f8	ff	(unknown)  '.'
d4f9	ff	(unknown)  '.'
d4fa	ff	(unknown)  '.'
d4fb	ff	(unknown)  '.'
d4fc	ff	(unknown)  '.'
d4fd	ff	(unknown)  '.'
d4fe	ff	(unknown)  '.'
d4ff	ff	(unknown)  '.'
d500	ff	(unknown)  '.'
d501	ff	(unknown)  '.'
d502	ff	(unknown)  '.'
d503	ff	(unknown)  '.'
d504	ff	(unknown)  '.'
d505	ff	(unknown)  '.'
d506	ff	(unknown)  '.'
d507	ff	(unknown)  '.'
d508	ff	(unknown)  '.'
d509	ff	(unknown)  '.'
d50a	ff	(unknown)  '.'
d50b	ff	(unknown)  '.'
d50c	ff	(unknown)  '.'
d50d	ff	(unknown)  '.'
d50e	ff	(unknown)  '.'
d50f	ff	(unknown)  '.'
d510	ff	(unknown)  '.'
d511	ff	(unknown)  '.'
d512	ff	(unknown)  '.'
d513	ff	(unknown)  '.'
d514	ff	(unknown)  '.'
d515	ff	(unknown)  '.'
d516	ff	(unknown)  '.'
d517	ff	(unknown)  '.'
d518	ff	(unknown)  '.'
d519	ff	(unknown)  '.'
d51a	ff	(unknown)  '.'
d51b	ff	(unknown)  '.'
d51c	ff	(unknown)  '.'
d51d	ff	(unknown)  '.'
d51e	ff	(unknown)  '.'
d51f	ff	(unknown)  '.'
d520	ff	(unknown)  '.'
d521	ff	(unknown)  '.'
d522	ff	(unknown)  '.'
d523	ff	(unknown)  '.'
d524	ff	(unknown)  '.'
d525	ff	(unknown)  '.'
d526	ff	(unknown)  '.'
d527	ff	(unknown)  '.'
d528	ff	(unknown)  '.'
d529	ff	(unknown)  '.'
d52a	ff	(unknown)  '.'
d52b	ff	(unknown)  '.'
d52c	ff	(unknown)  '.'
d52d	ff	(unknown)  '.'
d52e	ff	(unknown)  '.'
d52f	ff	(unknown)  '.'
d530	ff	(unknown)  '.'
d531	ff	(unknown)  '.'
d532	ff	(unknown)  '.'
d533	ff	(unknown)  '.'
d534	ff	(unknown)  '.'
d535	ff	(unknown)  '.'
d536	ff	(unknown)  '.'
d537	ff	(unknown)  '.'
d538	ff	(unknown)  '.'
d539	ff	(unknown)  '.'
d53a	ff	(unknown)  '.'
d53b	ff	(unknown)  '.'
d53c	ff	(unknown)  '.'
d53d	ff	(unknown)  '.'
d53e	ff	(unknown)  '.'
d53f	ff	(unknown)  '.'
d540	ff	(unknown)  '.'
d541	ff	(unknown)  '.'
d542	ff	(unknown)  '.'
d543	ff	(unknown)  '.'
d544	ff	(unknown)  '.'
d545	ff	(unknown)  '.'
d546	ff	(unknown)  '.'
d547	ff	(unknown)  '.'
d548	ff	(unknown)  '.'
d549	ff	(unknown)  '.'
d54a	ff	(unknown)  '.'
d54b	ff	(unknown)  '.'
d54c	ff	(unknown)  '.'
d54d	ff	(unknown)  '.'
d54e	ff	(unknown)  '.'
d54f	ff	(unknown)  '.'
d550	ff	(unknown)  '.'
d551	ff	(unknown)  '.'
d552	ff	(unknown)  '.'
d553	ff	(unknown)  '.'
d554	ff	(unknown)  '.'
d555	ff	(unknown)  '.'
d556	ff	(unknown)  '.'
d557	ff	(unknown)  '.'
d558	ff	(unknown)  '.'
d559	ff	(unknown)  '.'
d55a	ff	(unknown)  '.'
d55b	ff	(unknown)  '.'
d55c	ff	(unknown)  '.'
d55d	ff	(unknown)  '.'
d55e	ff	(unknown)  '.'
d55f	ff	(unknown)  '.'
d560	ff	(unknown)  '.'
d561	ff	(unknown)  '.'
d562	ff	(unknown)  '.'
d563	ff	(unknown)  '.'
d564	ff	(unknown)  '.'
d565	ff	(unknown)  '.'
d566	ff	(unknown)  '.'
d567	ff	(unknown)  '.'
d568	ff	(unknown)  '.'
d569	ff	(unknown)  '.'
d56a	ff	(unknown)  '.'
d56b	ff	(unknown)  '.'
d56c	ff	(unknown)  '.'
d56d	ff	(unknown)  '.'
d56e	ff	(unknown)  '.'
d56f	ff	(unknown)  '.'
d570	ff	(unknown)  '.'
d571	ff	(unknown)  '.'
d572	ff	(unknown)  '.'
d573	ff	(unknown)  '.'
d574	ff	(unknown)  '.'
d575	ff	(unknown)  '.'
d576	ff	(unknown)  '.'
d577	ff	(unknown)  '.'
d578	ff	(unknown)  '.'
d579	ff	(unknown)  '.'
d57a	ff	(unknown)  '.'
d57b	ff	(unknown)  '.'
d57c	ff	(unknown)  '.'
d57d	ff	(unknown)  '.'
d57e	ff	(unknown)  '.'
d57f	ff	(unknown)  '.'
d580	ff	(unknown)  '.'
d581	ff	(unknown)  '.'
d582	ff	(unknown)  '.'
d583	ff	(unknown)  '.'
d584	ff	(unknown)  '.'
d585	ff	(unknown)  '.'
d586	ff	(unknown)  '.'
d587	ff	(unknown)  '.'
d588	ff	(unknown)  '.'
d589	ff	(unknown)  '.'
d58a	ff	(unknown)  '.'
d58b	ff	(unknown)  '.'
d58c	ff	(unknown)  '.'
d58d	ff	(unknown)  '.'
d58e	ff	(unknown)  '.'
d58f	ff	(unknown)  '.'
d590	ff	(unknown)  '.'
d591	ff	(unknown)  '.'
d592	ff	(unknown)  '.'
d593	ff	(unknown)  '.'
d594	ff	(unknown)  '.'
d595	ff	(unknown)  '.'
d596	ff	(unknown)  '.'
d597	ff	(unknown)  '.'
d598	ff	(unknown)  '.'
d599	ff	(unknown)  '.'
d59a	ff	(unknown)  '.'
d59b	ff	(unknown)  '.'
d59c	ff	(unknown)  '.'
d59d	ff	(unknown)  '.'
d59e	ff	(unknown)  '.'
d59f	ff	(unknown)  '.'
d5a0	ff	(unknown)  '.'
d5a1	ff	(unknown)  '.'
d5a2	ff	(unknown)  '.'
d5a3	ff	(unknown)  '.'
d5a4	ff	(unknown)  '.'
d5a5	ff	(unknown)  '.'
d5a6	ff	(unknown)  '.'
d5a7	ff	(unknown)  '.'
d5a8	ff	(unknown)  '.'
d5a9	ff	(unknown)  '.'
d5aa	ff	(unknown)  '.'
d5ab	ff	(unknown)  '.'
d5ac	ff	(unknown)  '.'
d5ad	ff	(unknown)  '.'
d5ae	ff	(unknown)  '.'
d5af	ff	(unknown)  '.'
d5b0	ff	(unknown)  '.'
d5b1	ff	(unknown)  '.'
d5b2	ff	(unknown)  '.'
d5b3	ff	(unknown)  '.'
d5b4	ff	(unknown)  '.'
d5b5	ff	(unknown)  '.'
d5b6	ff	(unknown)  '.'
d5b7	ff	(unknown)  '.'
d5b8	ff	(unknown)  '.'
d5b9	ff	(unknown)  '.'
d5ba	ff	(unknown)  '.'
d5bb	ff	(unknown)  '.'
d5bc	ff	(unknown)  '.'
d5bd	ff	(unknown)  '.'
d5be	ff	(unknown)  '.'
d5bf	ff	(unknown)  '.'
d5c0	ff	(unknown)  '.'
d5c1	ff	(unknown)  '.'
d5c2	ff	(unknown)  '.'
d5c3	ff	(unknown)  '.'
d5c4	ff	(unknown)  '.'
d5c5	ff	(unknown)  '.'
d5c6	ff	(unknown)  '.'
d5c7	ff	(unknown)  '.'
d5c8	ff	(unknown)  '.'
d5c9	ff	(unknown)  '.'
d5ca	ff	(unknown)  '.'
d5cb	ff	(unknown)  '.'
d5cc	ff	(unknown)  '.'
d5cd	ff	(unknown)  '.'
d5ce	ff	(unknown)  '.'
d5cf	ff	(unknown)  '.'
d5d0	ff	(unknown)  '.'
d5d1	ff	(unknown)  '.'
d5d2	ff	(unknown)  '.'
d5d3	ff	(unknown)  '.'
d5d4	ff	(unknown)  '.'
d5d5	ff	(unknown)  '.'
d5d6	ff	(unknown)  '.'
d5d7	ff	(unknown)  '.'
d5d8	ff	(unknown)  '.'
d5d9	ff	(unknown)  '.'
d5da	ff	(unknown)  '.'
d5db	ff	(unknown)  '.'
d5dc	ff	(unknown)  '.'
d5dd	ff	(unknown)  '.'
d5de	ff	(unknown)  '.'
d5df	ff	(unknown)  '.'
d5e0	ff	(unknown)  '.'
d5e1	ff	(unknown)  '.'
d5e2	ff	(unknown)  '.'
d5e3	ff	(unknown)  '.'
d5e4	ff	(unknown)  '.'
d5e5	ff	(unknown)  '.'
d5e6	ff	(unknown)  '.'
d5e7	ff	(unknown)  '.'
d5e8	ff	(unknown)  '.'
d5e9	ff	(unknown)  '.'
d5ea	ff	(unknown)  '.'
d5eb	ff	(unknown)  '.'
d5ec	ff	(unknown)  '.'
d5ed	ff	(unknown)  '.'
d5ee	ff	(unknown)  '.'
d5ef	ff	(unknown)  '.'
d5f0	ff	(unknown)  '.'
d5f1	ff	(unknown)  '.'
d5f2	ff	(unknown)  '.'
d5f3	ff	(unknown)  '.'
d5f4	ff	(unknown)  '.'
d5f5	ff	(unknown)  '.'
d5f6	ff	(unknown)  '.'
d5f7	ff	(unknown)  '.'
d5f8	ff	(unknown)  '.'
d5f9	ff	(unknown)  '.'
d5fa	ff	(unknown)  '.'
d5fb	ff	(unknown)  '.'
d5fc	ff	(unknown)  '.'
d5fd	ff	(unknown)  '.'
d5fe	ff	(unknown)  '.'
d5ff	ff	(unknown)  '.'
d600	ff	(unknown)  '.'
d601	ff	(unknown)  '.'
d602	ff	(unknown)  '.'
d603	ff	(unknown)  '.'
d604	ff	(unknown)  '.'
d605	ff	(unknown)  '.'
d606	ff	(unknown)  '.'
d607	ff	(unknown)  '.'
d608	ff	(unknown)  '.'
d609	ff	(unknown)  '.'
d60a	ff	(unknown)  '.'
d60b	ff	(unknown)  '.'
d60c	ff	(unknown)  '.'
d60d	ff	(unknown)  '.'
d60e	ff	(unknown)  '.'
d60f	ff	(unknown)  '.'
d610	ff	(unknown)  '.'
d611	ff	(unknown)  '.'
d612	ff	(unknown)  '.'
d613	ff	(unknown)  '.'
d614	ff	(unknown)  '.'
d615	ff	(unknown)  '.'
d616	ff	(unknown)  '.'
d617	ff	(unknown)  '.'
d618	ff	(unknown)  '.'
d619	ff	(unknown)  '.'
d61a	ff	(unknown)  '.'
d61b	ff	(unknown)  '.'
d61c	ff	(unknown)  '.'
d61d	ff	(unknown)  '.'
d61e	ff	(unknown)  '.'
d61f	ff	(unknown)  '.'
d620	ff	(unknown)  '.'
d621	ff	(unknown)  '.'
d622	ff	(unknown)  '.'
d623	ff	(unknown)  '.'
d624	ff	(unknown)  '.'
d625	ff	(unknown)  '.'
d626	ff	(unknown)  '.'
d627	ff	(unknown)  '.'
d628	ff	(unknown)  '.'
d629	ff	(unknown)  '.'
d62a	ff	(unknown)  '.'
d62b	ff	(unknown)  '.'
d62c	ff	(unknown)  '.'
d62d	ff	(unknown)  '.'
d62e	ff	(unknown)  '.'
d62f	ff	(unknown)  '.'
d630	ff	(unknown)  '.'
d631	ff	(unknown)  '.'
d632	ff	(unknown)  '.'
d633	ff	(unknown)  '.'
d634	ff	(unknown)  '.'
d635	ff	(unknown)  '.'
d636	ff	(unknown)  '.'
d637	ff	(unknown)  '.'
d638	ff	(unknown)  '.'
d639	ff	(unknown)  '.'
d63a	ff	(unknown)  '.'
d63b	ff	(unknown)  '.'
d63c	ff	(unknown)  '.'
d63d	ff	(unknown)  '.'
d63e	ff	(unknown)  '.'
d63f	ff	(unknown)  '.'
d640	ff	(unknown)  '.'
d641	ff	(unknown)  '.'
d642	ff	(unknown)  '.'
d643	ff	(unknown)  '.'
d644	ff	(unknown)  '.'
d645	ff	(unknown)  '.'
d646	ff	(unknown)  '.'
d647	ff	(unknown)  '.'
d648	ff	(unknown)  '.'
d649	ff	(unknown)  '.'
d64a	ff	(unknown)  '.'
d64b	ff	(unknown)  '.'
d64c	ff	(unknown)  '.'
d64d	ff	(unknown)  '.'
d64e	ff	(unknown)  '.'
d64f	ff	(unknown)  '.'
d650	ff	(unknown)  '.'
d651	ff	(unknown)  '.'
d652	ff	(unknown)  '.'
d653	ff	(unknown)  '.'
d654	ff	(unknown)  '.'
d655	ff	(unknown)  '.'
d656	ff	(unknown)  '.'
d657	ff	(unknown)  '.'
d658	ff	(unknown)  '.'
d659	ff	(unknown)  '.'
d65a	ff	(unknown)  '.'
d65b	ff	(unknown)  '.'
d65c	ff	(unknown)  '.'
d65d	ff	(unknown)  '.'
d65e	ff	(unknown)  '.'
d65f	ff	(unknown)  '.'
d660	ff	(unknown)  '.'
d661	ff	(unknown)  '.'
d662	ff	(unknown)  '.'
d663	ff	(unknown)  '.'
d664	ff	(unknown)  '.'
d665	ff	(unknown)  '.'
d666	ff	(unknown)  '.'
d667	ff	(unknown)  '.'
d668	ff	(unknown)  '.'
d669	ff	(unknown)  '.'
d66a	ff	(unknown)  '.'
d66b	ff	(unknown)  '.'
d66c	ff	(unknown)  '.'
d66d	ff	(unknown)  '.'
d66e	ff	(unknown)  '.'
d66f	ff	(unknown)  '.'
d670	ff	(unknown)  '.'
d671	ff	(unknown)  '.'
d672	ff	(unknown)  '.'
d673	ff	(unknown)  '.'
d674	ff	(unknown)  '.'
d675	ff	(unknown)  '.'
d676	ff	(unknown)  '.'
d677	ff	(unknown)  '.'
d678	ff	(unknown)  '.'
d679	ff	(unknown)  '.'
d67a	ff	(unknown)  '.'
d67b	ff	(unknown)  '.'
d67c	ff	(unknown)  '.'
d67d	ff	(unknown)  '.'
d67e	ff	(unknown)  '.'
d67f	ff	(unknown)  '.'
d680	ff	(unknown)  '.'
d681	ff	(unknown)  '.'
d682	ff	(unknown)  '.'
d683	ff	(unknown)  '.'
d684	ff	(unknown)  '.'
d685	ff	(unknown)  '.'
d686	ff	(unknown)  '.'
d687	ff	(unknown)  '.'
d688	ff	(unknown)  '.'
d689	ff	(unknown)  '.'
d68a	ff	(unknown)  '.'
d68b	ff	(unknown)  '.'
d68c	ff	(unknown)  '.'
d68d	ff	(unknown)  '.'
d68e	ff	(unknown)  '.'
d68f	ff	(unknown)  '.'
d690	ff	(unknown)  '.'
d691	ff	(unknown)  '.'
d692	ff	(unknown)  '.'
d693	ff	(unknown)  '.'
d694	ff	(unknown)  '.'
d695	ff	(unknown)  '.'
d696	ff	(unknown)  '.'
d697	ff	(unknown)  '.'
d698	ff	(unknown)  '.'
d699	ff	(unknown)  '.'
d69a	ff	(unknown)  '.'
d69b	ff	(unknown)  '.'
d69c	ff	(unknown)  '.'
d69d	ff	(unknown)  '.'
d69e	ff	(unknown)  '.'
d69f	ff	(unknown)  '.'
d6a0	ff	(unknown)  '.'
d6a1	ff	(unknown)  '.'
d6a2	ff	(unknown)  '.'
d6a3	ff	(unknown)  '.'
d6a4	ff	(unknown)  '.'
d6a5	ff	(unknown)  '.'
d6a6	ff	(unknown)  '.'
d6a7	ff	(unknown)  '.'
d6a8	ff	(unknown)  '.'
d6a9	ff	(unknown)  '.'
d6aa	ff	(unknown)  '.'
d6ab	ff	(unknown)  '.'
d6ac	ff	(unknown)  '.'
d6ad	ff	(unknown)  '.'
d6ae	ff	(unknown)  '.'
d6af	ff	(unknown)  '.'
d6b0	ff	(unknown)  '.'
d6b1	ff	(unknown)  '.'
d6b2	ff	(unknown)  '.'
d6b3	ff	(unknown)  '.'
d6b4	ff	(unknown)  '.'
d6b5	ff	(unknown)  '.'
d6b6	ff	(unknown)  '.'
d6b7	ff	(unknown)  '.'
d6b8	ff	(unknown)  '.'
d6b9	ff	(unknown)  '.'
d6ba	ff	(unknown)  '.'
d6bb	ff	(unknown)  '.'
d6bc	ff	(unknown)  '.'
d6bd	ff	(unknown)  '.'
d6be	ff	(unknown)  '.'
d6bf	ff	(unknown)  '.'
d6c0	ff	(unknown)  '.'
d6c1	ff	(unknown)  '.'
d6c2	ff	(unknown)  '.'
d6c3	ff	(unknown)  '.'
d6c4	ff	(unknown)  '.'
d6c5	ff	(unknown)  '.'
d6c6	ff	(unknown)  '.'
d6c7	ff	(unknown)  '.'
d6c8	ff	(unknown)  '.'
d6c9	ff	(unknown)  '.'
d6ca	ff	(unknown)  '.'
d6cb	ff	(unknown)  '.'
d6cc	ff	(unknown)  '.'
d6cd	ff	(unknown)  '.'
d6ce	ff	(unknown)  '.'
d6cf	ff	(unknown)  '.'
d6d0	ff	(unknown)  '.'
d6d1	ff	(unknown)  '.'
d6d2	ff	(unknown)  '.'
d6d3	ff	(unknown)  '.'
d6d4	ff	(unknown)  '.'
d6d5	ff	(unknown)  '.'
d6d6	ff	(unknown)  '.'
d6d7	ff	(unknown)  '.'
d6d8	ff	(unknown)  '.'
d6d9	ff	(unknown)  '.'
d6da	ff	(unknown)  '.'
d6db	ff	(unknown)  '.'
d6dc	ff	(unknown)  '.'
d6dd	ff	(unknown)  '.'
d6de	ff	(unknown)  '.'
d6df	ff	(unknown)  '.'
d6e0	ff	(unknown)  '.'
d6e1	ff	(unknown)  '.'
d6e2	ff	(unknown)  '.'
d6e3	ff	(unknown)  '.'
d6e4	ff	(unknown)  '.'
d6e5	ff	(unknown)  '.'
d6e6	ff	(unknown)  '.'
d6e7	ff	(unknown)  '.'
d6e8	ff	(unknown)  '.'
d6e9	ff	(unknown)  '.'
d6ea	ff	(unknown)  '.'
d6eb	ff	(unknown)  '.'
d6ec	ff	(unknown)  '.'
d6ed	ff	(unknown)  '.'
d6ee	ff	(unknown)  '.'
d6ef	ff	(unknown)  '.'
d6f0	ff	(unknown)  '.'
d6f1	ff	(unknown)  '.'
d6f2	ff	(unknown)  '.'
d6f3	ff	(unknown)  '.'
d6f4	ff	(unknown)  '.'
d6f5	ff	(unknown)  '.'
d6f6	ff	(unknown)  '.'
d6f7	ff	(unknown)  '.'
d6f8	ff	(unknown)  '.'
d6f9	ff	(unknown)  '.'
d6fa	ff	(unknown)  '.'
d6fb	ff	(unknown)  '.'
d6fc	ff	(unknown)  '.'
d6fd	ff	(unknown)  '.'
d6fe	ff	(unknown)  '.'
d6ff	ff	(unknown)  '.'
d700	ff	(unknown)  '.'
d701	ff	(unknown)  '.'
d702	ff	(unknown)  '.'
d703	ff	(unknown)  '.'
d704	ff	(unknown)  '.'
d705	ff	(unknown)  '.'
d706	ff	(unknown)  '.'
d707	ff	(unknown)  '.'
d708	ff	(unknown)  '.'
d709	ff	(unknown)  '.'
d70a	ff	(unknown)  '.'
d70b	ff	(unknown)  '.'
d70c	ff	(unknown)  '.'
d70d	ff	(unknown)  '.'
d70e	ff	(unknown)  '.'
d70f	ff	(unknown)  '.'
d710	ff	(unknown)  '.'
d711	ff	(unknown)  '.'
d712	ff	(unknown)  '.'
d713	ff	(unknown)  '.'
d714	ff	(unknown)  '.'
d715	ff	(unknown)  '.'
d716	ff	(unknown)  '.'
d717	ff	(unknown)  '.'
d718	ff	(unknown)  '.'
d719	ff	(unknown)  '.'
d71a	ff	(unknown)  '.'
d71b	ff	(unknown)  '.'
d71c	ff	(unknown)  '.'
d71d	ff	(unknown)  '.'
d71e	ff	(unknown)  '.'
d71f	ff	(unknown)  '.'
d720	ff	(unknown)  '.'
d721	ff	(unknown)  '.'
d722	ff	(unknown)  '.'
d723	ff	(unknown)  '.'
d724	ff	(unknown)  '.'
d725	ff	(unknown)  '.'
d726	ff	(unknown)  '.'
d727	ff	(unknown)  '.'
d728	ff	(unknown)  '.'
d729	ff	(unknown)  '.'
d72a	ff	(unknown)  '.'
d72b	ff	(unknown)  '.'
d72c	ff	(unknown)  '.'
d72d	ff	(unknown)  '.'
d72e	ff	(unknown)  '.'
d72f	ff	(unknown)  '.'
d730	ff	(unknown)  '.'
d731	ff	(unknown)  '.'
d732	ff	(unknown)  '.'
d733	ff	(unknown)  '.'
d734	ff	(unknown)  '.'
d735	ff	(unknown)  '.'
d736	ff	(unknown)  '.'
d737	ff	(unknown)  '.'
d738	ff	(unknown)  '.'
d739	ff	(unknown)  '.'
d73a	ff	(unknown)  '.'
d73b	ff	(unknown)  '.'
d73c	ff	(unknown)  '.'
d73d	ff	(unknown)  '.'
d73e	ff	(unknown)  '.'
d73f	ff	(unknown)  '.'
d740	ff	(unknown)  '.'
d741	ff	(unknown)  '.'
d742	ff	(unknown)  '.'
d743	ff	(unknown)  '.'
d744	ff	(unknown)  '.'
d745	ff	(unknown)  '.'
d746	ff	(unknown)  '.'
d747	ff	(unknown)  '.'
d748	ff	(unknown)  '.'
d749	ff	(unknown)  '.'
d74a	ff	(unknown)  '.'
d74b	ff	(unknown)  '.'
d74c	ff	(unknown)  '.'
d74d	ff	(unknown)  '.'
d74e	ff	(unknown)  '.'
d74f	ff	(unknown)  '.'
d750	ff	(unknown)  '.'
d751	ff	(unknown)  '.'
d752	ff	(unknown)  '.'
d753	ff	(unknown)  '.'
d754	ff	(unknown)  '.'
d755	ff	(unknown)  '.'
d756	ff	(unknown)  '.'
d757	ff	(unknown)  '.'
d758	ff	(unknown)  '.'
d759	ff	(unknown)  '.'
d75a	ff	(unknown)  '.'
d75b	ff	(unknown)  '.'
d75c	ff	(unknown)  '.'
d75d	ff	(unknown)  '.'
d75e	ff	(unknown)  '.'
d75f	ff	(unknown)  '.'
d760	ff	(unknown)  '.'
d761	ff	(unknown)  '.'
d762	ff	(unknown)  '.'
d763	ff	(unknown)  '.'
d764	ff	(unknown)  '.'
d765	ff	(unknown)  '.'
d766	ff	(unknown)  '.'
d767	ff	(unknown)  '.'
d768	ff	(unknown)  '.'
d769	ff	(unknown)  '.'
d76a	ff	(unknown)  '.'
d76b	ff	(unknown)  '.'
d76c	ff	(unknown)  '.'
d76d	ff	(unknown)  '.'
d76e	ff	(unknown)  '.'
d76f	ff	(unknown)  '.'
d770	ff	(unknown)  '.'
d771	ff	(unknown)  '.'
d772	ff	(unknown)  '.'
d773	ff	(unknown)  '.'
d774	ff	(unknown)  '.'
d775	ff	(unknown)  '.'
d776	ff	(unknown)  '.'
d777	ff	(unknown)  '.'
d778	ff	(unknown)  '.'
d779	ff	(unknown)  '.'
d77a	ff	(unknown)  '.'
d77b	ff	(unknown)  '.'
d77c	ff	(unknown)  '.'
d77d	ff	(unknown)  '.'
d77e	ff	(unknown)  '.'
d77f	ff	(unknown)  '.'
d780	ff	(unknown)  '.'
d781	ff	(unknown)  '.'
d782	ff	(unknown)  '.'
d783	ff	(unknown)  '.'
d784	ff	(unknown)  '.'
d785	ff	(unknown)  '.'
d786	ff	(unknown)  '.'
d787	ff	(unknown)  '.'
d788	ff	(unknown)  '.'
d789	ff	(unknown)  '.'
d78a	ff	(unknown)  '.'
d78b	ff	(unknown)  '.'
d78c	ff	(unknown)  '.'
d78d	ff	(unknown)  '.'
d78e	ff	(unknown)  '.'
d78f	ff	(unknown)  '.'
d790	ff	(unknown)  '.'
d791	ff	(unknown)  '.'
d792	ff	(unknown)  '.'
d793	ff	(unknown)  '.'
d794	ff	(unknown)  '.'
d795	ff	(unknown)  '.'
d796	ff	(unknown)  '.'
d797	ff	(unknown)  '.'
d798	ff	(unknown)  '.'
d799	ff	(unknown)  '.'
d79a	ff	(unknown)  '.'
d79b	ff	(unknown)  '.'
d79c	ff	(unknown)  '.'
d79d	ff	(unknown)  '.'
d79e	ff	(unknown)  '.'
d79f	ff	(unknown)  '.'
d7a0	ff	(unknown)  '.'
d7a1	ff	(unknown)  '.'
d7a2	ff	(unknown)  '.'
d7a3	ff	(unknown)  '.'
d7a4	ff	(unknown)  '.'
d7a5	ff	(unknown)  '.'
d7a6	ff	(unknown)  '.'
d7a7	ff	(unknown)  '.'
d7a8	ff	(unknown)  '.'
d7a9	ff	(unknown)  '.'
d7aa	ff	(unknown)  '.'
d7ab	ff	(unknown)  '.'
d7ac	ff	(unknown)  '.'
d7ad	ff	(unknown)  '.'
d7ae	ff	(unknown)  '.'
d7af	ff	(unknown)  '.'
d7b0	ff	(unknown)  '.'
d7b1	ff	(unknown)  '.'
d7b2	ff	(unknown)  '.'
d7b3	ff	(unknown)  '.'
d7b4	ff	(unknown)  '.'
d7b5	ff	(unknown)  '.'
d7b6	ff	(unknown)  '.'
d7b7	ff	(unknown)  '.'
d7b8	ff	(unknown)  '.'
d7b9	ff	(unknown)  '.'
d7ba	ff	(unknown)  '.'
d7bb	ff	(unknown)  '.'
d7bc	ff	(unknown)  '.'
d7bd	ff	(unknown)  '.'
d7be	ff	(unknown)  '.'
d7bf	ff	(unknown)  '.'
d7c0	ff	(unknown)  '.'
d7c1	ff	(unknown)  '.'
d7c2	ff	(unknown)  '.'
d7c3	ff	(unknown)  '.'
d7c4	ff	(unknown)  '.'
d7c5	ff	(unknown)  '.'
d7c6	ff	(unknown)  '.'
d7c7	ff	(unknown)  '.'
d7c8	ff	(unknown)  '.'
d7c9	ff	(unknown)  '.'
d7ca	ff	(unknown)  '.'
d7cb	ff	(unknown)  '.'
d7cc	ff	(unknown)  '.'
d7cd	ff	(unknown)  '.'
d7ce	ff	(unknown)  '.'
d7cf	ff	(unknown)  '.'
d7d0	ff	(unknown)  '.'
d7d1	ff	(unknown)  '.'
d7d2	ff	(unknown)  '.'
d7d3	ff	(unknown)  '.'
d7d4	ff	(unknown)  '.'
d7d5	ff	(unknown)  '.'
d7d6	ff	(unknown)  '.'
d7d7	ff	(unknown)  '.'
d7d8	ff	(unknown)  '.'
d7d9	ff	(unknown)  '.'
d7da	ff	(unknown)  '.'
d7db	ff	(unknown)  '.'
d7dc	ff	(unknown)  '.'
d7dd	ff	(unknown)  '.'
d7de	ff	(unknown)  '.'
d7df	ff	(unknown)  '.'
d7e0	ff	(unknown)  '.'
d7e1	ff	(unknown)  '.'
d7e2	ff	(unknown)  '.'
d7e3	ff	(unknown)  '.'
d7e4	ff	(unknown)  '.'
d7e5	ff	(unknown)  '.'
d7e6	ff	(unknown)  '.'
d7e7	ff	(unknown)  '.'
d7e8	ff	(unknown)  '.'
d7e9	ff	(unknown)  '.'
d7ea	ff	(unknown)  '.'
d7eb	ff	(unknown)  '.'
d7ec	ff	(unknown)  '.'
d7ed	ff	(unknown)  '.'
d7ee	ff	(unknown)  '.'
d7ef	ff	(unknown)  '.'
d7f0	ff	(unknown)  '.'
d7f1	ff	(unknown)  '.'
d7f2	ff	(unknown)  '.'
d7f3	ff	(unknown)  '.'
d7f4	ff	(unknown)  '.'
d7f5	ff	(unknown)  '.'
d7f6	ff	(unknown)  '.'
d7f7	ff	(unknown)  '.'
d7f8	ff	(unknown)  '.'
d7f9	ff	(unknown)  '.'
d7fa	ff	(unknown)  '.'
d7fb	ff	(unknown)  '.'
d7fc	ff	(unknown)  '.'
d7fd	ff	(unknown)  '.'
d7fe	ff	(unknown)  '.'
d7ff	ff	(unknown)  '.'
d800	ff	(unknown)  '.'
d801	ff	(unknown)  '.'
d802	ff	(unknown)  '.'
d803	ff	(unknown)  '.'
d804	ff	(unknown)  '.'
d805	ff	(unknown)  '.'
d806	ff	(unknown)  '.'
d807	ff	(unknown)  '.'
d808	ff	(unknown)  '.'
d809	ff	(unknown)  '.'
d80a	ff	(unknown)  '.'
d80b	ff	(unknown)  '.'
d80c	ff	(unknown)  '.'
d80d	ff	(unknown)  '.'
d80e	ff	(unknown)  '.'
d80f	ff	(unknown)  '.'
d810	ff	(unknown)  '.'
d811	ff	(unknown)  '.'
d812	ff	(unknown)  '.'
d813	ff	(unknown)  '.'
d814	ff	(unknown)  '.'
d815	ff	(unknown)  '.'
d816	ff	(unknown)  '.'
d817	ff	(unknown)  '.'
d818	ff	(unknown)  '.'
d819	ff	(unknown)  '.'
d81a	ff	(unknown)  '.'
d81b	ff	(unknown)  '.'
d81c	ff	(unknown)  '.'
d81d	ff	(unknown)  '.'
d81e	ff	(unknown)  '.'
d81f	ff	(unknown)  '.'
d820	ff	(unknown)  '.'
d821	ff	(unknown)  '.'
d822	ff	(unknown)  '.'
d823	ff	(unknown)  '.'
d824	ff	(unknown)  '.'
d825	ff	(unknown)  '.'
d826	ff	(unknown)  '.'
d827	ff	(unknown)  '.'
d828	ff	(unknown)  '.'
d829	ff	(unknown)  '.'
d82a	ff	(unknown)  '.'
d82b	ff	(unknown)  '.'
d82c	ff	(unknown)  '.'
d82d	ff	(unknown)  '.'
d82e	ff	(unknown)  '.'
d82f	ff	(unknown)  '.'
d830	ff	(unknown)  '.'
d831	ff	(unknown)  '.'
d832	ff	(unknown)  '.'
d833	ff	(unknown)  '.'
d834	ff	(unknown)  '.'
d835	ff	(unknown)  '.'
d836	ff	(unknown)  '.'
d837	ff	(unknown)  '.'
d838	ff	(unknown)  '.'
d839	ff	(unknown)  '.'
d83a	ff	(unknown)  '.'
d83b	ff	(unknown)  '.'
d83c	ff	(unknown)  '.'
d83d	ff	(unknown)  '.'
d83e	ff	(unknown)  '.'
d83f	ff	(unknown)  '.'
d840	ff	(unknown)  '.'
d841	ff	(unknown)  '.'
d842	ff	(unknown)  '.'
d843	ff	(unknown)  '.'
d844	ff	(unknown)  '.'
d845	ff	(unknown)  '.'
d846	ff	(unknown)  '.'
d847	ff	(unknown)  '.'
d848	ff	(unknown)  '.'
d849	ff	(unknown)  '.'
d84a	ff	(unknown)  '.'
d84b	ff	(unknown)  '.'
d84c	ff	(unknown)  '.'
d84d	ff	(unknown)  '.'
d84e	ff	(unknown)  '.'
d84f	ff	(unknown)  '.'
d850	ff	(unknown)  '.'
d851	ff	(unknown)  '.'
d852	ff	(unknown)  '.'
d853	ff	(unknown)  '.'
d854	ff	(unknown)  '.'
d855	ff	(unknown)  '.'
d856	ff	(unknown)  '.'
d857	ff	(unknown)  '.'
d858	ff	(unknown)  '.'
d859	ff	(unknown)  '.'
d85a	ff	(unknown)  '.'
d85b	ff	(unknown)  '.'
d85c	ff	(unknown)  '.'
d85d	ff	(unknown)  '.'
d85e	ff	(unknown)  '.'
d85f	ff	(unknown)  '.'
d860	ff	(unknown)  '.'
d861	ff	(unknown)  '.'
d862	ff	(unknown)  '.'
d863	ff	(unknown)  '.'
d864	ff	(unknown)  '.'
d865	ff	(unknown)  '.'
d866	ff	(unknown)  '.'
d867	ff	(unknown)  '.'
d868	ff	(unknown)  '.'
d869	ff	(unknown)  '.'
d86a	ff	(unknown)  '.'
d86b	ff	(unknown)  '.'
d86c	ff	(unknown)  '.'
d86d	ff	(unknown)  '.'
d86e	ff	(unknown)  '.'
d86f	ff	(unknown)  '.'
d870	ff	(unknown)  '.'
d871	ff	(unknown)  '.'
d872	ff	(unknown)  '.'
d873	ff	(unknown)  '.'
d874	ff	(unknown)  '.'
d875	ff	(unknown)  '.'
d876	ff	(unknown)  '.'
d877	ff	(unknown)  '.'
d878	ff	(unknown)  '.'
d879	ff	(unknown)  '.'
d87a	ff	(unknown)  '.'
d87b	ff	(unknown)  '.'
d87c	ff	(unknown)  '.'
d87d	ff	(unknown)  '.'
d87e	ff	(unknown)  '.'
d87f	ff	(unknown)  '.'
d880	ff	(unknown)  '.'
d881	ff	(unknown)  '.'
d882	ff	(unknown)  '.'
d883	ff	(unknown)  '.'
d884	ff	(unknown)  '.'
d885	ff	(unknown)  '.'
d886	ff	(unknown)  '.'
d887	ff	(unknown)  '.'
d888	ff	(unknown)  '.'
d889	ff	(unknown)  '.'
d88a	ff	(unknown)  '.'
d88b	ff	(unknown)  '.'
d88c	ff	(unknown)  '.'
d88d	ff	(unknown)  '.'
d88e	ff	(unknown)  '.'
d88f	ff	(unknown)  '.'
d890	ff	(unknown)  '.'
d891	ff	(unknown)  '.'
d892	ff	(unknown)  '.'
d893	ff	(unknown)  '.'
d894	ff	(unknown)  '.'
d895	ff	(unknown)  '.'
d896	ff	(unknown)  '.'
d897	ff	(unknown)  '.'
d898	ff	(unknown)  '.'
d899	ff	(unknown)  '.'
d89a	ff	(unknown)  '.'
d89b	ff	(unknown)  '.'
d89c	ff	(unknown)  '.'
d89d	ff	(unknown)  '.'
d89e	ff	(unknown)  '.'
d89f	ff	(unknown)  '.'
d8a0	ff	(unknown)  '.'
d8a1	ff	(unknown)  '.'
d8a2	ff	(unknown)  '.'
d8a3	ff	(unknown)  '.'
d8a4	ff	(unknown)  '.'
d8a5	ff	(unknown)  '.'
d8a6	ff	(unknown)  '.'
d8a7	ff	(unknown)  '.'
d8a8	ff	(unknown)  '.'
d8a9	ff	(unknown)  '.'
d8aa	ff	(unknown)  '.'
d8ab	ff	(unknown)  '.'
d8ac	ff	(unknown)  '.'
d8ad	ff	(unknown)  '.'
d8ae	ff	(unknown)  '.'
d8af	ff	(unknown)  '.'
d8b0	ff	(unknown)  '.'
d8b1	ff	(unknown)  '.'
d8b2	ff	(unknown)  '.'
d8b3	ff	(unknown)  '.'
d8b4	ff	(unknown)  '.'
d8b5	ff	(unknown)  '.'
d8b6	ff	(unknown)  '.'
d8b7	ff	(unknown)  '.'
d8b8	ff	(unknown)  '.'
d8b9	ff	(unknown)  '.'
d8ba	ff	(unknown)  '.'
d8bb	ff	(unknown)  '.'
d8bc	ff	(unknown)  '.'
d8bd	ff	(unknown)  '.'
d8be	ff	(unknown)  '.'
d8bf	ff	(unknown)  '.'
d8c0	ff	(unknown)  '.'
d8c1	ff	(unknown)  '.'
d8c2	ff	(unknown)  '.'
d8c3	ff	(unknown)  '.'
d8c4	ff	(unknown)  '.'
d8c5	ff	(unknown)  '.'
d8c6	ff	(unknown)  '.'
d8c7	ff	(unknown)  '.'
d8c8	ff	(unknown)  '.'
d8c9	ff	(unknown)  '.'
d8ca	ff	(unknown)  '.'
d8cb	ff	(unknown)  '.'
d8cc	ff	(unknown)  '.'
d8cd	ff	(unknown)  '.'
d8ce	ff	(unknown)  '.'
d8cf	ff	(unknown)  '.'
d8d0	ff	(unknown)  '.'
d8d1	ff	(unknown)  '.'
d8d2	ff	(unknown)  '.'
d8d3	ff	(unknown)  '.'
d8d4	ff	(unknown)  '.'
d8d5	ff	(unknown)  '.'
d8d6	ff	(unknown)  '.'
d8d7	ff	(unknown)  '.'
d8d8	ff	(unknown)  '.'
d8d9	ff	(unknown)  '.'
d8da	ff	(unknown)  '.'
d8db	ff	(unknown)  '.'
d8dc	ff	(unknown)  '.'
d8dd	ff	(unknown)  '.'
d8de	ff	(unknown)  '.'
d8df	ff	(unknown)  '.'
d8e0	ff	(unknown)  '.'
d8e1	ff	(unknown)  '.'
d8e2	ff	(unknown)  '.'
d8e3	ff	(unknown)  '.'
d8e4	ff	(unknown)  '.'
d8e5	ff	(unknown)  '.'
d8e6	ff	(unknown)  '.'
d8e7	ff	(unknown)  '.'
d8e8	ff	(unknown)  '.'
d8e9	ff	(unknown)  '.'
d8ea	ff	(unknown)  '.'
d8eb	ff	(unknown)  '.'
d8ec	ff	(unknown)  '.'
d8ed	ff	(unknown)  '.'
d8ee	ff	(unknown)  '.'
d8ef	ff	(unknown)  '.'
d8f0	ff	(unknown)  '.'
d8f1	ff	(unknown)  '.'
d8f2	ff	(unknown)  '.'
d8f3	ff	(unknown)  '.'
d8f4	ff	(unknown)  '.'
d8f5	ff	(unknown)  '.'
d8f6	ff	(unknown)  '.'
d8f7	ff	(unknown)  '.'
d8f8	ff	(unknown)  '.'
d8f9	ff	(unknown)  '.'
d8fa	ff	(unknown)  '.'
d8fb	ff	(unknown)  '.'
d8fc	ff	(unknown)  '.'
d8fd	ff	(unknown)  '.'
d8fe	ff	(unknown)  '.'
d8ff	ff	(unknown)  '.'
d900	ff	(unknown)  '.'
d901	ff	(unknown)  '.'
d902	ff	(unknown)  '.'
d903	ff	(unknown)  '.'
d904	ff	(unknown)  '.'
d905	ff	(unknown)  '.'
d906	ff	(unknown)  '.'
d907	ff	(unknown)  '.'
d908	ff	(unknown)  '.'
d909	ff	(unknown)  '.'
d90a	ff	(unknown)  '.'
d90b	ff	(unknown)  '.'
d90c	ff	(unknown)  '.'
d90d	ff	(unknown)  '.'
d90e	ff	(unknown)  '.'
d90f	ff	(unknown)  '.'
d910	ff	(unknown)  '.'
d911	ff	(unknown)  '.'
d912	ff	(unknown)  '.'
d913	ff	(unknown)  '.'
d914	ff	(unknown)  '.'
d915	ff	(unknown)  '.'
d916	ff	(unknown)  '.'
d917	ff	(unknown)  '.'
d918	ff	(unknown)  '.'
d919	ff	(unknown)  '.'
d91a	ff	(unknown)  '.'
d91b	ff	(unknown)  '.'
d91c	ff	(unknown)  '.'
d91d	ff	(unknown)  '.'
d91e	ff	(unknown)  '.'
d91f	ff	(unknown)  '.'
d920	ff	(unknown)  '.'
d921	ff	(unknown)  '.'
d922	ff	(unknown)  '.'
d923	ff	(unknown)  '.'
d924	ff	(unknown)  '.'
d925	ff	(unknown)  '.'
d926	ff	(unknown)  '.'
d927	ff	(unknown)  '.'
d928	ff	(unknown)  '.'
d929	ff	(unknown)  '.'
d92a	ff	(unknown)  '.'
d92b	ff	(unknown)  '.'
d92c	ff	(unknown)  '.'
d92d	ff	(unknown)  '.'
d92e	ff	(unknown)  '.'
d92f	ff	(unknown)  '.'
d930	ff	(unknown)  '.'
d931	ff	(unknown)  '.'
d932	ff	(unknown)  '.'
d933	ff	(unknown)  '.'
d934	ff	(unknown)  '.'
d935	ff	(unknown)  '.'
d936	ff	(unknown)  '.'
d937	ff	(unknown)  '.'
d938	ff	(unknown)  '.'
d939	ff	(unknown)  '.'
d93a	ff	(unknown)  '.'
d93b	ff	(unknown)  '.'
d93c	ff	(unknown)  '.'
d93d	ff	(unknown)  '.'
d93e	ff	(unknown)  '.'
d93f	ff	(unknown)  '.'
d940	ff	(unknown)  '.'
d941	ff	(unknown)  '.'
d942	ff	(unknown)  '.'
d943	ff	(unknown)  '.'
d944	ff	(unknown)  '.'
d945	ff	(unknown)  '.'
d946	ff	(unknown)  '.'
d947	ff	(unknown)  '.'
d948	ff	(unknown)  '.'
d949	ff	(unknown)  '.'
d94a	ff	(unknown)  '.'
d94b	ff	(unknown)  '.'
d94c	ff	(unknown)  '.'
d94d	ff	(unknown)  '.'
d94e	ff	(unknown)  '.'
d94f	ff	(unknown)  '.'
d950	ff	(unknown)  '.'
d951	ff	(unknown)  '.'
d952	ff	(unknown)  '.'
d953	ff	(unknown)  '.'
d954	ff	(unknown)  '.'
d955	ff	(unknown)  '.'
d956	ff	(unknown)  '.'
d957	ff	(unknown)  '.'
d958	ff	(unknown)  '.'
d959	ff	(unknown)  '.'
d95a	ff	(unknown)  '.'
d95b	ff	(unknown)  '.'
d95c	ff	(unknown)  '.'
d95d	ff	(unknown)  '.'
d95e	ff	(unknown)  '.'
d95f	ff	(unknown)  '.'
d960	ff	(unknown)  '.'
d961	ff	(unknown)  '.'
d962	ff	(unknown)  '.'
d963	ff	(unknown)  '.'
d964	ff	(unknown)  '.'
d965	ff	(unknown)  '.'
d966	ff	(unknown)  '.'
d967	ff	(unknown)  '.'
d968	ff	(unknown)  '.'
d969	ff	(unknown)  '.'
d96a	ff	(unknown)  '.'
d96b	ff	(unknown)  '.'
d96c	ff	(unknown)  '.'
d96d	ff	(unknown)  '.'
d96e	ff	(unknown)  '.'
d96f	ff	(unknown)  '.'
d970	ff	(unknown)  '.'
d971	ff	(unknown)  '.'
d972	ff	(unknown)  '.'
d973	ff	(unknown)  '.'
d974	ff	(unknown)  '.'
d975	ff	(unknown)  '.'
d976	ff	(unknown)  '.'
d977	ff	(unknown)  '.'
d978	ff	(unknown)  '.'
d979	ff	(unknown)  '.'
d97a	ff	(unknown)  '.'
d97b	ff	(unknown)  '.'
d97c	ff	(unknown)  '.'
d97d	ff	(unknown)  '.'
d97e	ff	(unknown)  '.'
d97f	ff	(unknown)  '.'
d980	ff	(unknown)  '.'
d981	ff	(unknown)  '.'
d982	ff	(unknown)  '.'
d983	ff	(unknown)  '.'
d984	ff	(unknown)  '.'
d985	ff	(unknown)  '.'
d986	ff	(unknown)  '.'
d987	ff	(unknown)  '.'
d988	ff	(unknown)  '.'
d989	ff	(unknown)  '.'
d98a	ff	(unknown)  '.'
d98b	ff	(unknown)  '.'
d98c	ff	(unknown)  '.'
d98d	ff	(unknown)  '.'
d98e	ff	(unknown)  '.'
d98f	ff	(unknown)  '.'
d990	ff	(unknown)  '.'
d991	ff	(unknown)  '.'
d992	ff	(unknown)  '.'
d993	ff	(unknown)  '.'
d994	ff	(unknown)  '.'
d995	ff	(unknown)  '.'
d996	ff	(unknown)  '.'
d997	ff	(unknown)  '.'
d998	ff	(unknown)  '.'
d999	ff	(unknown)  '.'
d99a	ff	(unknown)  '.'
d99b	ff	(unknown)  '.'
d99c	ff	(unknown)  '.'
d99d	ff	(unknown)  '.'
d99e	ff	(unknown)  '.'
d99f	ff	(unknown)  '.'
d9a0	ff	(unknown)  '.'
d9a1	ff	(unknown)  '.'
d9a2	ff	(unknown)  '.'
d9a3	ff	(unknown)  '.'
d9a4	ff	(unknown)  '.'
d9a5	ff	(unknown)  '.'
d9a6	ff	(unknown)  '.'
d9a7	ff	(unknown)  '.'
d9a8	ff	(unknown)  '.'
d9a9	ff	(unknown)  '.'
d9aa	ff	(unknown)  '.'
d9ab	ff	(unknown)  '.'
d9ac	ff	(unknown)  '.'
d9ad	ff	(unknown)  '.'
d9ae	ff	(unknown)  '.'
d9af	ff	(unknown)  '.'
d9b0	ff	(unknown)  '.'
d9b1	ff	(unknown)  '.'
d9b2	ff	(unknown)  '.'
d9b3	ff	(unknown)  '.'
d9b4	ff	(unknown)  '.'
d9b5	ff	(unknown)  '.'
d9b6	ff	(unknown)  '.'
d9b7	ff	(unknown)  '.'
d9b8	ff	(unknown)  '.'
d9b9	ff	(unknown)  '.'
d9ba	ff	(unknown)  '.'
d9bb	ff	(unknown)  '.'
d9bc	ff	(unknown)  '.'
d9bd	ff	(unknown)  '.'
d9be	ff	(unknown)  '.'
d9bf	ff	(unknown)  '.'
d9c0	ff	(unknown)  '.'
d9c1	ff	(unknown)  '.'
d9c2	ff	(unknown)  '.'
d9c3	ff	(unknown)  '.'
d9c4	ff	(unknown)  '.'
d9c5	ff	(unknown)  '.'
d9c6	ff	(unknown)  '.'
d9c7	ff	(unknown)  '.'
d9c8	ff	(unknown)  '.'
d9c9	ff	(unknown)  '.'
d9ca	ff	(unknown)  '.'
d9cb	ff	(unknown)  '.'
d9cc	ff	(unknown)  '.'
d9cd	ff	(unknown)  '.'
d9ce	ff	(unknown)  '.'
d9cf	ff	(unknown)  '.'
d9d0	ff	(unknown)  '.'
d9d1	ff	(unknown)  '.'
d9d2	ff	(unknown)  '.'
d9d3	ff	(unknown)  '.'
d9d4	ff	(unknown)  '.'
d9d5	ff	(unknown)  '.'
d9d6	ff	(unknown)  '.'
d9d7	ff	(unknown)  '.'
d9d8	ff	(unknown)  '.'
d9d9	ff	(unknown)  '.'
d9da	ff	(unknown)  '.'
d9db	ff	(unknown)  '.'
d9dc	ff	(unknown)  '.'
d9dd	ff	(unknown)  '.'
d9de	ff	(unknown)  '.'
d9df	ff	(unknown)  '.'
d9e0	ff	(unknown)  '.'
d9e1	ff	(unknown)  '.'
d9e2	ff	(unknown)  '.'
d9e3	ff	(unknown)  '.'
d9e4	ff	(unknown)  '.'
d9e5	ff	(unknown)  '.'
d9e6	ff	(unknown)  '.'
d9e7	ff	(unknown)  '.'
d9e8	ff	(unknown)  '.'
d9e9	ff	(unknown)  '.'
d9ea	ff	(unknown)  '.'
d9eb	ff	(unknown)  '.'
d9ec	ff	(unknown)  '.'
d9ed	ff	(unknown)  '.'
d9ee	ff	(unknown)  '.'
d9ef	ff	(unknown)  '.'
d9f0	ff	(unknown)  '.'
d9f1	ff	(unknown)  '.'
d9f2	ff	(unknown)  '.'
d9f3	ff	(unknown)  '.'
d9f4	ff	(unknown)  '.'
d9f5	ff	(unknown)  '.'
d9f6	ff	(unknown)  '.'
d9f7	ff	(unknown)  '.'
d9f8	ff	(unknown)  '.'
d9f9	ff	(unknown)  '.'
d9fa	ff	(unknown)  '.'
d9fb	ff	(unknown)  '.'
d9fc	ff	(unknown)  '.'
d9fd	ff	(unknown)  '.'
d9fe	ff	(unknown)  '.'
d9ff	ff	(unknown)  '.'
da00	ff	(unknown)  '.'
da01	ff	(unknown)  '.'
da02	ff	(unknown)  '.'
da03	ff	(unknown)  '.'
da04	ff	(unknown)  '.'
da05	ff	(unknown)  '.'
da06	ff	(unknown)  '.'
da07	ff	(unknown)  '.'
da08	ff	(unknown)  '.'
da09	ff	(unknown)  '.'
da0a	ff	(unknown)  '.'
da0b	ff	(unknown)  '.'
da0c	ff	(unknown)  '.'
da0d	ff	(unknown)  '.'
da0e	ff	(unknown)  '.'
da0f	ff	(unknown)  '.'
da10	ff	(unknown)  '.'
da11	ff	(unknown)  '.'
da12	ff	(unknown)  '.'
da13	ff	(unknown)  '.'
da14	ff	(unknown)  '.'
da15	ff	(unknown)  '.'
da16	ff	(unknown)  '.'
da17	ff	(unknown)  '.'
da18	ff	(unknown)  '.'
da19	ff	(unknown)  '.'
da1a	ff	(unknown)  '.'
da1b	ff	(unknown)  '.'
da1c	ff	(unknown)  '.'
da1d	ff	(unknown)  '.'
da1e	ff	(unknown)  '.'
da1f	ff	(unknown)  '.'
da20	ff	(unknown)  '.'
da21	ff	(unknown)  '.'
da22	ff	(unknown)  '.'
da23	ff	(unknown)  '.'
da24	ff	(unknown)  '.'
da25	ff	(unknown)  '.'
da26	ff	(unknown)  '.'
da27	ff	(unknown)  '.'
da28	ff	(unknown)  '.'
da29	ff	(unknown)  '.'
da2a	ff	(unknown)  '.'
da2b	ff	(unknown)  '.'
da2c	ff	(unknown)  '.'
da2d	ff	(unknown)  '.'
da2e	ff	(unknown)  '.'
da2f	ff	(unknown)  '.'
da30	ff	(unknown)  '.'
da31	ff	(unknown)  '.'
da32	ff	(unknown)  '.'
da33	ff	(unknown)  '.'
da34	ff	(unknown)  '.'
da35	ff	(unknown)  '.'
da36	ff	(unknown)  '.'
da37	ff	(unknown)  '.'
da38	ff	(unknown)  '.'
da39	ff	(unknown)  '.'
da3a	ff	(unknown)  '.'
da3b	ff	(unknown)  '.'
da3c	ff	(unknown)  '.'
da3d	ff	(unknown)  '.'
da3e	ff	(unknown)  '.'
da3f	ff	(unknown)  '.'
da40	ff	(unknown)  '.'
da41	ff	(unknown)  '.'
da42	ff	(unknown)  '.'
da43	ff	(unknown)  '.'
da44	ff	(unknown)  '.'
da45	ff	(unknown)  '.'
da46	ff	(unknown)  '.'
da47	ff	(unknown)  '.'
da48	ff	(unknown)  '.'
da49	ff	(unknown)  '.'
da4a	ff	(unknown)  '.'
da4b	ff	(unknown)  '.'
da4c	ff	(unknown)  '.'
da4d	ff	(unknown)  '.'
da4e	ff	(unknown)  '.'
da4f	ff	(unknown)  '.'
da50	ff	(unknown)  '.'
da51	ff	(unknown)  '.'
da52	ff	(unknown)  '.'
da53	ff	(unknown)  '.'
da54	ff	(unknown)  '.'
da55	ff	(unknown)  '.'
da56	ff	(unknown)  '.'
da57	ff	(unknown)  '.'
da58	ff	(unknown)  '.'
da59	ff	(unknown)  '.'
da5a	ff	(unknown)  '.'
da5b	ff	(unknown)  '.'
da5c	ff	(unknown)  '.'
da5d	ff	(unknown)  '.'
da5e	ff	(unknown)  '.'
da5f	ff	(unknown)  '.'
da60	ff	(unknown)  '.'
da61	ff	(unknown)  '.'
da62	ff	(unknown)  '.'
da63	ff	(unknown)  '.'
da64	ff	(unknown)  '.'
da65	ff	(unknown)  '.'
da66	ff	(unknown)  '.'
da67	ff	(unknown)  '.'
da68	ff	(unknown)  '.'
da69	ff	(unknown)  '.'
da6a	ff	(unknown)  '.'
da6b	ff	(unknown)  '.'
da6c	ff	(unknown)  '.'
da6d	ff	(unknown)  '.'
da6e	ff	(unknown)  '.'
da6f	ff	(unknown)  '.'
da70	ff	(unknown)  '.'
da71	ff	(unknown)  '.'
da72	ff	(unknown)  '.'
da73	ff	(unknown)  '.'
da74	ff	(unknown)  '.'
da75	ff	(unknown)  '.'
da76	ff	(unknown)  '.'
da77	ff	(unknown)  '.'
da78	ff	(unknown)  '.'
da79	ff	(unknown)  '.'
da7a	ff	(unknown)  '.'
da7b	ff	(unknown)  '.'
da7c	ff	(unknown)  '.'
da7d	ff	(unknown)  '.'
da7e	ff	(unknown)  '.'
da7f	ff	(unknown)  '.'
da80	ff	(unknown)  '.'
da81	ff	(unknown)  '.'
da82	ff	(unknown)  '.'
da83	ff	(unknown)  '.'
da84	ff	(unknown)  '.'
da85	ff	(unknown)  '.'
da86	ff	(unknown)  '.'
da87	ff	(unknown)  '.'
da88	ff	(unknown)  '.'
da89	ff	(unknown)  '.'
da8a	ff	(unknown)  '.'
da8b	ff	(unknown)  '.'
da8c	ff	(unknown)  '.'
da8d	ff	(unknown)  '.'
da8e	ff	(unknown)  '.'
da8f	ff	(unknown)  '.'
da90	ff	(unknown)  '.'
da91	ff	(unknown)  '.'
da92	ff	(unknown)  '.'
da93	ff	(unknown)  '.'
da94	ff	(unknown)  '.'
da95	ff	(unknown)  '.'
da96	ff	(unknown)  '.'
da97	ff	(unknown)  '.'
da98	ff	(unknown)  '.'
da99	ff	(unknown)  '.'
da9a	ff	(unknown)  '.'
da9b	ff	(unknown)  '.'
da9c	ff	(unknown)  '.'
da9d	ff	(unknown)  '.'
da9e	ff	(unknown)  '.'
da9f	ff	(unknown)  '.'
daa0	ff	(unknown)  '.'
daa1	ff	(unknown)  '.'
daa2	ff	(unknown)  '.'
daa3	ff	(unknown)  '.'
daa4	ff	(unknown)  '.'
daa5	ff	(unknown)  '.'
daa6	ff	(unknown)  '.'
daa7	ff	(unknown)  '.'
daa8	ff	(unknown)  '.'
daa9	ff	(unknown)  '.'
daaa	ff	(unknown)  '.'
daab	ff	(unknown)  '.'
daac	ff	(unknown)  '.'
daad	ff	(unknown)  '.'
daae	ff	(unknown)  '.'
daaf	ff	(unknown)  '.'
dab0	ff	(unknown)  '.'
dab1	ff	(unknown)  '.'
dab2	ff	(unknown)  '.'
dab3	ff	(unknown)  '.'
dab4	ff	(unknown)  '.'
dab5	ff	(unknown)  '.'
dab6	ff	(unknown)  '.'
dab7	ff	(unknown)  '.'
dab8	ff	(unknown)  '.'
dab9	ff	(unknown)  '.'
daba	ff	(unknown)  '.'
dabb	ff	(unknown)  '.'
dabc	ff	(unknown)  '.'
dabd	ff	(unknown)  '.'
dabe	ff	(unknown)  '.'
dabf	ff	(unknown)  '.'
dac0	ff	(unknown)  '.'
dac1	ff	(unknown)  '.'
dac2	ff	(unknown)  '.'
dac3	ff	(unknown)  '.'
dac4	ff	(unknown)  '.'
dac5	ff	(unknown)  '.'
dac6	ff	(unknown)  '.'
dac7	ff	(unknown)  '.'
dac8	ff	(unknown)  '.'
dac9	ff	(unknown)  '.'
daca	ff	(unknown)  '.'
dacb	ff	(unknown)  '.'
dacc	ff	(unknown)  '.'
dacd	ff	(unknown)  '.'
dace	ff	(unknown)  '.'
dacf	ff	(unknown)  '.'
dad0	ff	(unknown)  '.'
dad1	ff	(unknown)  '.'
dad2	ff	(unknown)  '.'
dad3	ff	(unknown)  '.'
dad4	ff	(unknown)  '.'
dad5	ff	(unknown)  '.'
dad6	ff	(unknown)  '.'
dad7	ff	(unknown)  '.'
dad8	ff	(unknown)  '.'
dad9	ff	(unknown)  '.'
dada	ff	(unknown)  '.'
dadb	ff	(unknown)  '.'
dadc	ff	(unknown)  '.'
dadd	ff	(unknown)  '.'
dade	ff	(unknown)  '.'
dadf	ff	(unknown)  '.'
dae0	ff	(unknown)  '.'
dae1	ff	(unknown)  '.'
dae2	ff	(unknown)  '.'
dae3	ff	(unknown)  '.'
dae4	ff	(unknown)  '.'
dae5	ff	(unknown)  '.'
dae6	ff	(unknown)  '.'
dae7	ff	(unknown)  '.'
dae8	ff	(unknown)  '.'
dae9	ff	(unknown)  '.'
daea	ff	(unknown)  '.'
daeb	ff	(unknown)  '.'
daec	ff	(unknown)  '.'
daed	ff	(unknown)  '.'
daee	ff	(unknown)  '.'
daef	ff	(unknown)  '.'
daf0	ff	(unknown)  '.'
daf1	ff	(unknown)  '.'
daf2	ff	(unknown)  '.'
daf3	ff	(unknown)  '.'
daf4	ff	(unknown)  '.'
daf5	ff	(unknown)  '.'
daf6	ff	(unknown)  '.'
daf7	ff	(unknown)  '.'
daf8	ff	(unknown)  '.'
daf9	ff	(unknown)  '.'
dafa	ff	(unknown)  '.'
dafb	ff	(unknown)  '.'
dafc	ff	(unknown)  '.'
dafd	ff	(unknown)  '.'
dafe	ff	(unknown)  '.'
daff	ff	(unknown)  '.'
db00	ff	(unknown)  '.'
db01	ff	(unknown)  '.'
db02	ff	(unknown)  '.'
db03	ff	(unknown)  '.'
db04	ff	(unknown)  '.'
db05	ff	(unknown)  '.'
db06	ff	(unknown)  '.'
db07	ff	(unknown)  '.'
db08	ff	(unknown)  '.'
db09	ff	(unknown)  '.'
db0a	ff	(unknown)  '.'
db0b	ff	(unknown)  '.'
db0c	ff	(unknown)  '.'
db0d	ff	(unknown)  '.'
db0e	ff	(unknown)  '.'
db0f	ff	(unknown)  '.'
db10	ff	(unknown)  '.'
db11	ff	(unknown)  '.'
db12	ff	(unknown)  '.'
db13	ff	(unknown)  '.'
db14	ff	(unknown)  '.'
db15	ff	(unknown)  '.'
db16	ff	(unknown)  '.'
db17	ff	(unknown)  '.'
db18	ff	(unknown)  '.'
db19	ff	(unknown)  '.'
db1a	ff	(unknown)  '.'
db1b	ff	(unknown)  '.'
db1c	ff	(unknown)  '.'
db1d	ff	(unknown)  '.'
db1e	ff	(unknown)  '.'
db1f	ff	(unknown)  '.'
db20	ff	(unknown)  '.'
db21	ff	(unknown)  '.'
db22	ff	(unknown)  '.'
db23	ff	(unknown)  '.'
db24	ff	(unknown)  '.'
db25	ff	(unknown)  '.'
db26	ff	(unknown)  '.'
db27	ff	(unknown)  '.'
db28	ff	(unknown)  '.'
db29	ff	(unknown)  '.'
db2a	ff	(unknown)  '.'
db2b	ff	(unknown)  '.'
db2c	ff	(unknown)  '.'
db2d	ff	(unknown)  '.'
db2e	ff	(unknown)  '.'
db2f	ff	(unknown)  '.'
db30	ff	(unknown)  '.'
db31	ff	(unknown)  '.'
db32	ff	(unknown)  '.'
db33	ff	(unknown)  '.'
db34	ff	(unknown)  '.'
db35	ff	(unknown)  '.'
db36	ff	(unknown)  '.'
db37	ff	(unknown)  '.'
db38	ff	(unknown)  '.'
db39	ff	(unknown)  '.'
db3a	ff	(unknown)  '.'
db3b	ff	(unknown)  '.'
db3c	ff	(unknown)  '.'
db3d	ff	(unknown)  '.'
db3e	ff	(unknown)  '.'
db3f	ff	(unknown)  '.'
db40	ff	(unknown)  '.'
db41	ff	(unknown)  '.'
db42	ff	(unknown)  '.'
db43	ff	(unknown)  '.'
db44	ff	(unknown)  '.'
db45	ff	(unknown)  '.'
db46	ff	(unknown)  '.'
db47	ff	(unknown)  '.'
db48	ff	(unknown)  '.'
db49	ff	(unknown)  '.'
db4a	ff	(unknown)  '.'
db4b	ff	(unknown)  '.'
db4c	ff	(unknown)  '.'
db4d	ff	(unknown)  '.'
db4e	ff	(unknown)  '.'
db4f	ff	(unknown)  '.'
db50	ff	(unknown)  '.'
db51	ff	(unknown)  '.'
db52	ff	(unknown)  '.'
db53	ff	(unknown)  '.'
db54	ff	(unknown)  '.'
db55	ff	(unknown)  '.'
db56	ff	(unknown)  '.'
db57	ff	(unknown)  '.'
db58	ff	(unknown)  '.'
db59	ff	(unknown)  '.'
db5a	ff	(unknown)  '.'
db5b	ff	(unknown)  '.'
db5c	ff	(unknown)  '.'
db5d	ff	(unknown)  '.'
db5e	ff	(unknown)  '.'
db5f	ff	(unknown)  '.'
db60	ff	(unknown)  '.'
db61	ff	(unknown)  '.'
db62	ff	(unknown)  '.'
db63	ff	(unknown)  '.'
db64	ff	(unknown)  '.'
db65	ff	(unknown)  '.'
db66	ff	(unknown)  '.'
db67	ff	(unknown)  '.'
db68	ff	(unknown)  '.'
db69	ff	(unknown)  '.'
db6a	ff	(unknown)  '.'
db6b	ff	(unknown)  '.'
db6c	ff	(unknown)  '.'
db6d	ff	(unknown)  '.'
db6e	ff	(unknown)  '.'
db6f	ff	(unknown)  '.'
db70	ff	(unknown)  '.'
db71	ff	(unknown)  '.'
db72	ff	(unknown)  '.'
db73	ff	(unknown)  '.'
db74	ff	(unknown)  '.'
db75	ff	(unknown)  '.'
db76	ff	(unknown)  '.'
db77	ff	(unknown)  '.'
db78	ff	(unknown)  '.'
db79	ff	(unknown)  '.'
db7a	ff	(unknown)  '.'
db7b	ff	(unknown)  '.'
db7c	ff	(unknown)  '.'
db7d	ff	(unknown)  '.'
db7e	ff	(unknown)  '.'
db7f	ff	(unknown)  '.'
db80	ff	(unknown)  '.'
db81	ff	(unknown)  '.'
db82	ff	(unknown)  '.'
db83	ff	(unknown)  '.'
db84	ff	(unknown)  '.'
db85	ff	(unknown)  '.'
db86	ff	(unknown)  '.'
db87	ff	(unknown)  '.'
db88	ff	(unknown)  '.'
db89	ff	(unknown)  '.'
db8a	ff	(unknown)  '.'
db8b	ff	(unknown)  '.'
db8c	ff	(unknown)  '.'
db8d	ff	(unknown)  '.'
db8e	ff	(unknown)  '.'
db8f	ff	(unknown)  '.'
db90	ff	(unknown)  '.'
db91	ff	(unknown)  '.'
db92	ff	(unknown)  '.'
db93	ff	(unknown)  '.'
db94	ff	(unknown)  '.'
db95	ff	(unknown)  '.'
db96	ff	(unknown)  '.'
db97	ff	(unknown)  '.'
db98	ff	(unknown)  '.'
db99	ff	(unknown)  '.'
db9a	ff	(unknown)  '.'
db9b	ff	(unknown)  '.'
db9c	ff	(unknown)  '.'
db9d	ff	(unknown)  '.'
db9e	ff	(unknown)  '.'
db9f	ff	(unknown)  '.'
dba0	ff	(unknown)  '.'
dba1	ff	(unknown)  '.'
dba2	ff	(unknown)  '.'
dba3	ff	(unknown)  '.'
dba4	ff	(unknown)  '.'
dba5	ff	(unknown)  '.'
dba6	ff	(unknown)  '.'
dba7	ff	(unknown)  '.'
dba8	ff	(unknown)  '.'
dba9	ff	(unknown)  '.'
dbaa	ff	(unknown)  '.'
dbab	ff	(unknown)  '.'
dbac	ff	(unknown)  '.'
dbad	ff	(unknown)  '.'
dbae	ff	(unknown)  '.'
dbaf	ff	(unknown)  '.'
dbb0	ff	(unknown)  '.'
dbb1	ff	(unknown)  '.'
dbb2	ff	(unknown)  '.'
dbb3	ff	(unknown)  '.'
dbb4	ff	(unknown)  '.'
dbb5	ff	(unknown)  '.'
dbb6	ff	(unknown)  '.'
dbb7	ff	(unknown)  '.'
dbb8	ff	(unknown)  '.'
dbb9	ff	(unknown)  '.'
dbba	ff	(unknown)  '.'
dbbb	ff	(unknown)  '.'
dbbc	ff	(unknown)  '.'
dbbd	ff	(unknown)  '.'
dbbe	ff	(unknown)  '.'
dbbf	ff	(unknown)  '.'
dbc0	ff	(unknown)  '.'
dbc1	ff	(unknown)  '.'
dbc2	ff	(unknown)  '.'
dbc3	ff	(unknown)  '.'
dbc4	ff	(unknown)  '.'
dbc5	ff	(unknown)  '.'
dbc6	ff	(unknown)  '.'
dbc7	ff	(unknown)  '.'
dbc8	ff	(unknown)  '.'
dbc9	ff	(unknown)  '.'
dbca	ff	(unknown)  '.'
dbcb	ff	(unknown)  '.'
dbcc	ff	(unknown)  '.'
dbcd	ff	(unknown)  '.'
dbce	ff	(unknown)  '.'
dbcf	ff	(unknown)  '.'
dbd0	ff	(unknown)  '.'
dbd1	ff	(unknown)  '.'
dbd2	ff	(unknown)  '.'
dbd3	ff	(unknown)  '.'
dbd4	ff	(unknown)  '.'
dbd5	ff	(unknown)  '.'
dbd6	ff	(unknown)  '.'
dbd7	ff	(unknown)  '.'
dbd8	ff	(unknown)  '.'
dbd9	ff	(unknown)  '.'
dbda	ff	(unknown)  '.'
dbdb	ff	(unknown)  '.'
dbdc	ff	(unknown)  '.'
dbdd	ff	(unknown)  '.'
dbde	ff	(unknown)  '.'
dbdf	ff	(unknown)  '.'
dbe0	ff	(unknown)  '.'
dbe1	ff	(unknown)  '.'
dbe2	ff	(unknown)  '.'
dbe3	ff	(unknown)  '.'
dbe4	ff	(unknown)  '.'
dbe5	ff	(unknown)  '.'
dbe6	ff	(unknown)  '.'
dbe7	ff	(unknown)  '.'
dbe8	ff	(unknown)  '.'
dbe9	ff	(unknown)  '.'
dbea	ff	(unknown)  '.'
dbeb	ff	(unknown)  '.'
dbec	ff	(unknown)  '.'
dbed	ff	(unknown)  '.'
dbee	ff	(unknown)  '.'
dbef	ff	(unknown)  '.'
dbf0	ff	(unknown)  '.'
dbf1	ff	(unknown)  '.'
dbf2	ff	(unknown)  '.'
dbf3	ff	(unknown)  '.'
dbf4	ff	(unknown)  '.'
dbf5	ff	(unknown)  '.'
dbf6	ff	(unknown)  '.'
dbf7	ff	(unknown)  '.'
dbf8	ff	(unknown)  '.'
dbf9	ff	(unknown)  '.'
dbfa	ff	(unknown)  '.'
dbfb	ff	(unknown)  '.'
dbfc	ff	(unknown)  '.'
dbfd	ff	(unknown)  '.'
dbfe	ff	(unknown)  '.'
dbff	ff	(unknown)  '.'
dc00	ff	(unknown)  '.'
dc01	ff	(unknown)  '.'
dc02	ff	(unknown)  '.'
dc03	ff	(unknown)  '.'
dc04	ff	(unknown)  '.'
dc05	ff	(unknown)  '.'
dc06	ff	(unknown)  '.'
dc07	ff	(unknown)  '.'
dc08	ff	(unknown)  '.'
dc09	ff	(unknown)  '.'
dc0a	ff	(unknown)  '.'
dc0b	ff	(unknown)  '.'
dc0c	ff	(unknown)  '.'
dc0d	ff	(unknown)  '.'
dc0e	ff	(unknown)  '.'
dc0f	ff	(unknown)  '.'
dc10	ff	(unknown)  '.'
dc11	ff	(unknown)  '.'
dc12	ff	(unknown)  '.'
dc13	ff	(unknown)  '.'
dc14	ff	(unknown)  '.'
dc15	ff	(unknown)  '.'
dc16	ff	(unknown)  '.'
dc17	ff	(unknown)  '.'
dc18	ff	(unknown)  '.'
dc19	ff	(unknown)  '.'
dc1a	ff	(unknown)  '.'
dc1b	ff	(unknown)  '.'
dc1c	ff	(unknown)  '.'
dc1d	ff	(unknown)  '.'
dc1e	ff	(unknown)  '.'
dc1f	ff	(unknown)  '.'
dc20	ff	(unknown)  '.'
dc21	ff	(unknown)  '.'
dc22	ff	(unknown)  '.'
dc23	ff	(unknown)  '.'
dc24	ff	(unknown)  '.'
dc25	ff	(unknown)  '.'
dc26	ff	(unknown)  '.'
dc27	ff	(unknown)  '.'
dc28	ff	(unknown)  '.'
dc29	ff	(unknown)  '.'
dc2a	ff	(unknown)  '.'
dc2b	ff	(unknown)  '.'
dc2c	ff	(unknown)  '.'
dc2d	ff	(unknown)  '.'
dc2e	ff	(unknown)  '.'
dc2f	ff	(unknown)  '.'
dc30	ff	(unknown)  '.'
dc31	ff	(unknown)  '.'
dc32	ff	(unknown)  '.'
dc33	ff	(unknown)  '.'
dc34	ff	(unknown)  '.'
dc35	ff	(unknown)  '.'
dc36	ff	(unknown)  '.'
dc37	ff	(unknown)  '.'
dc38	ff	(unknown)  '.'
dc39	ff	(unknown)  '.'
dc3a	ff	(unknown)  '.'
dc3b	ff	(unknown)  '.'
dc3c	ff	(unknown)  '.'
dc3d	ff	(unknown)  '.'
dc3e	ff	(unknown)  '.'
dc3f	ff	(unknown)  '.'
dc40	ff	(unknown)  '.'
dc41	ff	(unknown)  '.'
dc42	ff	(unknown)  '.'
dc43	ff	(unknown)  '.'
dc44	ff	(unknown)  '.'
dc45	ff	(unknown)  '.'
dc46	ff	(unknown)  '.'
dc47	ff	(unknown)  '.'
dc48	ff	(unknown)  '.'
dc49	ff	(unknown)  '.'
dc4a	ff	(unknown)  '.'
dc4b	ff	(unknown)  '.'
dc4c	ff	(unknown)  '.'
dc4d	ff	(unknown)  '.'
dc4e	ff	(unknown)  '.'
dc4f	ff	(unknown)  '.'
dc50	ff	(unknown)  '.'
dc51	ff	(unknown)  '.'
dc52	ff	(unknown)  '.'
dc53	ff	(unknown)  '.'
dc54	ff	(unknown)  '.'
dc55	ff	(unknown)  '.'
dc56	ff	(unknown)  '.'
dc57	ff	(unknown)  '.'
dc58	ff	(unknown)  '.'
dc59	ff	(unknown)  '.'
dc5a	ff	(unknown)  '.'
dc5b	ff	(unknown)  '.'
dc5c	ff	(unknown)  '.'
dc5d	ff	(unknown)  '.'
dc5e	ff	(unknown)  '.'
dc5f	ff	(unknown)  '.'
dc60	ff	(unknown)  '.'
dc61	ff	(unknown)  '.'
dc62	ff	(unknown)  '.'
dc63	ff	(unknown)  '.'
dc64	ff	(unknown)  '.'
dc65	ff	(unknown)  '.'
dc66	ff	(unknown)  '.'
dc67	ff	(unknown)  '.'
dc68	ff	(unknown)  '.'
dc69	ff	(unknown)  '.'
dc6a	ff	(unknown)  '.'
dc6b	ff	(unknown)  '.'
dc6c	ff	(unknown)  '.'
dc6d	ff	(unknown)  '.'
dc6e	ff	(unknown)  '.'
dc6f	ff	(unknown)  '.'
dc70	ff	(unknown)  '.'
dc71	ff	(unknown)  '.'
dc72	ff	(unknown)  '.'
dc73	ff	(unknown)  '.'
dc74	ff	(unknown)  '.'
dc75	ff	(unknown)  '.'
dc76	ff	(unknown)  '.'
dc77	ff	(unknown)  '.'
dc78	ff	(unknown)  '.'
dc79	ff	(unknown)  '.'
dc7a	ff	(unknown)  '.'
dc7b	ff	(unknown)  '.'
dc7c	ff	(unknown)  '.'
dc7d	ff	(unknown)  '.'
dc7e	ff	(unknown)  '.'
dc7f	ff	(unknown)  '.'
dc80	ff	(unknown)  '.'
dc81	ff	(unknown)  '.'
dc82	ff	(unknown)  '.'
dc83	ff	(unknown)  '.'
dc84	ff	(unknown)  '.'
dc85	ff	(unknown)  '.'
dc86	ff	(unknown)  '.'
dc87	ff	(unknown)  '.'
dc88	ff	(unknown)  '.'
dc89	ff	(unknown)  '.'
dc8a	ff	(unknown)  '.'
dc8b	ff	(unknown)  '.'
dc8c	ff	(unknown)  '.'
dc8d	ff	(unknown)  '.'
dc8e	ff	(unknown)  '.'
dc8f	ff	(unknown)  '.'
dc90	ff	(unknown)  '.'
dc91	ff	(unknown)  '.'
dc92	ff	(unknown)  '.'
dc93	ff	(unknown)  '.'
dc94	ff	(unknown)  '.'
dc95	ff	(unknown)  '.'
dc96	ff	(unknown)  '.'
dc97	ff	(unknown)  '.'
dc98	ff	(unknown)  '.'
dc99	ff	(unknown)  '.'
dc9a	ff	(unknown)  '.'
dc9b	ff	(unknown)  '.'
dc9c	ff	(unknown)  '.'
dc9d	ff	(unknown)  '.'
dc9e	ff	(unknown)  '.'
dc9f	ff	(unknown)  '.'
dca0	ff	(unknown)  '.'
dca1	ff	(unknown)  '.'
dca2	ff	(unknown)  '.'
dca3	ff	(unknown)  '.'
dca4	ff	(unknown)  '.'
dca5	ff	(unknown)  '.'
dca6	ff	(unknown)  '.'
dca7	ff	(unknown)  '.'
dca8	ff	(unknown)  '.'
dca9	ff	(unknown)  '.'
dcaa	ff	(unknown)  '.'
dcab	ff	(unknown)  '.'
dcac	ff	(unknown)  '.'
dcad	ff	(unknown)  '.'
dcae	ff	(unknown)  '.'
dcaf	ff	(unknown)  '.'
dcb0	ff	(unknown)  '.'
dcb1	ff	(unknown)  '.'
dcb2	ff	(unknown)  '.'
dcb3	ff	(unknown)  '.'
dcb4	ff	(unknown)  '.'
dcb5	ff	(unknown)  '.'
dcb6	ff	(unknown)  '.'
dcb7	ff	(unknown)  '.'
dcb8	ff	(unknown)  '.'
dcb9	ff	(unknown)  '.'
dcba	ff	(unknown)  '.'
dcbb	ff	(unknown)  '.'
dcbc	ff	(unknown)  '.'
dcbd	ff	(unknown)  '.'
dcbe	ff	(unknown)  '.'
dcbf	ff	(unknown)  '.'
dcc0	ff	(unknown)  '.'
dcc1	ff	(unknown)  '.'
dcc2	ff	(unknown)  '.'
dcc3	ff	(unknown)  '.'
dcc4	ff	(unknown)  '.'
dcc5	ff	(unknown)  '.'
dcc6	ff	(unknown)  '.'
dcc7	ff	(unknown)  '.'
dcc8	ff	(unknown)  '.'
dcc9	ff	(unknown)  '.'
dcca	ff	(unknown)  '.'
dccb	ff	(unknown)  '.'
dccc	ff	(unknown)  '.'
dccd	ff	(unknown)  '.'
dcce	ff	(unknown)  '.'
dccf	ff	(unknown)  '.'
dcd0	ff	(unknown)  '.'
dcd1	ff	(unknown)  '.'
dcd2	ff	(unknown)  '.'
dcd3	ff	(unknown)  '.'
dcd4	ff	(unknown)  '.'
dcd5	ff	(unknown)  '.'
dcd6	ff	(unknown)  '.'
dcd7	ff	(unknown)  '.'
dcd8	ff	(unknown)  '.'
dcd9	ff	(unknown)  '.'
dcda	ff	(unknown)  '.'
dcdb	ff	(unknown)  '.'
dcdc	ff	(unknown)  '.'
dcdd	ff	(unknown)  '.'
dcde	ff	(unknown)  '.'
dcdf	ff	(unknown)  '.'
dce0	ff	(unknown)  '.'
dce1	ff	(unknown)  '.'
dce2	ff	(unknown)  '.'
dce3	ff	(unknown)  '.'
dce4	ff	(unknown)  '.'
dce5	ff	(unknown)  '.'
dce6	ff	(unknown)  '.'
dce7	ff	(unknown)  '.'
dce8	ff	(unknown)  '.'
dce9	ff	(unknown)  '.'
dcea	ff	(unknown)  '.'
dceb	ff	(unknown)  '.'
dcec	ff	(unknown)  '.'
dced	ff	(unknown)  '.'
dcee	ff	(unknown)  '.'
dcef	ff	(unknown)  '.'
dcf0	ff	(unknown)  '.'
dcf1	ff	(unknown)  '.'
dcf2	ff	(unknown)  '.'
dcf3	ff	(unknown)  '.'
dcf4	ff	(unknown)  '.'
dcf5	ff	(unknown)  '.'
dcf6	ff	(unknown)  '.'
dcf7	ff	(unknown)  '.'
dcf8	ff	(unknown)  '.'
dcf9	ff	(unknown)  '.'
dcfa	ff	(unknown)  '.'
dcfb	ff	(unknown)  '.'
dcfc	ff	(unknown)  '.'
dcfd	ff	(unknown)  '.'
dcfe	ff	(unknown)  '.'
dcff	ff	(unknown)  '.'
dd00	ff	(unknown)  '.'
dd01	ff	(unknown)  '.'
dd02	ff	(unknown)  '.'
dd03	ff	(unknown)  '.'
dd04	ff	(unknown)  '.'
dd05	ff	(unknown)  '.'
dd06	ff	(unknown)  '.'
dd07	ff	(unknown)  '.'
dd08	ff	(unknown)  '.'
dd09	ff	(unknown)  '.'
dd0a	ff	(unknown)  '.'
dd0b	ff	(unknown)  '.'
dd0c	ff	(unknown)  '.'
dd0d	ff	(unknown)  '.'
dd0e	ff	(unknown)  '.'
dd0f	ff	(unknown)  '.'
dd10	ff	(unknown)  '.'
dd11	ff	(unknown)  '.'
dd12	ff	(unknown)  '.'
dd13	ff	(unknown)  '.'
dd14	ff	(unknown)  '.'
dd15	ff	(unknown)  '.'
dd16	ff	(unknown)  '.'
dd17	ff	(unknown)  '.'
dd18	ff	(unknown)  '.'
dd19	ff	(unknown)  '.'
dd1a	ff	(unknown)  '.'
dd1b	ff	(unknown)  '.'
dd1c	ff	(unknown)  '.'
dd1d	ff	(unknown)  '.'
dd1e	ff	(unknown)  '.'
dd1f	ff	(unknown)  '.'
dd20	ff	(unknown)  '.'
dd21	ff	(unknown)  '.'
dd22	ff	(unknown)  '.'
dd23	ff	(unknown)  '.'
dd24	ff	(unknown)  '.'
dd25	ff	(unknown)  '.'
dd26	ff	(unknown)  '.'
dd27	ff	(unknown)  '.'
dd28	ff	(unknown)  '.'
dd29	ff	(unknown)  '.'
dd2a	ff	(unknown)  '.'
dd2b	ff	(unknown)  '.'
dd2c	ff	(unknown)  '.'
dd2d	ff	(unknown)  '.'
dd2e	ff	(unknown)  '.'
dd2f	ff	(unknown)  '.'
dd30	ff	(unknown)  '.'
dd31	ff	(unknown)  '.'
dd32	ff	(unknown)  '.'
dd33	ff	(unknown)  '.'
dd34	ff	(unknown)  '.'
dd35	ff	(unknown)  '.'
dd36	ff	(unknown)  '.'
dd37	ff	(unknown)  '.'
dd38	ff	(unknown)  '.'
dd39	ff	(unknown)  '.'
dd3a	ff	(unknown)  '.'
dd3b	ff	(unknown)  '.'
dd3c	ff	(unknown)  '.'
dd3d	ff	(unknown)  '.'
dd3e	ff	(unknown)  '.'
dd3f	ff	(unknown)  '.'
dd40	ff	(unknown)  '.'
dd41	ff	(unknown)  '.'
dd42	ff	(unknown)  '.'
dd43	ff	(unknown)  '.'
dd44	ff	(unknown)  '.'
dd45	ff	(unknown)  '.'
dd46	ff	(unknown)  '.'
dd47	ff	(unknown)  '.'
dd48	ff	(unknown)  '.'
dd49	ff	(unknown)  '.'
dd4a	ff	(unknown)  '.'
dd4b	ff	(unknown)  '.'
dd4c	ff	(unknown)  '.'
dd4d	ff	(unknown)  '.'
dd4e	ff	(unknown)  '.'
dd4f	ff	(unknown)  '.'
dd50	ff	(unknown)  '.'
dd51	ff	(unknown)  '.'
dd52	ff	(unknown)  '.'
dd53	ff	(unknown)  '.'
dd54	ff	(unknown)  '.'
dd55	ff	(unknown)  '.'
dd56	ff	(unknown)  '.'
dd57	ff	(unknown)  '.'
dd58	ff	(unknown)  '.'
dd59	ff	(unknown)  '.'
dd5a	ff	(unknown)  '.'
dd5b	ff	(unknown)  '.'
dd5c	ff	(unknown)  '.'
dd5d	ff	(unknown)  '.'
dd5e	ff	(unknown)  '.'
dd5f	ff	(unknown)  '.'
dd60	ff	(unknown)  '.'
dd61	ff	(unknown)  '.'
dd62	ff	(unknown)  '.'
dd63	ff	(unknown)  '.'
dd64	ff	(unknown)  '.'
dd65	ff	(unknown)  '.'
dd66	ff	(unknown)  '.'
dd67	ff	(unknown)  '.'
dd68	ff	(unknown)  '.'
dd69	ff	(unknown)  '.'
dd6a	ff	(unknown)  '.'
dd6b	ff	(unknown)  '.'
dd6c	ff	(unknown)  '.'
dd6d	ff	(unknown)  '.'
dd6e	ff	(unknown)  '.'
dd6f	ff	(unknown)  '.'
dd70	ff	(unknown)  '.'
dd71	ff	(unknown)  '.'
dd72	ff	(unknown)  '.'
dd73	ff	(unknown)  '.'
dd74	ff	(unknown)  '.'
dd75	ff	(unknown)  '.'
dd76	ff	(unknown)  '.'
dd77	ff	(unknown)  '.'
dd78	ff	(unknown)  '.'
dd79	ff	(unknown)  '.'
dd7a	ff	(unknown)  '.'
dd7b	ff	(unknown)  '.'
dd7c	ff	(unknown)  '.'
dd7d	ff	(unknown)  '.'
dd7e	ff	(unknown)  '.'
dd7f	ff	(unknown)  '.'
dd80	ff	(unknown)  '.'
dd81	ff	(unknown)  '.'
dd82	ff	(unknown)  '.'
dd83	ff	(unknown)  '.'
dd84	ff	(unknown)  '.'
dd85	ff	(unknown)  '.'
dd86	ff	(unknown)  '.'
dd87	ff	(unknown)  '.'
dd88	ff	(unknown)  '.'
dd89	ff	(unknown)  '.'
dd8a	ff	(unknown)  '.'
dd8b	ff	(unknown)  '.'
dd8c	ff	(unknown)  '.'
dd8d	ff	(unknown)  '.'
dd8e	ff	(unknown)  '.'
dd8f	ff	(unknown)  '.'
dd90	ff	(unknown)  '.'
dd91	ff	(unknown)  '.'
dd92	ff	(unknown)  '.'
dd93	ff	(unknown)  '.'
dd94	ff	(unknown)  '.'
dd95	ff	(unknown)  '.'
dd96	ff	(unknown)  '.'
dd97	ff	(unknown)  '.'
dd98	ff	(unknown)  '.'
dd99	ff	(unknown)  '.'
dd9a	ff	(unknown)  '.'
dd9b	ff	(unknown)  '.'
dd9c	ff	(unknown)  '.'
dd9d	ff	(unknown)  '.'
dd9e	ff	(unknown)  '.'
dd9f	ff	(unknown)  '.'
dda0	ff	(unknown)  '.'
dda1	ff	(unknown)  '.'
dda2	ff	(unknown)  '.'
dda3	ff	(unknown)  '.'
dda4	ff	(unknown)  '.'
dda5	ff	(unknown)  '.'
dda6	ff	(unknown)  '.'
dda7	ff	(unknown)  '.'
dda8	ff	(unknown)  '.'
dda9	ff	(unknown)  '.'
ddaa	ff	(unknown)  '.'
ddab	ff	(unknown)  '.'
ddac	ff	(unknown)  '.'
ddad	ff	(unknown)  '.'
ddae	ff	(unknown)  '.'
ddaf	ff	(unknown)  '.'
ddb0	ff	(unknown)  '.'
ddb1	ff	(unknown)  '.'
ddb2	ff	(unknown)  '.'
ddb3	ff	(unknown)  '.'
ddb4	ff	(unknown)  '.'
ddb5	ff	(unknown)  '.'
ddb6	ff	(unknown)  '.'
ddb7	ff	(unknown)  '.'
ddb8	ff	(unknown)  '.'
ddb9	ff	(unknown)  '.'
ddba	ff	(unknown)  '.'
ddbb	ff	(unknown)  '.'
ddbc	ff	(unknown)  '.'
ddbd	ff	(unknown)  '.'
ddbe	ff	(unknown)  '.'
ddbf	ff	(unknown)  '.'
ddc0	ff	(unknown)  '.'
ddc1	ff	(unknown)  '.'
ddc2	ff	(unknown)  '.'
ddc3	ff	(unknown)  '.'
ddc4	ff	(unknown)  '.'
ddc5	ff	(unknown)  '.'
ddc6	ff	(unknown)  '.'
ddc7	ff	(unknown)  '.'
ddc8	ff	(unknown)  '.'
ddc9	ff	(unknown)  '.'
ddca	ff	(unknown)  '.'
ddcb	ff	(unknown)  '.'
ddcc	ff	(unknown)  '.'
ddcd	ff	(unknown)  '.'
ddce	ff	(unknown)  '.'
ddcf	ff	(unknown)  '.'
ddd0	ff	(unknown)  '.'
ddd1	ff	(unknown)  '.'
ddd2	ff	(unknown)  '.'
ddd3	ff	(unknown)  '.'
ddd4	ff	(unknown)  '.'
ddd5	ff	(unknown)  '.'
ddd6	ff	(unknown)  '.'
ddd7	ff	(unknown)  '.'
ddd8	ff	(unknown)  '.'
ddd9	ff	(unknown)  '.'
ddda	ff	(unknown)  '.'
dddb	ff	(unknown)  '.'
dddc	ff	(unknown)  '.'
dddd	ff	(unknown)  '.'
ddde	ff	(unknown)  '.'
dddf	ff	(unknown)  '.'
dde0	ff	(unknown)  '.'
dde1	ff	(unknown)  '.'
dde2	ff	(unknown)  '.'
dde3	ff	(unknown)  '.'
dde4	ff	(unknown)  '.'
dde5	ff	(unknown)  '.'
dde6	ff	(unknown)  '.'
dde7	ff	(unknown)  '.'
dde8	ff	(unknown)  '.'
dde9	ff	(unknown)  '.'
ddea	ff	(unknown)  '.'
ddeb	ff	(unknown)  '.'
ddec	ff	(unknown)  '.'
dded	ff	(unknown)  '.'
ddee	ff	(unknown)  '.'
ddef	ff	(unknown)  '.'
ddf0	ff	(unknown)  '.'
ddf1	ff	(unknown)  '.'
ddf2	ff	(unknown)  '.'
ddf3	ff	(unknown)  '.'
ddf4	ff	(unknown)  '.'
ddf5	ff	(unknown)  '.'
ddf6	ff	(unknown)  '.'
ddf7	ff	(unknown)  '.'
ddf8	ff	(unknown)  '.'
ddf9	ff	(unknown)  '.'
ddfa	ff	(unknown)  '.'
ddfb	ff	(unknown)  '.'
ddfc	ff	(unknown)  '.'
ddfd	ff	(unknown)  '.'
ddfe	ff	(unknown)  '.'
ddff	ff	(unknown)  '.'
de00	ff	(unknown)  '.'
de01	ff	(unknown)  '.'
de02	ff	(unknown)  '.'
de03	ff	(unknown)  '.'
de04	ff	(unknown)  '.'
de05	ff	(unknown)  '.'
de06	ff	(unknown)  '.'
de07	ff	(unknown)  '.'
de08	ff	(unknown)  '.'
de09	ff	(unknown)  '.'
de0a	ff	(unknown)  '.'
de0b	ff	(unknown)  '.'
de0c	ff	(unknown)  '.'
de0d	ff	(unknown)  '.'
de0e	ff	(unknown)  '.'
de0f	ff	(unknown)  '.'
de10	ff	(unknown)  '.'
de11	ff	(unknown)  '.'
de12	ff	(unknown)  '.'
de13	ff	(unknown)  '.'
de14	ff	(unknown)  '.'
de15	ff	(unknown)  '.'
de16	ff	(unknown)  '.'
de17	ff	(unknown)  '.'
de18	ff	(unknown)  '.'
de19	ff	(unknown)  '.'
de1a	ff	(unknown)  '.'
de1b	ff	(unknown)  '.'
de1c	ff	(unknown)  '.'
de1d	ff	(unknown)  '.'
de1e	ff	(unknown)  '.'
de1f	ff	(unknown)  '.'
de20	ff	(unknown)  '.'
de21	ff	(unknown)  '.'
de22	ff	(unknown)  '.'
de23	ff	(unknown)  '.'
de24	ff	(unknown)  '.'
de25	ff	(unknown)  '.'
de26	ff	(unknown)  '.'
de27	ff	(unknown)  '.'
de28	ff	(unknown)  '.'
de29	ff	(unknown)  '.'
de2a	ff	(unknown)  '.'
de2b	ff	(unknown)  '.'
de2c	ff	(unknown)  '.'
de2d	ff	(unknown)  '.'
de2e	ff	(unknown)  '.'
de2f	ff	(unknown)  '.'
de30	ff	(unknown)  '.'
de31	ff	(unknown)  '.'
de32	ff	(unknown)  '.'
de33	ff	(unknown)  '.'
de34	ff	(unknown)  '.'
de35	ff	(unknown)  '.'
de36	ff	(unknown)  '.'
de37	ff	(unknown)  '.'
de38	ff	(unknown)  '.'
de39	ff	(unknown)  '.'
de3a	ff	(unknown)  '.'
de3b	ff	(unknown)  '.'
de3c	ff	(unknown)  '.'
de3d	ff	(unknown)  '.'
de3e	ff	(unknown)  '.'
de3f	ff	(unknown)  '.'
de40	ff	(unknown)  '.'
de41	ff	(unknown)  '.'
de42	ff	(unknown)  '.'
de43	ff	(unknown)  '.'
de44	ff	(unknown)  '.'
de45	ff	(unknown)  '.'
de46	ff	(unknown)  '.'
de47	ff	(unknown)  '.'
de48	ff	(unknown)  '.'
de49	ff	(unknown)  '.'
de4a	ff	(unknown)  '.'
de4b	ff	(unknown)  '.'
de4c	ff	(unknown)  '.'
de4d	ff	(unknown)  '.'
de4e	ff	(unknown)  '.'
de4f	ff	(unknown)  '.'
de50	ff	(unknown)  '.'
de51	ff	(unknown)  '.'
de52	ff	(unknown)  '.'
de53	ff	(unknown)  '.'
de54	ff	(unknown)  '.'
de55	ff	(unknown)  '.'
de56	ff	(unknown)  '.'
de57	ff	(unknown)  '.'
de58	ff	(unknown)  '.'
de59	ff	(unknown)  '.'
de5a	ff	(unknown)  '.'
de5b	ff	(unknown)  '.'
de5c	ff	(unknown)  '.'
de5d	ff	(unknown)  '.'
de5e	ff	(unknown)  '.'
de5f	ff	(unknown)  '.'
de60	ff	(unknown)  '.'
de61	ff	(unknown)  '.'
de62	ff	(unknown)  '.'
de63	ff	(unknown)  '.'
de64	ff	(unknown)  '.'
de65	ff	(unknown)  '.'
de66	ff	(unknown)  '.'
de67	ff	(unknown)  '.'
de68	ff	(unknown)  '.'
de69	ff	(unknown)  '.'
de6a	ff	(unknown)  '.'
de6b	ff	(unknown)  '.'
de6c	ff	(unknown)  '.'
de6d	ff	(unknown)  '.'
de6e	ff	(unknown)  '.'
de6f	ff	(unknown)  '.'
de70	ff	(unknown)  '.'
de71	ff	(unknown)  '.'
de72	ff	(unknown)  '.'
de73	ff	(unknown)  '.'
de74	ff	(unknown)  '.'
de75	ff	(unknown)  '.'
de76	ff	(unknown)  '.'
de77	ff	(unknown)  '.'
de78	ff	(unknown)  '.'
de79	ff	(unknown)  '.'
de7a	ff	(unknown)  '.'
de7b	ff	(unknown)  '.'
de7c	ff	(unknown)  '.'
de7d	ff	(unknown)  '.'
de7e	ff	(unknown)  '.'
de7f	ff	(unknown)  '.'
de80	ff	(unknown)  '.'
de81	ff	(unknown)  '.'
de82	ff	(unknown)  '.'
de83	ff	(unknown)  '.'
de84	ff	(unknown)  '.'
de85	ff	(unknown)  '.'
de86	ff	(unknown)  '.'
de87	ff	(unknown)  '.'
de88	ff	(unknown)  '.'
de89	ff	(unknown)  '.'
de8a	ff	(unknown)  '.'
de8b	ff	(unknown)  '.'
de8c	ff	(unknown)  '.'
de8d	ff	(unknown)  '.'
de8e	ff	(unknown)  '.'
de8f	ff	(unknown)  '.'
de90	ff	(unknown)  '.'
de91	ff	(unknown)  '.'
de92	ff	(unknown)  '.'
de93	ff	(unknown)  '.'
de94	ff	(unknown)  '.'
de95	ff	(unknown)  '.'
de96	ff	(unknown)  '.'
de97	ff	(unknown)  '.'
de98	ff	(unknown)  '.'
de99	ff	(unknown)  '.'
de9a	ff	(unknown)  '.'
de9b	ff	(unknown)  '.'
de9c	ff	(unknown)  '.'
de9d	ff	(unknown)  '.'
de9e	ff	(unknown)  '.'
de9f	ff	(unknown)  '.'
dea0	ff	(unknown)  '.'
dea1	ff	(unknown)  '.'
dea2	ff	(unknown)  '.'
dea3	ff	(unknown)  '.'
dea4	ff	(unknown)  '.'
dea5	ff	(unknown)  '.'
dea6	ff	(unknown)  '.'
dea7	ff	(unknown)  '.'
dea8	ff	(unknown)  '.'
dea9	ff	(unknown)  '.'
deaa	ff	(unknown)  '.'
deab	ff	(unknown)  '.'
deac	ff	(unknown)  '.'
dead	ff	(unknown)  '.'
deae	ff	(unknown)  '.'
deaf	ff	(unknown)  '.'
deb0	ff	(unknown)  '.'
deb1	ff	(unknown)  '.'
deb2	ff	(unknown)  '.'
deb3	ff	(unknown)  '.'
deb4	ff	(unknown)  '.'
deb5	ff	(unknown)  '.'
deb6	ff	(unknown)  '.'
deb7	ff	(unknown)  '.'
deb8	ff	(unknown)  '.'
deb9	ff	(unknown)  '.'
deba	ff	(unknown)  '.'
debb	ff	(unknown)  '.'
debc	ff	(unknown)  '.'
debd	ff	(unknown)  '.'
debe	ff	(unknown)  '.'
debf	ff	(unknown)  '.'
dec0	ff	(unknown)  '.'
dec1	ff	(unknown)  '.'
dec2	ff	(unknown)  '.'
dec3	ff	(unknown)  '.'
dec4	ff	(unknown)  '.'
dec5	ff	(unknown)  '.'
dec6	ff	(unknown)  '.'
dec7	ff	(unknown)  '.'
dec8	ff	(unknown)  '.'
dec9	ff	(unknown)  '.'
deca	ff	(unknown)  '.'
decb	ff	(unknown)  '.'
decc	ff	(unknown)  '.'
decd	ff	(unknown)  '.'
dece	ff	(unknown)  '.'
decf	ff	(unknown)  '.'
ded0	ff	(unknown)  '.'
ded1	ff	(unknown)  '.'
ded2	ff	(unknown)  '.'
ded3	ff	(unknown)  '.'
ded4	ff	(unknown)  '.'
ded5	ff	(unknown)  '.'
ded6	ff	(unknown)  '.'
ded7	ff	(unknown)  '.'
ded8	ff	(unknown)  '.'
ded9	ff	(unknown)  '.'
deda	ff	(unknown)  '.'
dedb	ff	(unknown)  '.'
dedc	ff	(unknown)  '.'
dedd	ff	(unknown)  '.'
dede	ff	(unknown)  '.'
dedf	ff	(unknown)  '.'
dee0	ff	(unknown)  '.'
dee1	ff	(unknown)  '.'
dee2	ff	(unknown)  '.'
dee3	ff	(unknown)  '.'
dee4	ff	(unknown)  '.'
dee5	ff	(unknown)  '.'
dee6	ff	(unknown)  '.'
dee7	ff	(unknown)  '.'
dee8	ff	(unknown)  '.'
dee9	ff	(unknown)  '.'
deea	ff	(unknown)  '.'
deeb	ff	(unknown)  '.'
deec	ff	(unknown)  '.'
deed	ff	(unknown)  '.'
deee	ff	(unknown)  '.'
deef	ff	(unknown)  '.'
def0	ff	(unknown)  '.'
def1	ff	(unknown)  '.'
def2	ff	(unknown)  '.'
def3	ff	(unknown)  '.'
def4	ff	(unknown)  '.'
def5	ff	(unknown)  '.'
def6	ff	(unknown)  '.'
def7	ff	(unknown)  '.'
def8	ff	(unknown)  '.'
def9	ff	(unknown)  '.'
defa	ff	(unknown)  '.'
defb	ff	(unknown)  '.'
defc	ff	(unknown)  '.'
defd	ff	(unknown)  '.'
defe	ff	(unknown)  '.'
deff	ff	(unknown)  '.'
df00	ff	(unknown)  '.'
df01	ff	(unknown)  '.'
df02	ff	(unknown)  '.'
df03	ff	(unknown)  '.'
df04	ff	(unknown)  '.'
df05	ff	(unknown)  '.'
df06	ff	(unknown)  '.'
df07	ff	(unknown)  '.'
df08	ff	(unknown)  '.'
df09	ff	(unknown)  '.'
df0a	ff	(unknown)  '.'
df0b	ff	(unknown)  '.'
df0c	ff	(unknown)  '.'
df0d	ff	(unknown)  '.'
df0e	ff	(unknown)  '.'
df0f	ff	(unknown)  '.'
df10	ff	(unknown)  '.'
df11	ff	(unknown)  '.'
df12	ff	(unknown)  '.'
df13	ff	(unknown)  '.'
df14	ff	(unknown)  '.'
df15	ff	(unknown)  '.'
df16	ff	(unknown)  '.'
df17	ff	(unknown)  '.'
df18	ff	(unknown)  '.'
df19	ff	(unknown)  '.'
df1a	ff	(unknown)  '.'
df1b	ff	(unknown)  '.'
df1c	ff	(unknown)  '.'
df1d	ff	(unknown)  '.'
df1e	ff	(unknown)  '.'
df1f	ff	(unknown)  '.'
df20	ff	(unknown)  '.'
df21	ff	(unknown)  '.'
df22	ff	(unknown)  '.'
df23	ff	(unknown)  '.'
df24	ff	(unknown)  '.'
df25	ff	(unknown)  '.'
df26	ff	(unknown)  '.'
df27	ff	(unknown)  '.'
df28	ff	(unknown)  '.'
df29	ff	(unknown)  '.'
df2a	ff	(unknown)  '.'
df2b	ff	(unknown)  '.'
df2c	ff	(unknown)  '.'
df2d	ff	(unknown)  '.'
df2e	ff	(unknown)  '.'
df2f	ff	(unknown)  '.'
df30	ff	(unknown)  '.'
df31	ff	(unknown)  '.'
df32	ff	(unknown)  '.'
df33	ff	(unknown)  '.'
df34	ff	(unknown)  '.'
df35	ff	(unknown)  '.'
df36	ff	(unknown)  '.'
df37	ff	(unknown)  '.'
df38	ff	(unknown)  '.'
df39	ff	(unknown)  '.'
df3a	ff	(unknown)  '.'
df3b	ff	(unknown)  '.'
df3c	ff	(unknown)  '.'
df3d	ff	(unknown)  '.'
df3e	ff	(unknown)  '.'
df3f	ff	(unknown)  '.'
df40	ff	(unknown)  '.'
df41	ff	(unknown)  '.'
df42	ff	(unknown)  '.'
df43	ff	(unknown)  '.'
df44	ff	(unknown)  '.'
df45	ff	(unknown)  '.'
df46	ff	(unknown)  '.'
df47	ff	(unknown)  '.'
df48	ff	(unknown)  '.'
df49	ff	(unknown)  '.'
df4a	ff	(unknown)  '.'
df4b	ff	(unknown)  '.'
df4c	ff	(unknown)  '.'
df4d	ff	(unknown)  '.'
df4e	ff	(unknown)  '.'
df4f	ff	(unknown)  '.'
df50	ff	(unknown)  '.'
df51	ff	(unknown)  '.'
df52	ff	(unknown)  '.'
df53	ff	(unknown)  '.'
df54	ff	(unknown)  '.'
df55	ff	(unknown)  '.'
df56	ff	(unknown)  '.'
df57	ff	(unknown)  '.'
df58	ff	(unknown)  '.'
df59	ff	(unknown)  '.'
df5a	ff	(unknown)  '.'
df5b	ff	(unknown)  '.'
df5c	ff	(unknown)  '.'
df5d	ff	(unknown)  '.'
df5e	ff	(unknown)  '.'
df5f	ff	(unknown)  '.'
df60	ff	(unknown)  '.'
df61	ff	(unknown)  '.'
df62	ff	(unknown)  '.'
df63	ff	(unknown)  '.'
df64	ff	(unknown)  '.'
df65	ff	(unknown)  '.'
df66	ff	(unknown)  '.'
df67	ff	(unknown)  '.'
df68	ff	(unknown)  '.'
df69	ff	(unknown)  '.'
df6a	ff	(unknown)  '.'
df6b	ff	(unknown)  '.'
df6c	ff	(unknown)  '.'
df6d	ff	(unknown)  '.'
df6e	ff	(unknown)  '.'
df6f	ff	(unknown)  '.'
df70	ff	(unknown)  '.'
df71	ff	(unknown)  '.'
df72	ff	(unknown)  '.'
df73	ff	(unknown)  '.'
df74	ff	(unknown)  '.'
df75	ff	(unknown)  '.'
df76	ff	(unknown)  '.'
df77	ff	(unknown)  '.'
df78	ff	(unknown)  '.'
df79	ff	(unknown)  '.'
df7a	ff	(unknown)  '.'
df7b	ff	(unknown)  '.'
df7c	ff	(unknown)  '.'
df7d	ff	(unknown)  '.'
df7e	ff	(unknown)  '.'
df7f	ff	(unknown)  '.'
df80	ff	(unknown)  '.'
df81	ff	(unknown)  '.'
df82	ff	(unknown)  '.'
df83	ff	(unknown)  '.'
df84	ff	(unknown)  '.'
df85	ff	(unknown)  '.'
df86	ff	(unknown)  '.'
df87	ff	(unknown)  '.'
df88	ff	(unknown)  '.'
df89	ff	(unknown)  '.'
df8a	ff	(unknown)  '.'
df8b	ff	(unknown)  '.'
df8c	ff	(unknown)  '.'
df8d	ff	(unknown)  '.'
df8e	ff	(unknown)  '.'
df8f	ff	(unknown)  '.'
df90	ff	(unknown)  '.'
df91	ff	(unknown)  '.'
df92	ff	(unknown)  '.'
df93	ff	(unknown)  '.'
df94	ff	(unknown)  '.'
df95	ff	(unknown)  '.'
df96	ff	(unknown)  '.'
df97	ff	(unknown)  '.'
df98	ff	(unknown)  '.'
df99	ff	(unknown)  '.'
df9a	ff	(unknown)  '.'
df9b	ff	(unknown)  '.'
df9c	ff	(unknown)  '.'
df9d	ff	(unknown)  '.'
df9e	ff	(unknown)  '.'
df9f	ff	(unknown)  '.'
dfa0	ff	(unknown)  '.'
dfa1	ff	(unknown)  '.'
dfa2	ff	(unknown)  '.'
dfa3	ff	(unknown)  '.'
dfa4	ff	(unknown)  '.'
dfa5	ff	(unknown)  '.'
dfa6	ff	(unknown)  '.'
dfa7	ff	(unknown)  '.'
dfa8	ff	(unknown)  '.'
dfa9	ff	(unknown)  '.'
dfaa	ff	(unknown)  '.'
dfab	ff	(unknown)  '.'
dfac	ff	(unknown)  '.'
dfad	ff	(unknown)  '.'
dfae	ff	(unknown)  '.'
dfaf	ff	(unknown)  '.'
dfb0	ff	(unknown)  '.'
dfb1	ff	(unknown)  '.'
dfb2	ff	(unknown)  '.'
dfb3	ff	(unknown)  '.'
dfb4	ff	(unknown)  '.'
dfb5	ff	(unknown)  '.'
dfb6	ff	(unknown)  '.'
dfb7	ff	(unknown)  '.'
dfb8	ff	(unknown)  '.'
dfb9	ff	(unknown)  '.'
dfba	ff	(unknown)  '.'
dfbb	ff	(unknown)  '.'
dfbc	ff	(unknown)  '.'
dfbd	ff	(unknown)  '.'
dfbe	ff	(unknown)  '.'
dfbf	ff	(unknown)  '.'
dfc0	ff	(unknown)  '.'
dfc1	ff	(unknown)  '.'
dfc2	ff	(unknown)  '.'
dfc3	ff	(unknown)  '.'
dfc4	ff	(unknown)  '.'
dfc5	ff	(unknown)  '.'
dfc6	ff	(unknown)  '.'
dfc7	ff	(unknown)  '.'
dfc8	ff	(unknown)  '.'
dfc9	ff	(unknown)  '.'
dfca	ff	(unknown)  '.'
dfcb	ff	(unknown)  '.'
dfcc	ff	(unknown)  '.'
dfcd	ff	(unknown)  '.'
dfce	ff	(unknown)  '.'
dfcf	ff	(unknown)  '.'
dfd0	ff	(unknown)  '.'
dfd1	ff	(unknown)  '.'
dfd2	ff	(unknown)  '.'
dfd3	ff	(unknown)  '.'
dfd4	ff	(unknown)  '.'
dfd5	ff	(unknown)  '.'
dfd6	ff	(unknown)  '.'
dfd7	ff	(unknown)  '.'
dfd8	ff	(unknown)  '.'
dfd9	ff	(unknown)  '.'
dfda	ff	(unknown)  '.'
dfdb	ff	(unknown)  '.'
dfdc	ff	(unknown)  '.'
dfdd	ff	(unknown)  '.'
dfde	ff	(unknown)  '.'
dfdf	ff	(unknown)  '.'
dfe0	ff	(unknown)  '.'
dfe1	ff	(unknown)  '.'
dfe2	ff	(unknown)  '.'
dfe3	ff	(unknown)  '.'
dfe4	ff	(unknown)  '.'
dfe5	ff	(unknown)  '.'
dfe6	ff	(unknown)  '.'
dfe7	ff	(unknown)  '.'
dfe8	ff	(unknown)  '.'
dfe9	ff	(unknown)  '.'
dfea	ff	(unknown)  '.'
dfeb	ff	(unknown)  '.'
dfec	ff	(unknown)  '.'
dfed	ff	(unknown)  '.'
dfee	ff	(unknown)  '.'
dfef	ff	(unknown)  '.'
dff0	ff	(unknown)  '.'
dff1	ff	(unknown)  '.'
dff2	ff	(unknown)  '.'
dff3	ff	(unknown)  '.'
dff4	ff	(unknown)  '.'
dff5	ff	(unknown)  '.'
dff6	ff	(unknown)  '.'
dff7	ff	(unknown)  '.'
dff8	ff	(unknown)  '.'
dff9	ff	(unknown)  '.'
dffa	ff	(unknown)  '.'
dffb	ff	(unknown)  '.'
dffc	ff	(unknown)  '.'
dffd	ff	(unknown)  '.'
dffe	ff	(unknown)  '.'
dfff	ff	(unknown)  '.'
e000	ff	(unknown)  '.'
e001	ff	(unknown)  '.'
e002	ff	(unknown)  '.'
e003	ff	(unknown)  '.'
e004	ff	(unknown)  '.'
e005	ff	(unknown)  '.'
e006	ff	(unknown)  '.'
e007	ff	(unknown)  '.'
e008	ff	(unknown)  '.'
e009	ff	(unknown)  '.'
e00a	ff	(unknown)  '.'
e00b	ff	(unknown)  '.'
e00c	ff	(unknown)  '.'
e00d	ff	(unknown)  '.'
e00e	ff	(unknown)  '.'
e00f	ff	(unknown)  '.'
e010	ff	(unknown)  '.'
e011	ff	(unknown)  '.'
e012	ff	(unknown)  '.'
e013	ff	(unknown)  '.'
e014	ff	(unknown)  '.'
e015	ff	(unknown)  '.'
e016	ff	(unknown)  '.'
e017	ff	(unknown)  '.'
e018	ff	(unknown)  '.'
e019	ff	(unknown)  '.'
e01a	ff	(unknown)  '.'
e01b	ff	(unknown)  '.'
e01c	ff	(unknown)  '.'
e01d	ff	(unknown)  '.'
e01e	ff	(unknown)  '.'
e01f	ff	(unknown)  '.'
e020	ff	(unknown)  '.'
e021	ff	(unknown)  '.'
e022	ff	(unknown)  '.'
e023	ff	(unknown)  '.'
e024	ff	(unknown)  '.'
e025	ff	(unknown)  '.'
e026	ff	(unknown)  '.'
e027	ff	(unknown)  '.'
e028	ff	(unknown)  '.'
e029	ff	(unknown)  '.'
e02a	ff	(unknown)  '.'
e02b	ff	(unknown)  '.'
e02c	ff	(unknown)  '.'
e02d	ff	(unknown)  '.'
e02e	ff	(unknown)  '.'
e02f	ff	(unknown)  '.'
e030	ff	(unknown)  '.'
e031	ff	(unknown)  '.'
e032	ff	(unknown)  '.'
e033	ff	(unknown)  '.'
e034	ff	(unknown)  '.'
e035	ff	(unknown)  '.'
e036	ff	(unknown)  '.'
e037	ff	(unknown)  '.'
e038	ff	(unknown)  '.'
e039	ff	(unknown)  '.'
e03a	ff	(unknown)  '.'
e03b	ff	(unknown)  '.'
e03c	ff	(unknown)  '.'
e03d	ff	(unknown)  '.'
e03e	ff	(unknown)  '.'
e03f	ff	(unknown)  '.'
e040	ff	(unknown)  '.'
e041	ff	(unknown)  '.'
e042	ff	(unknown)  '.'
e043	ff	(unknown)  '.'
e044	ff	(unknown)  '.'
e045	ff	(unknown)  '.'
e046	ff	(unknown)  '.'
e047	ff	(unknown)  '.'
e048	ff	(unknown)  '.'
e049	ff	(unknown)  '.'
e04a	ff	(unknown)  '.'
e04b	ff	(unknown)  '.'
e04c	ff	(unknown)  '.'
e04d	ff	(unknown)  '.'
e04e	ff	(unknown)  '.'
e04f	ff	(unknown)  '.'
e050	ff	(unknown)  '.'
e051	ff	(unknown)  '.'
e052	ff	(unknown)  '.'
e053	ff	(unknown)  '.'
e054	ff	(unknown)  '.'
e055	ff	(unknown)  '.'
e056	ff	(unknown)  '.'
e057	ff	(unknown)  '.'
e058	ff	(unknown)  '.'
e059	ff	(unknown)  '.'
e05a	ff	(unknown)  '.'
e05b	ff	(unknown)  '.'
e05c	ff	(unknown)  '.'
e05d	ff	(unknown)  '.'
e05e	ff	(unknown)  '.'
e05f	ff	(unknown)  '.'
e060	ff	(unknown)  '.'
e061	ff	(unknown)  '.'
e062	ff	(unknown)  '.'
e063	ff	(unknown)  '.'
e064	ff	(unknown)  '.'
e065	ff	(unknown)  '.'
e066	ff	(unknown)  '.'
e067	ff	(unknown)  '.'
e068	ff	(unknown)  '.'
e069	ff	(unknown)  '.'
e06a	ff	(unknown)  '.'
e06b	ff	(unknown)  '.'
e06c	ff	(unknown)  '.'
e06d	ff	(unknown)  '.'
e06e	ff	(unknown)  '.'
e06f	ff	(unknown)  '.'
e070	ff	(unknown)  '.'
e071	ff	(unknown)  '.'
e072	ff	(unknown)  '.'
e073	ff	(unknown)  '.'
e074	ff	(unknown)  '.'
e075	ff	(unknown)  '.'
e076	ff	(unknown)  '.'
e077	ff	(unknown)  '.'
e078	ff	(unknown)  '.'
e079	ff	(unknown)  '.'
e07a	ff	(unknown)  '.'
e07b	ff	(unknown)  '.'
e07c	ff	(unknown)  '.'
e07d	ff	(unknown)  '.'
e07e	ff	(unknown)  '.'
e07f	ff	(unknown)  '.'
e080	ff	(unknown)  '.'
e081	ff	(unknown)  '.'
e082	ff	(unknown)  '.'
e083	ff	(unknown)  '.'
e084	ff	(unknown)  '.'
e085	ff	(unknown)  '.'
e086	ff	(unknown)  '.'
e087	ff	(unknown)  '.'
e088	ff	(unknown)  '.'
e089	ff	(unknown)  '.'
e08a	ff	(unknown)  '.'
e08b	ff	(unknown)  '.'
e08c	ff	(unknown)  '.'
e08d	ff	(unknown)  '.'
e08e	ff	(unknown)  '.'
e08f	ff	(unknown)  '.'
e090	ff	(unknown)  '.'
e091	ff	(unknown)  '.'
e092	ff	(unknown)  '.'
e093	ff	(unknown)  '.'
e094	ff	(unknown)  '.'
e095	ff	(unknown)  '.'
e096	ff	(unknown)  '.'
e097	ff	(unknown)  '.'
e098	ff	(unknown)  '.'
e099	ff	(unknown)  '.'
e09a	ff	(unknown)  '.'
e09b	ff	(unknown)  '.'
e09c	ff	(unknown)  '.'
e09d	ff	(unknown)  '.'
e09e	ff	(unknown)  '.'
e09f	ff	(unknown)  '.'
e0a0	ff	(unknown)  '.'
e0a1	ff	(unknown)  '.'
e0a2	ff	(unknown)  '.'
e0a3	ff	(unknown)  '.'
e0a4	ff	(unknown)  '.'
e0a5	ff	(unknown)  '.'
e0a6	ff	(unknown)  '.'
e0a7	ff	(unknown)  '.'
e0a8	ff	(unknown)  '.'
e0a9	ff	(unknown)  '.'
e0aa	ff	(unknown)  '.'
e0ab	ff	(unknown)  '.'
e0ac	ff	(unknown)  '.'
e0ad	ff	(unknown)  '.'
e0ae	ff	(unknown)  '.'
e0af	ff	(unknown)  '.'
e0b0	ff	(unknown)  '.'
e0b1	ff	(unknown)  '.'
e0b2	ff	(unknown)  '.'
e0b3	ff	(unknown)  '.'
e0b4	ff	(unknown)  '.'
e0b5	ff	(unknown)  '.'
e0b6	ff	(unknown)  '.'
e0b7	ff	(unknown)  '.'
e0b8	ff	(unknown)  '.'
e0b9	ff	(unknown)  '.'
e0ba	ff	(unknown)  '.'
e0bb	ff	(unknown)  '.'
e0bc	ff	(unknown)  '.'
e0bd	ff	(unknown)  '.'
e0be	ff	(unknown)  '.'
e0bf	ff	(unknown)  '.'
e0c0	ff	(unknown)  '.'
e0c1	ff	(unknown)  '.'
e0c2	ff	(unknown)  '.'
e0c3	ff	(unknown)  '.'
e0c4	ff	(unknown)  '.'
e0c5	ff	(unknown)  '.'
e0c6	ff	(unknown)  '.'
e0c7	ff	(unknown)  '.'
e0c8	ff	(unknown)  '.'
e0c9	ff	(unknown)  '.'
e0ca	ff	(unknown)  '.'
e0cb	ff	(unknown)  '.'
e0cc	ff	(unknown)  '.'
e0cd	ff	(unknown)  '.'
e0ce	ff	(unknown)  '.'
e0cf	ff	(unknown)  '.'
e0d0	ff	(unknown)  '.'
e0d1	ff	(unknown)  '.'
e0d2	ff	(unknown)  '.'
e0d3	ff	(unknown)  '.'
e0d4	ff	(unknown)  '.'
e0d5	ff	(unknown)  '.'
e0d6	ff	(unknown)  '.'
e0d7	ff	(unknown)  '.'
e0d8	ff	(unknown)  '.'
e0d9	ff	(unknown)  '.'
e0da	ff	(unknown)  '.'
e0db	ff	(unknown)  '.'
e0dc	ff	(unknown)  '.'
e0dd	ff	(unknown)  '.'
e0de	ff	(unknown)  '.'
e0df	ff	(unknown)  '.'
e0e0	ff	(unknown)  '.'
e0e1	ff	(unknown)  '.'
e0e2	ff	(unknown)  '.'
e0e3	ff	(unknown)  '.'
e0e4	ff	(unknown)  '.'
e0e5	ff	(unknown)  '.'
e0e6	ff	(unknown)  '.'
e0e7	ff	(unknown)  '.'
e0e8	ff	(unknown)  '.'
e0e9	ff	(unknown)  '.'
e0ea	ff	(unknown)  '.'
e0eb	ff	(unknown)  '.'
e0ec	ff	(unknown)  '.'
e0ed	ff	(unknown)  '.'
e0ee	ff	(unknown)  '.'
e0ef	ff	(unknown)  '.'
e0f0	ff	(unknown)  '.'
e0f1	ff	(unknown)  '.'
e0f2	ff	(unknown)  '.'
e0f3	ff	(unknown)  '.'
e0f4	ff	(unknown)  '.'
e0f5	ff	(unknown)  '.'
e0f6	ff	(unknown)  '.'
e0f7	ff	(unknown)  '.'
e0f8	ff	(unknown)  '.'
e0f9	ff	(unknown)  '.'
e0fa	ff	(unknown)  '.'
e0fb	ff	(unknown)  '.'
e0fc	ff	(unknown)  '.'
e0fd	ff	(unknown)  '.'
e0fe	ff	(unknown)  '.'
e0ff	ff	(unknown)  '.'
e100	ff	(unknown)  '.'
e101	ff	(unknown)  '.'
e102	ff	(unknown)  '.'
e103	ff	(unknown)  '.'
e104	ff	(unknown)  '.'
e105	ff	(unknown)  '.'
e106	ff	(unknown)  '.'
e107	ff	(unknown)  '.'
e108	ff	(unknown)  '.'
e109	ff	(unknown)  '.'
e10a	ff	(unknown)  '.'
e10b	ff	(unknown)  '.'
e10c	ff	(unknown)  '.'
e10d	ff	(unknown)  '.'
e10e	ff	(unknown)  '.'
e10f	ff	(unknown)  '.'
e110	ff	(unknown)  '.'
e111	ff	(unknown)  '.'
e112	ff	(unknown)  '.'
e113	ff	(unknown)  '.'
e114	ff	(unknown)  '.'
e115	ff	(unknown)  '.'
e116	ff	(unknown)  '.'
e117	ff	(unknown)  '.'
e118	ff	(unknown)  '.'
e119	ff	(unknown)  '.'
e11a	ff	(unknown)  '.'
e11b	ff	(unknown)  '.'
e11c	ff	(unknown)  '.'
e11d	ff	(unknown)  '.'
e11e	ff	(unknown)  '.'
e11f	ff	(unknown)  '.'
e120	ff	(unknown)  '.'
e121	ff	(unknown)  '.'
e122	ff	(unknown)  '.'
e123	ff	(unknown)  '.'
e124	ff	(unknown)  '.'
e125	ff	(unknown)  '.'
e126	ff	(unknown)  '.'
e127	ff	(unknown)  '.'
e128	ff	(unknown)  '.'
e129	ff	(unknown)  '.'
e12a	ff	(unknown)  '.'
e12b	ff	(unknown)  '.'
e12c	ff	(unknown)  '.'
e12d	ff	(unknown)  '.'
e12e	ff	(unknown)  '.'
e12f	ff	(unknown)  '.'
e130	ff	(unknown)  '.'
e131	ff	(unknown)  '.'
e132	ff	(unknown)  '.'
e133	ff	(unknown)  '.'
e134	ff	(unknown)  '.'
e135	ff	(unknown)  '.'
e136	ff	(unknown)  '.'
e137	ff	(unknown)  '.'
e138	ff	(unknown)  '.'
e139	ff	(unknown)  '.'
e13a	ff	(unknown)  '.'
e13b	ff	(unknown)  '.'
e13c	ff	(unknown)  '.'
e13d	ff	(unknown)  '.'
e13e	ff	(unknown)  '.'
e13f	ff	(unknown)  '.'
e140	ff	(unknown)  '.'
e141	ff	(unknown)  '.'
e142	ff	(unknown)  '.'
e143	ff	(unknown)  '.'
e144	ff	(unknown)  '.'
e145	ff	(unknown)  '.'
e146	ff	(unknown)  '.'
e147	ff	(unknown)  '.'
e148	ff	(unknown)  '.'
e149	ff	(unknown)  '.'
e14a	ff	(unknown)  '.'
e14b	ff	(unknown)  '.'
e14c	ff	(unknown)  '.'
e14d	ff	(unknown)  '.'
e14e	ff	(unknown)  '.'
e14f	ff	(unknown)  '.'
e150	ff	(unknown)  '.'
e151	ff	(unknown)  '.'
e152	ff	(unknown)  '.'
e153	ff	(unknown)  '.'
e154	ff	(unknown)  '.'
e155	ff	(unknown)  '.'
e156	ff	(unknown)  '.'
e157	ff	(unknown)  '.'
e158	ff	(unknown)  '.'
e159	ff	(unknown)  '.'
e15a	ff	(unknown)  '.'
e15b	ff	(unknown)  '.'
e15c	ff	(unknown)  '.'
e15d	ff	(unknown)  '.'
e15e	ff	(unknown)  '.'
e15f	ff	(unknown)  '.'
e160	ff	(unknown)  '.'
e161	ff	(unknown)  '.'
e162	ff	(unknown)  '.'
e163	ff	(unknown)  '.'
e164	ff	(unknown)  '.'
e165	ff	(unknown)  '.'
e166	ff	(unknown)  '.'
e167	ff	(unknown)  '.'
e168	ff	(unknown)  '.'
e169	ff	(unknown)  '.'
e16a	ff	(unknown)  '.'
e16b	ff	(unknown)  '.'
e16c	ff	(unknown)  '.'
e16d	ff	(unknown)  '.'
e16e	ff	(unknown)  '.'
e16f	ff	(unknown)  '.'
e170	ff	(unknown)  '.'
e171	ff	(unknown)  '.'
e172	ff	(unknown)  '.'
e173	ff	(unknown)  '.'
e174	ff	(unknown)  '.'
e175	ff	(unknown)  '.'
e176	ff	(unknown)  '.'
e177	ff	(unknown)  '.'
e178	ff	(unknown)  '.'
e179	ff	(unknown)  '.'
e17a	ff	(unknown)  '.'
e17b	ff	(unknown)  '.'
e17c	ff	(unknown)  '.'
e17d	ff	(unknown)  '.'
e17e	ff	(unknown)  '.'
e17f	ff	(unknown)  '.'
e180	ff	(unknown)  '.'
e181	ff	(unknown)  '.'
e182	ff	(unknown)  '.'
e183	ff	(unknown)  '.'
e184	ff	(unknown)  '.'
e185	ff	(unknown)  '.'
e186	ff	(unknown)  '.'
e187	ff	(unknown)  '.'
e188	ff	(unknown)  '.'
e189	ff	(unknown)  '.'
e18a	ff	(unknown)  '.'
e18b	ff	(unknown)  '.'
e18c	ff	(unknown)  '.'
e18d	ff	(unknown)  '.'
e18e	ff	(unknown)  '.'
e18f	ff	(unknown)  '.'
e190	ff	(unknown)  '.'
e191	ff	(unknown)  '.'
e192	ff	(unknown)  '.'
e193	ff	(unknown)  '.'
e194	ff	(unknown)  '.'
e195	ff	(unknown)  '.'
e196	ff	(unknown)  '.'
e197	ff	(unknown)  '.'
e198	ff	(unknown)  '.'
e199	ff	(unknown)  '.'
e19a	ff	(unknown)  '.'
e19b	ff	(unknown)  '.'
e19c	ff	(unknown)  '.'
e19d	ff	(unknown)  '.'
e19e	ff	(unknown)  '.'
e19f	ff	(unknown)  '.'
e1a0	ff	(unknown)  '.'
e1a1	ff	(unknown)  '.'
e1a2	ff	(unknown)  '.'
e1a3	ff	(unknown)  '.'
e1a4	ff	(unknown)  '.'
e1a5	ff	(unknown)  '.'
e1a6	ff	(unknown)  '.'
e1a7	ff	(unknown)  '.'
e1a8	ff	(unknown)  '.'
e1a9	ff	(unknown)  '.'
e1aa	ff	(unknown)  '.'
e1ab	ff	(unknown)  '.'
e1ac	ff	(unknown)  '.'
e1ad	ff	(unknown)  '.'
e1ae	ff	(unknown)  '.'
e1af	ff	(unknown)  '.'
e1b0	ff	(unknown)  '.'
e1b1	ff	(unknown)  '.'
e1b2	ff	(unknown)  '.'
e1b3	ff	(unknown)  '.'
e1b4	ff	(unknown)  '.'
e1b5	ff	(unknown)  '.'
e1b6	ff	(unknown)  '.'
e1b7	ff	(unknown)  '.'
e1b8	ff	(unknown)  '.'
e1b9	ff	(unknown)  '.'
e1ba	ff	(unknown)  '.'
e1bb	ff	(unknown)  '.'
e1bc	ff	(unknown)  '.'
e1bd	ff	(unknown)  '.'
e1be	ff	(unknown)  '.'
e1bf	ff	(unknown)  '.'
e1c0	ff	(unknown)  '.'
e1c1	ff	(unknown)  '.'
e1c2	ff	(unknown)  '.'
e1c3	ff	(unknown)  '.'
e1c4	ff	(unknown)  '.'
e1c5	ff	(unknown)  '.'
e1c6	ff	(unknown)  '.'
e1c7	ff	(unknown)  '.'
e1c8	ff	(unknown)  '.'
e1c9	ff	(unknown)  '.'
e1ca	ff	(unknown)  '.'
e1cb	ff	(unknown)  '.'
e1cc	ff	(unknown)  '.'
e1cd	ff	(unknown)  '.'
e1ce	ff	(unknown)  '.'
e1cf	ff	(unknown)  '.'
e1d0	ff	(unknown)  '.'
e1d1	ff	(unknown)  '.'
e1d2	ff	(unknown)  '.'
e1d3	ff	(unknown)  '.'
e1d4	ff	(unknown)  '.'
e1d5	ff	(unknown)  '.'
e1d6	ff	(unknown)  '.'
e1d7	ff	(unknown)  '.'
e1d8	ff	(unknown)  '.'
e1d9	ff	(unknown)  '.'
e1da	ff	(unknown)  '.'
e1db	ff	(unknown)  '.'
e1dc	ff	(unknown)  '.'
e1dd	ff	(unknown)  '.'
e1de	ff	(unknown)  '.'
e1df	ff	(unknown)  '.'
e1e0	ff	(unknown)  '.'
e1e1	ff	(unknown)  '.'
e1e2	ff	(unknown)  '.'
e1e3	ff	(unknown)  '.'
e1e4	ff	(unknown)  '.'
e1e5	ff	(unknown)  '.'
e1e6	ff	(unknown)  '.'
e1e7	ff	(unknown)  '.'
e1e8	ff	(unknown)  '.'
e1e9	ff	(unknown)  '.'
e1ea	ff	(unknown)  '.'
e1eb	ff	(unknown)  '.'
e1ec	ff	(unknown)  '.'
e1ed	ff	(unknown)  '.'
e1ee	ff	(unknown)  '.'
e1ef	ff	(unknown)  '.'
e1f0	ff	(unknown)  '.'
e1f1	ff	(unknown)  '.'
e1f2	ff	(unknown)  '.'
e1f3	ff	(unknown)  '.'
e1f4	ff	(unknown)  '.'
e1f5	ff	(unknown)  '.'
e1f6	ff	(unknown)  '.'
e1f7	ff	(unknown)  '.'
e1f8	ff	(unknown)  '.'
e1f9	ff	(unknown)  '.'
e1fa	ff	(unknown)  '.'
e1fb	ff	(unknown)  '.'
e1fc	ff	(unknown)  '.'
e1fd	ff	(unknown)  '.'
e1fe	ff	(unknown)  '.'
e1ff	ff	(unknown)  '.'
e200	ff	(unknown)  '.'
e201	ff	(unknown)  '.'
e202	ff	(unknown)  '.'
e203	ff	(unknown)  '.'
e204	ff	(unknown)  '.'
e205	ff	(unknown)  '.'
e206	ff	(unknown)  '.'
e207	ff	(unknown)  '.'
e208	ff	(unknown)  '.'
e209	ff	(unknown)  '.'
e20a	ff	(unknown)  '.'
e20b	ff	(unknown)  '.'
e20c	ff	(unknown)  '.'
e20d	ff	(unknown)  '.'
e20e	ff	(unknown)  '.'
e20f	ff	(unknown)  '.'
e210	ff	(unknown)  '.'
e211	ff	(unknown)  '.'
e212	ff	(unknown)  '.'
e213	ff	(unknown)  '.'
e214	ff	(unknown)  '.'
e215	ff	(unknown)  '.'
e216	ff	(unknown)  '.'
e217	ff	(unknown)  '.'
e218	ff	(unknown)  '.'
e219	ff	(unknown)  '.'
e21a	ff	(unknown)  '.'
e21b	ff	(unknown)  '.'
e21c	ff	(unknown)  '.'
e21d	ff	(unknown)  '.'
e21e	ff	(unknown)  '.'
e21f	ff	(unknown)  '.'
e220	ff	(unknown)  '.'
e221	ff	(unknown)  '.'
e222	ff	(unknown)  '.'
e223	ff	(unknown)  '.'
e224	ff	(unknown)  '.'
e225	ff	(unknown)  '.'
e226	ff	(unknown)  '.'
e227	ff	(unknown)  '.'
e228	ff	(unknown)  '.'
e229	ff	(unknown)  '.'
e22a	ff	(unknown)  '.'
e22b	ff	(unknown)  '.'
e22c	ff	(unknown)  '.'
e22d	ff	(unknown)  '.'
e22e	ff	(unknown)  '.'
e22f	ff	(unknown)  '.'
e230	ff	(unknown)  '.'
e231	ff	(unknown)  '.'
e232	ff	(unknown)  '.'
e233	ff	(unknown)  '.'
e234	ff	(unknown)  '.'
e235	ff	(unknown)  '.'
e236	ff	(unknown)  '.'
e237	ff	(unknown)  '.'
e238	ff	(unknown)  '.'
e239	ff	(unknown)  '.'
e23a	ff	(unknown)  '.'
e23b	ff	(unknown)  '.'
e23c	ff	(unknown)  '.'
e23d	ff	(unknown)  '.'
e23e	ff	(unknown)  '.'
e23f	ff	(unknown)  '.'
e240	ff	(unknown)  '.'
e241	ff	(unknown)  '.'
e242	ff	(unknown)  '.'
e243	ff	(unknown)  '.'
e244	ff	(unknown)  '.'
e245	ff	(unknown)  '.'
e246	ff	(unknown)  '.'
e247	ff	(unknown)  '.'
e248	ff	(unknown)  '.'
e249	ff	(unknown)  '.'
e24a	ff	(unknown)  '.'
e24b	ff	(unknown)  '.'
e24c	ff	(unknown)  '.'
e24d	ff	(unknown)  '.'
e24e	ff	(unknown)  '.'
e24f	ff	(unknown)  '.'
e250	ff	(unknown)  '.'
e251	ff	(unknown)  '.'
e252	ff	(unknown)  '.'
e253	ff	(unknown)  '.'
e254	ff	(unknown)  '.'
e255	ff	(unknown)  '.'
e256	ff	(unknown)  '.'
e257	ff	(unknown)  '.'
e258	ff	(unknown)  '.'
e259	ff	(unknown)  '.'
e25a	ff	(unknown)  '.'
e25b	ff	(unknown)  '.'
e25c	ff	(unknown)  '.'
e25d	ff	(unknown)  '.'
e25e	ff	(unknown)  '.'
e25f	ff	(unknown)  '.'
e260	ff	(unknown)  '.'
e261	ff	(unknown)  '.'
e262	ff	(unknown)  '.'
e263	ff	(unknown)  '.'
e264	ff	(unknown)  '.'
e265	ff	(unknown)  '.'
e266	ff	(unknown)  '.'
e267	ff	(unknown)  '.'
e268	ff	(unknown)  '.'
e269	ff	(unknown)  '.'
e26a	ff	(unknown)  '.'
e26b	ff	(unknown)  '.'
e26c	ff	(unknown)  '.'
e26d	ff	(unknown)  '.'
e26e	ff	(unknown)  '.'
e26f	ff	(unknown)  '.'
e270	ff	(unknown)  '.'
e271	ff	(unknown)  '.'
e272	ff	(unknown)  '.'
e273	ff	(unknown)  '.'
e274	ff	(unknown)  '.'
e275	ff	(unknown)  '.'
e276	ff	(unknown)  '.'
e277	ff	(unknown)  '.'
e278	ff	(unknown)  '.'
e279	ff	(unknown)  '.'
e27a	ff	(unknown)  '.'
e27b	ff	(unknown)  '.'
e27c	ff	(unknown)  '.'
e27d	ff	(unknown)  '.'
e27e	ff	(unknown)  '.'
e27f	ff	(unknown)  '.'
e280	ff	(unknown)  '.'
e281	ff	(unknown)  '.'
e282	ff	(unknown)  '.'
e283	ff	(unknown)  '.'
e284	ff	(unknown)  '.'
e285	ff	(unknown)  '.'
e286	ff	(unknown)  '.'
e287	ff	(unknown)  '.'
e288	ff	(unknown)  '.'
e289	ff	(unknown)  '.'
e28a	ff	(unknown)  '.'
e28b	ff	(unknown)  '.'
e28c	ff	(unknown)  '.'
e28d	ff	(unknown)  '.'
e28e	ff	(unknown)  '.'
e28f	ff	(unknown)  '.'
e290	ff	(unknown)  '.'
e291	ff	(unknown)  '.'
e292	ff	(unknown)  '.'
e293	ff	(unknown)  '.'
e294	ff	(unknown)  '.'
e295	ff	(unknown)  '.'
e296	ff	(unknown)  '.'
e297	ff	(unknown)  '.'
e298	ff	(unknown)  '.'
e299	ff	(unknown)  '.'
e29a	ff	(unknown)  '.'
e29b	ff	(unknown)  '.'
e29c	ff	(unknown)  '.'
e29d	ff	(unknown)  '.'
e29e	ff	(unknown)  '.'
e29f	ff	(unknown)  '.'
e2a0	ff	(unknown)  '.'
e2a1	ff	(unknown)  '.'
e2a2	ff	(unknown)  '.'
e2a3	ff	(unknown)  '.'
e2a4	ff	(unknown)  '.'
e2a5	ff	(unknown)  '.'
e2a6	ff	(unknown)  '.'
e2a7	ff	(unknown)  '.'
e2a8	ff	(unknown)  '.'
e2a9	ff	(unknown)  '.'
e2aa	ff	(unknown)  '.'
e2ab	ff	(unknown)  '.'
e2ac	ff	(unknown)  '.'
e2ad	ff	(unknown)  '.'
e2ae	ff	(unknown)  '.'
e2af	ff	(unknown)  '.'
e2b0	ff	(unknown)  '.'
e2b1	ff	(unknown)  '.'
e2b2	ff	(unknown)  '.'
e2b3	ff	(unknown)  '.'
e2b4	ff	(unknown)  '.'
e2b5	ff	(unknown)  '.'
e2b6	ff	(unknown)  '.'
e2b7	ff	(unknown)  '.'
e2b8	ff	(unknown)  '.'
e2b9	ff	(unknown)  '.'
e2ba	ff	(unknown)  '.'
e2bb	ff	(unknown)  '.'
e2bc	ff	(unknown)  '.'
e2bd	ff	(unknown)  '.'
e2be	ff	(unknown)  '.'
e2bf	ff	(unknown)  '.'
e2c0	ff	(unknown)  '.'
e2c1	ff	(unknown)  '.'
e2c2	ff	(unknown)  '.'
e2c3	ff	(unknown)  '.'
e2c4	ff	(unknown)  '.'
e2c5	ff	(unknown)  '.'
e2c6	ff	(unknown)  '.'
e2c7	ff	(unknown)  '.'
e2c8	ff	(unknown)  '.'
e2c9	ff	(unknown)  '.'
e2ca	ff	(unknown)  '.'
e2cb	ff	(unknown)  '.'
e2cc	ff	(unknown)  '.'
e2cd	ff	(unknown)  '.'
e2ce	ff	(unknown)  '.'
e2cf	ff	(unknown)  '.'
e2d0	ff	(unknown)  '.'
e2d1	ff	(unknown)  '.'
e2d2	ff	(unknown)  '.'
e2d3	ff	(unknown)  '.'
e2d4	ff	(unknown)  '.'
e2d5	ff	(unknown)  '.'
e2d6	ff	(unknown)  '.'
e2d7	ff	(unknown)  '.'
e2d8	ff	(unknown)  '.'
e2d9	ff	(unknown)  '.'
e2da	ff	(unknown)  '.'
e2db	ff	(unknown)  '.'
e2dc	ff	(unknown)  '.'
e2dd	ff	(unknown)  '.'
e2de	ff	(unknown)  '.'
e2df	ff	(unknown)  '.'
e2e0	ff	(unknown)  '.'
e2e1	ff	(unknown)  '.'
e2e2	ff	(unknown)  '.'
e2e3	ff	(unknown)  '.'
e2e4	ff	(unknown)  '.'
e2e5	ff	(unknown)  '.'
e2e6	ff	(unknown)  '.'
e2e7	ff	(unknown)  '.'
e2e8	ff	(unknown)  '.'
e2e9	ff	(unknown)  '.'
e2ea	ff	(unknown)  '.'
e2eb	ff	(unknown)  '.'
e2ec	ff	(unknown)  '.'
e2ed	ff	(unknown)  '.'
e2ee	ff	(unknown)  '.'
e2ef	ff	(unknown)  '.'
e2f0	ff	(unknown)  '.'
e2f1	ff	(unknown)  '.'
e2f2	ff	(unknown)  '.'
e2f3	ff	(unknown)  '.'
e2f4	ff	(unknown)  '.'
e2f5	ff	(unknown)  '.'
e2f6	ff	(unknown)  '.'
e2f7	ff	(unknown)  '.'
e2f8	ff	(unknown)  '.'
e2f9	ff	(unknown)  '.'
e2fa	ff	(unknown)  '.'
e2fb	ff	(unknown)  '.'
e2fc	ff	(unknown)  '.'
e2fd	ff	(unknown)  '.'
e2fe	ff	(unknown)  '.'
e2ff	ff	(unknown)  '.'
e300	ff	(unknown)  '.'
e301	ff	(unknown)  '.'
e302	ff	(unknown)  '.'
e303	ff	(unknown)  '.'
e304	ff	(unknown)  '.'
e305	ff	(unknown)  '.'
e306	ff	(unknown)  '.'
e307	ff	(unknown)  '.'
e308	ff	(unknown)  '.'
e309	ff	(unknown)  '.'
e30a	ff	(unknown)  '.'
e30b	ff	(unknown)  '.'
e30c	ff	(unknown)  '.'
e30d	ff	(unknown)  '.'
e30e	ff	(unknown)  '.'
e30f	ff	(unknown)  '.'
e310	ff	(unknown)  '.'
e311	ff	(unknown)  '.'
e312	ff	(unknown)  '.'
e313	ff	(unknown)  '.'
e314	ff	(unknown)  '.'
e315	ff	(unknown)  '.'
e316	ff	(unknown)  '.'
e317	ff	(unknown)  '.'
e318	ff	(unknown)  '.'
e319	ff	(unknown)  '.'
e31a	ff	(unknown)  '.'
e31b	ff	(unknown)  '.'
e31c	ff	(unknown)  '.'
e31d	ff	(unknown)  '.'
e31e	ff	(unknown)  '.'
e31f	ff	(unknown)  '.'
e320	ff	(unknown)  '.'
e321	ff	(unknown)  '.'
e322	ff	(unknown)  '.'
e323	ff	(unknown)  '.'
e324	ff	(unknown)  '.'
e325	ff	(unknown)  '.'
e326	ff	(unknown)  '.'
e327	ff	(unknown)  '.'
e328	ff	(unknown)  '.'
e329	ff	(unknown)  '.'
e32a	ff	(unknown)  '.'
e32b	ff	(unknown)  '.'
e32c	ff	(unknown)  '.'
e32d	ff	(unknown)  '.'
e32e	ff	(unknown)  '.'
e32f	ff	(unknown)  '.'
e330	ff	(unknown)  '.'
e331	ff	(unknown)  '.'
e332	ff	(unknown)  '.'
e333	ff	(unknown)  '.'
e334	ff	(unknown)  '.'
e335	ff	(unknown)  '.'
e336	ff	(unknown)  '.'
e337	ff	(unknown)  '.'
e338	ff	(unknown)  '.'
e339	ff	(unknown)  '.'
e33a	ff	(unknown)  '.'
e33b	ff	(unknown)  '.'
e33c	ff	(unknown)  '.'
e33d	ff	(unknown)  '.'
e33e	ff	(unknown)  '.'
e33f	ff	(unknown)  '.'
e340	ff	(unknown)  '.'
e341	ff	(unknown)  '.'
e342	ff	(unknown)  '.'
e343	ff	(unknown)  '.'
e344	ff	(unknown)  '.'
e345	ff	(unknown)  '.'
e346	ff	(unknown)  '.'
e347	ff	(unknown)  '.'
e348	ff	(unknown)  '.'
e349	ff	(unknown)  '.'
e34a	ff	(unknown)  '.'
e34b	ff	(unknown)  '.'
e34c	ff	(unknown)  '.'
e34d	ff	(unknown)  '.'
e34e	ff	(unknown)  '.'
e34f	ff	(unknown)  '.'
e350	ff	(unknown)  '.'
e351	ff	(unknown)  '.'
e352	ff	(unknown)  '.'
e353	ff	(unknown)  '.'
e354	ff	(unknown)  '.'
e355	ff	(unknown)  '.'
e356	ff	(unknown)  '.'
e357	ff	(unknown)  '.'
e358	ff	(unknown)  '.'
e359	ff	(unknown)  '.'
e35a	ff	(unknown)  '.'
e35b	ff	(unknown)  '.'
e35c	ff	(unknown)  '.'
e35d	ff	(unknown)  '.'
e35e	ff	(unknown)  '.'
e35f	ff	(unknown)  '.'
e360	ff	(unknown)  '.'
e361	ff	(unknown)  '.'
e362	ff	(unknown)  '.'
e363	ff	(unknown)  '.'
e364	ff	(unknown)  '.'
e365	ff	(unknown)  '.'
e366	ff	(unknown)  '.'
e367	ff	(unknown)  '.'
e368	ff	(unknown)  '.'
e369	ff	(unknown)  '.'
e36a	ff	(unknown)  '.'
e36b	ff	(unknown)  '.'
e36c	ff	(unknown)  '.'
e36d	ff	(unknown)  '.'
e36e	ff	(unknown)  '.'
e36f	ff	(unknown)  '.'
e370	ff	(unknown)  '.'
e371	ff	(unknown)  '.'
e372	ff	(unknown)  '.'
e373	ff	(unknown)  '.'
e374	ff	(unknown)  '.'
e375	ff	(unknown)  '.'
e376	ff	(unknown)  '.'
e377	ff	(unknown)  '.'
e378	ff	(unknown)  '.'
e379	ff	(unknown)  '.'
e37a	ff	(unknown)  '.'
e37b	ff	(unknown)  '.'
e37c	ff	(unknown)  '.'
e37d	ff	(unknown)  '.'
e37e	ff	(unknown)  '.'
e37f	ff	(unknown)  '.'
e380	ff	(unknown)  '.'
e381	ff	(unknown)  '.'
e382	ff	(unknown)  '.'
e383	ff	(unknown)  '.'
e384	ff	(unknown)  '.'
e385	ff	(unknown)  '.'
e386	ff	(unknown)  '.'
e387	ff	(unknown)  '.'
e388	ff	(unknown)  '.'
e389	ff	(unknown)  '.'
e38a	ff	(unknown)  '.'
e38b	ff	(unknown)  '.'
e38c	ff	(unknown)  '.'
e38d	ff	(unknown)  '.'
e38e	ff	(unknown)  '.'
e38f	ff	(unknown)  '.'
e390	ff	(unknown)  '.'
e391	ff	(unknown)  '.'
e392	ff	(unknown)  '.'
e393	ff	(unknown)  '.'
e394	ff	(unknown)  '.'
e395	ff	(unknown)  '.'
e396	ff	(unknown)  '.'
e397	ff	(unknown)  '.'
e398	ff	(unknown)  '.'
e399	ff	(unknown)  '.'
e39a	ff	(unknown)  '.'
e39b	ff	(unknown)  '.'
e39c	ff	(unknown)  '.'
e39d	ff	(unknown)  '.'
e39e	ff	(unknown)  '.'
e39f	ff	(unknown)  '.'
e3a0	ff	(unknown)  '.'
e3a1	ff	(unknown)  '.'
e3a2	ff	(unknown)  '.'
e3a3	ff	(unknown)  '.'
e3a4	ff	(unknown)  '.'
e3a5	ff	(unknown)  '.'
e3a6	ff	(unknown)  '.'
e3a7	ff	(unknown)  '.'
e3a8	ff	(unknown)  '.'
e3a9	ff	(unknown)  '.'
e3aa	ff	(unknown)  '.'
e3ab	ff	(unknown)  '.'
e3ac	ff	(unknown)  '.'
e3ad	ff	(unknown)  '.'
e3ae	ff	(unknown)  '.'
e3af	ff	(unknown)  '.'
e3b0	ff	(unknown)  '.'
e3b1	ff	(unknown)  '.'
e3b2	ff	(unknown)  '.'
e3b3	ff	(unknown)  '.'
e3b4	ff	(unknown)  '.'
e3b5	ff	(unknown)  '.'
e3b6	ff	(unknown)  '.'
e3b7	ff	(unknown)  '.'
e3b8	ff	(unknown)  '.'
e3b9	ff	(unknown)  '.'
e3ba	ff	(unknown)  '.'
e3bb	ff	(unknown)  '.'
e3bc	ff	(unknown)  '.'
e3bd	ff	(unknown)  '.'
e3be	ff	(unknown)  '.'
e3bf	ff	(unknown)  '.'
e3c0	ff	(unknown)  '.'
e3c1	ff	(unknown)  '.'
e3c2	ff	(unknown)  '.'
e3c3	ff	(unknown)  '.'
e3c4	ff	(unknown)  '.'
e3c5	ff	(unknown)  '.'
e3c6	ff	(unknown)  '.'
e3c7	ff	(unknown)  '.'
e3c8	ff	(unknown)  '.'
e3c9	ff	(unknown)  '.'
e3ca	ff	(unknown)  '.'
e3cb	ff	(unknown)  '.'
e3cc	ff	(unknown)  '.'
e3cd	ff	(unknown)  '.'
e3ce	ff	(unknown)  '.'
e3cf	ff	(unknown)  '.'
e3d0	ff	(unknown)  '.'
e3d1	ff	(unknown)  '.'
e3d2	ff	(unknown)  '.'
e3d3	ff	(unknown)  '.'
e3d4	ff	(unknown)  '.'
e3d5	ff	(unknown)  '.'
e3d6	ff	(unknown)  '.'
e3d7	ff	(unknown)  '.'
e3d8	ff	(unknown)  '.'
e3d9	ff	(unknown)  '.'
e3da	ff	(unknown)  '.'
e3db	ff	(unknown)  '.'
e3dc	ff	(unknown)  '.'
e3dd	ff	(unknown)  '.'
e3de	ff	(unknown)  '.'
e3df	ff	(unknown)  '.'
e3e0	ff	(unknown)  '.'
e3e1	ff	(unknown)  '.'
e3e2	ff	(unknown)  '.'
e3e3	ff	(unknown)  '.'
e3e4	ff	(unknown)  '.'
e3e5	ff	(unknown)  '.'
e3e6	ff	(unknown)  '.'
e3e7	ff	(unknown)  '.'
e3e8	ff	(unknown)  '.'
e3e9	ff	(unknown)  '.'
e3ea	ff	(unknown)  '.'
e3eb	ff	(unknown)  '.'
e3ec	ff	(unknown)  '.'
e3ed	ff	(unknown)  '.'
e3ee	ff	(unknown)  '.'
e3ef	ff	(unknown)  '.'
e3f0	ff	(unknown)  '.'
e3f1	ff	(unknown)  '.'
e3f2	ff	(unknown)  '.'
e3f3	ff	(unknown)  '.'
e3f4	ff	(unknown)  '.'
e3f5	ff	(unknown)  '.'
e3f6	ff	(unknown)  '.'
e3f7	ff	(unknown)  '.'
e3f8	ff	(unknown)  '.'
e3f9	ff	(unknown)  '.'
e3fa	ff	(unknown)  '.'
e3fb	ff	(unknown)  '.'
e3fc	ff	(unknown)  '.'
e3fd	ff	(unknown)  '.'
e3fe	ff	(unknown)  '.'
e3ff	ff	(unknown)  '.'
e400	ff	(unknown)  '.'
e401	ff	(unknown)  '.'
e402	ff	(unknown)  '.'
e403	ff	(unknown)  '.'
e404	ff	(unknown)  '.'
e405	ff	(unknown)  '.'
e406	ff	(unknown)  '.'
e407	ff	(unknown)  '.'
e408	ff	(unknown)  '.'
e409	ff	(unknown)  '.'
e40a	ff	(unknown)  '.'
e40b	ff	(unknown)  '.'
e40c	ff	(unknown)  '.'
e40d	ff	(unknown)  '.'
e40e	ff	(unknown)  '.'
e40f	ff	(unknown)  '.'
e410	ff	(unknown)  '.'
e411	ff	(unknown)  '.'
e412	ff	(unknown)  '.'
e413	ff	(unknown)  '.'
e414	ff	(unknown)  '.'
e415	ff	(unknown)  '.'
e416	ff	(unknown)  '.'
e417	ff	(unknown)  '.'
e418	ff	(unknown)  '.'
e419	ff	(unknown)  '.'
e41a	ff	(unknown)  '.'
e41b	ff	(unknown)  '.'
e41c	ff	(unknown)  '.'
e41d	ff	(unknown)  '.'
e41e	ff	(unknown)  '.'
e41f	ff	(unknown)  '.'
e420	ff	(unknown)  '.'
e421	ff	(unknown)  '.'
e422	ff	(unknown)  '.'
e423	ff	(unknown)  '.'
e424	ff	(unknown)  '.'
e425	ff	(unknown)  '.'
e426	ff	(unknown)  '.'
e427	ff	(unknown)  '.'
e428	ff	(unknown)  '.'
e429	ff	(unknown)  '.'
e42a	ff	(unknown)  '.'
e42b	ff	(unknown)  '.'
e42c	ff	(unknown)  '.'
e42d	ff	(unknown)  '.'
e42e	ff	(unknown)  '.'
e42f	ff	(unknown)  '.'
e430	ff	(unknown)  '.'
e431	ff	(unknown)  '.'
e432	ff	(unknown)  '.'
e433	ff	(unknown)  '.'
e434	ff	(unknown)  '.'
e435	ff	(unknown)  '.'
e436	ff	(unknown)  '.'
e437	ff	(unknown)  '.'
e438	ff	(unknown)  '.'
e439	ff	(unknown)  '.'
e43a	ff	(unknown)  '.'
e43b	ff	(unknown)  '.'
e43c	ff	(unknown)  '.'
e43d	ff	(unknown)  '.'
e43e	ff	(unknown)  '.'
e43f	ff	(unknown)  '.'
e440	ff	(unknown)  '.'
e441	ff	(unknown)  '.'
e442	ff	(unknown)  '.'
e443	ff	(unknown)  '.'
e444	ff	(unknown)  '.'
e445	ff	(unknown)  '.'
e446	ff	(unknown)  '.'
e447	ff	(unknown)  '.'
e448	ff	(unknown)  '.'
e449	ff	(unknown)  '.'
e44a	ff	(unknown)  '.'
e44b	ff	(unknown)  '.'
e44c	ff	(unknown)  '.'
e44d	ff	(unknown)  '.'
e44e	ff	(unknown)  '.'
e44f	ff	(unknown)  '.'
e450	ff	(unknown)  '.'
e451	ff	(unknown)  '.'
e452	ff	(unknown)  '.'
e453	ff	(unknown)  '.'
e454	ff	(unknown)  '.'
e455	ff	(unknown)  '.'
e456	ff	(unknown)  '.'
e457	ff	(unknown)  '.'
e458	ff	(unknown)  '.'
e459	ff	(unknown)  '.'
e45a	ff	(unknown)  '.'
e45b	ff	(unknown)  '.'
e45c	ff	(unknown)  '.'
e45d	ff	(unknown)  '.'
e45e	ff	(unknown)  '.'
e45f	ff	(unknown)  '.'
e460	ff	(unknown)  '.'
e461	ff	(unknown)  '.'
e462	ff	(unknown)  '.'
e463	ff	(unknown)  '.'
e464	ff	(unknown)  '.'
e465	ff	(unknown)  '.'
e466	ff	(unknown)  '.'
e467	ff	(unknown)  '.'
e468	ff	(unknown)  '.'
e469	ff	(unknown)  '.'
e46a	ff	(unknown)  '.'
e46b	ff	(unknown)  '.'
e46c	ff	(unknown)  '.'
e46d	ff	(unknown)  '.'
e46e	ff	(unknown)  '.'
e46f	ff	(unknown)  '.'
e470	ff	(unknown)  '.'
e471	ff	(unknown)  '.'
e472	ff	(unknown)  '.'
e473	ff	(unknown)  '.'
e474	ff	(unknown)  '.'
e475	ff	(unknown)  '.'
e476	ff	(unknown)  '.'
e477	ff	(unknown)  '.'
e478	ff	(unknown)  '.'
e479	ff	(unknown)  '.'
e47a	ff	(unknown)  '.'
e47b	ff	(unknown)  '.'
e47c	ff	(unknown)  '.'
e47d	ff	(unknown)  '.'
e47e	ff	(unknown)  '.'
e47f	ff	(unknown)  '.'
e480	ff	(unknown)  '.'
e481	ff	(unknown)  '.'
e482	ff	(unknown)  '.'
e483	ff	(unknown)  '.'
e484	ff	(unknown)  '.'
e485	ff	(unknown)  '.'
e486	ff	(unknown)  '.'
e487	ff	(unknown)  '.'
e488	ff	(unknown)  '.'
e489	ff	(unknown)  '.'
e48a	ff	(unknown)  '.'
e48b	ff	(unknown)  '.'
e48c	ff	(unknown)  '.'
e48d	ff	(unknown)  '.'
e48e	ff	(unknown)  '.'
e48f	ff	(unknown)  '.'
e490	ff	(unknown)  '.'
e491	ff	(unknown)  '.'
e492	ff	(unknown)  '.'
e493	ff	(unknown)  '.'
e494	ff	(unknown)  '.'
e495	ff	(unknown)  '.'
e496	ff	(unknown)  '.'
e497	ff	(unknown)  '.'
e498	ff	(unknown)  '.'
e499	ff	(unknown)  '.'
e49a	ff	(unknown)  '.'
e49b	ff	(unknown)  '.'
e49c	ff	(unknown)  '.'
e49d	ff	(unknown)  '.'
e49e	ff	(unknown)  '.'
e49f	ff	(unknown)  '.'
e4a0	ff	(unknown)  '.'
e4a1	ff	(unknown)  '.'
e4a2	ff	(unknown)  '.'
e4a3	ff	(unknown)  '.'
e4a4	ff	(unknown)  '.'
e4a5	ff	(unknown)  '.'
e4a6	ff	(unknown)  '.'
e4a7	ff	(unknown)  '.'
e4a8	ff	(unknown)  '.'
e4a9	ff	(unknown)  '.'
e4aa	ff	(unknown)  '.'
e4ab	ff	(unknown)  '.'
e4ac	ff	(unknown)  '.'
e4ad	ff	(unknown)  '.'
e4ae	ff	(unknown)  '.'
e4af	ff	(unknown)  '.'
e4b0	ff	(unknown)  '.'
e4b1	ff	(unknown)  '.'
e4b2	ff	(unknown)  '.'
e4b3	ff	(unknown)  '.'
e4b4	ff	(unknown)  '.'
e4b5	ff	(unknown)  '.'
e4b6	ff	(unknown)  '.'
e4b7	ff	(unknown)  '.'
e4b8	ff	(unknown)  '.'
e4b9	ff	(unknown)  '.'
e4ba	ff	(unknown)  '.'
e4bb	ff	(unknown)  '.'
e4bc	ff	(unknown)  '.'
e4bd	ff	(unknown)  '.'
e4be	ff	(unknown)  '.'
e4bf	ff	(unknown)  '.'
e4c0	ff	(unknown)  '.'
e4c1	ff	(unknown)  '.'
e4c2	ff	(unknown)  '.'
e4c3	ff	(unknown)  '.'
e4c4	ff	(unknown)  '.'
e4c5	ff	(unknown)  '.'
e4c6	ff	(unknown)  '.'
e4c7	ff	(unknown)  '.'
e4c8	ff	(unknown)  '.'
e4c9	ff	(unknown)  '.'
e4ca	ff	(unknown)  '.'
e4cb	ff	(unknown)  '.'
e4cc	ff	(unknown)  '.'
e4cd	ff	(unknown)  '.'
e4ce	ff	(unknown)  '.'
e4cf	ff	(unknown)  '.'
e4d0	ff	(unknown)  '.'
e4d1	ff	(unknown)  '.'
e4d2	ff	(unknown)  '.'
e4d3	ff	(unknown)  '.'
e4d4	ff	(unknown)  '.'
e4d5	ff	(unknown)  '.'
e4d6	ff	(unknown)  '.'
e4d7	ff	(unknown)  '.'
e4d8	ff	(unknown)  '.'
e4d9	ff	(unknown)  '.'
e4da	ff	(unknown)  '.'
e4db	ff	(unknown)  '.'
e4dc	ff	(unknown)  '.'
e4dd	ff	(unknown)  '.'
e4de	ff	(unknown)  '.'
e4df	ff	(unknown)  '.'
e4e0	ff	(unknown)  '.'
e4e1	ff	(unknown)  '.'
e4e2	ff	(unknown)  '.'
e4e3	ff	(unknown)  '.'
e4e4	ff	(unknown)  '.'
e4e5	ff	(unknown)  '.'
e4e6	ff	(unknown)  '.'
e4e7	ff	(unknown)  '.'
e4e8	ff	(unknown)  '.'
e4e9	ff	(unknown)  '.'
e4ea	ff	(unknown)  '.'
e4eb	ff	(unknown)  '.'
e4ec	ff	(unknown)  '.'
e4ed	ff	(unknown)  '.'
e4ee	ff	(unknown)  '.'
e4ef	ff	(unknown)  '.'
e4f0	ff	(unknown)  '.'
e4f1	ff	(unknown)  '.'
e4f2	ff	(unknown)  '.'
e4f3	ff	(unknown)  '.'
e4f4	ff	(unknown)  '.'
e4f5	ff	(unknown)  '.'
e4f6	ff	(unknown)  '.'
e4f7	ff	(unknown)  '.'
e4f8	ff	(unknown)  '.'
e4f9	ff	(unknown)  '.'
e4fa	ff	(unknown)  '.'
e4fb	ff	(unknown)  '.'
e4fc	ff	(unknown)  '.'
e4fd	ff	(unknown)  '.'
e4fe	ff	(unknown)  '.'
e4ff	ff	(unknown)  '.'
e500	ff	(unknown)  '.'
e501	ff	(unknown)  '.'
e502	ff	(unknown)  '.'
e503	ff	(unknown)  '.'
e504	ff	(unknown)  '.'
e505	ff	(unknown)  '.'
e506	ff	(unknown)  '.'
e507	ff	(unknown)  '.'
e508	ff	(unknown)  '.'
e509	ff	(unknown)  '.'
e50a	ff	(unknown)  '.'
e50b	ff	(unknown)  '.'
e50c	ff	(unknown)  '.'
e50d	ff	(unknown)  '.'
e50e	ff	(unknown)  '.'
e50f	ff	(unknown)  '.'
e510	ff	(unknown)  '.'
e511	ff	(unknown)  '.'
e512	ff	(unknown)  '.'
e513	ff	(unknown)  '.'
e514	ff	(unknown)  '.'
e515	ff	(unknown)  '.'
e516	ff	(unknown)  '.'
e517	ff	(unknown)  '.'
e518	ff	(unknown)  '.'
e519	ff	(unknown)  '.'
e51a	ff	(unknown)  '.'
e51b	ff	(unknown)  '.'
e51c	ff	(unknown)  '.'
e51d	ff	(unknown)  '.'
e51e	ff	(unknown)  '.'
e51f	ff	(unknown)  '.'
e520	ff	(unknown)  '.'
e521	ff	(unknown)  '.'
e522	ff	(unknown)  '.'
e523	ff	(unknown)  '.'
e524	ff	(unknown)  '.'
e525	ff	(unknown)  '.'
e526	ff	(unknown)  '.'
e527	ff	(unknown)  '.'
e528	ff	(unknown)  '.'
e529	ff	(unknown)  '.'
e52a	ff	(unknown)  '.'
e52b	ff	(unknown)  '.'
e52c	ff	(unknown)  '.'
e52d	ff	(unknown)  '.'
e52e	ff	(unknown)  '.'
e52f	ff	(unknown)  '.'
e530	ff	(unknown)  '.'
e531	ff	(unknown)  '.'
e532	ff	(unknown)  '.'
e533	ff	(unknown)  '.'
e534	ff	(unknown)  '.'
e535	ff	(unknown)  '.'
e536	ff	(unknown)  '.'
e537	ff	(unknown)  '.'
e538	ff	(unknown)  '.'
e539	ff	(unknown)  '.'
e53a	ff	(unknown)  '.'
e53b	ff	(unknown)  '.'
e53c	ff	(unknown)  '.'
e53d	ff	(unknown)  '.'
e53e	ff	(unknown)  '.'
e53f	ff	(unknown)  '.'
e540	ff	(unknown)  '.'
e541	ff	(unknown)  '.'
e542	ff	(unknown)  '.'
e543	ff	(unknown)  '.'
e544	ff	(unknown)  '.'
e545	ff	(unknown)  '.'
e546	ff	(unknown)  '.'
e547	ff	(unknown)  '.'
e548	ff	(unknown)  '.'
e549	ff	(unknown)  '.'
e54a	ff	(unknown)  '.'
e54b	ff	(unknown)  '.'
e54c	ff	(unknown)  '.'
e54d	ff	(unknown)  '.'
e54e	ff	(unknown)  '.'
e54f	ff	(unknown)  '.'
e550	ff	(unknown)  '.'
e551	ff	(unknown)  '.'
e552	ff	(unknown)  '.'
e553	ff	(unknown)  '.'
e554	ff	(unknown)  '.'
e555	ff	(unknown)  '.'
e556	ff	(unknown)  '.'
e557	ff	(unknown)  '.'
e558	ff	(unknown)  '.'
e559	ff	(unknown)  '.'
e55a	ff	(unknown)  '.'
e55b	ff	(unknown)  '.'
e55c	ff	(unknown)  '.'
e55d	ff	(unknown)  '.'
e55e	ff	(unknown)  '.'
e55f	ff	(unknown)  '.'
e560	ff	(unknown)  '.'
e561	ff	(unknown)  '.'
e562	ff	(unknown)  '.'
e563	ff	(unknown)  '.'
e564	ff	(unknown)  '.'
e565	ff	(unknown)  '.'
e566	ff	(unknown)  '.'
e567	ff	(unknown)  '.'
e568	ff	(unknown)  '.'
e569	ff	(unknown)  '.'
e56a	ff	(unknown)  '.'
e56b	ff	(unknown)  '.'
e56c	ff	(unknown)  '.'
e56d	ff	(unknown)  '.'
e56e	ff	(unknown)  '.'
e56f	ff	(unknown)  '.'
e570	ff	(unknown)  '.'
e571	ff	(unknown)  '.'
e572	ff	(unknown)  '.'
e573	ff	(unknown)  '.'
e574	ff	(unknown)  '.'
e575	ff	(unknown)  '.'
e576	ff	(unknown)  '.'
e577	ff	(unknown)  '.'
e578	ff	(unknown)  '.'
e579	ff	(unknown)  '.'
e57a	ff	(unknown)  '.'
e57b	ff	(unknown)  '.'
e57c	ff	(unknown)  '.'
e57d	ff	(unknown)  '.'
e57e	ff	(unknown)  '.'
e57f	ff	(unknown)  '.'
e580	ff	(unknown)  '.'
e581	ff	(unknown)  '.'
e582	ff	(unknown)  '.'
e583	ff	(unknown)  '.'
e584	ff	(unknown)  '.'
e585	ff	(unknown)  '.'
e586	ff	(unknown)  '.'
e587	ff	(unknown)  '.'
e588	ff	(unknown)  '.'
e589	ff	(unknown)  '.'
e58a	ff	(unknown)  '.'
e58b	ff	(unknown)  '.'
e58c	ff	(unknown)  '.'
e58d	ff	(unknown)  '.'
e58e	ff	(unknown)  '.'
e58f	ff	(unknown)  '.'
e590	ff	(unknown)  '.'
e591	ff	(unknown)  '.'
e592	ff	(unknown)  '.'
e593	ff	(unknown)  '.'
e594	ff	(unknown)  '.'
e595	ff	(unknown)  '.'
e596	ff	(unknown)  '.'
e597	ff	(unknown)  '.'
e598	ff	(unknown)  '.'
e599	ff	(unknown)  '.'
e59a	ff	(unknown)  '.'
e59b	ff	(unknown)  '.'
e59c	ff	(unknown)  '.'
e59d	ff	(unknown)  '.'
e59e	ff	(unknown)  '.'
e59f	ff	(unknown)  '.'
e5a0	ff	(unknown)  '.'
e5a1	ff	(unknown)  '.'
e5a2	ff	(unknown)  '.'
e5a3	ff	(unknown)  '.'
e5a4	ff	(unknown)  '.'
e5a5	ff	(unknown)  '.'
e5a6	ff	(unknown)  '.'
e5a7	ff	(unknown)  '.'
e5a8	ff	(unknown)  '.'
e5a9	ff	(unknown)  '.'
e5aa	ff	(unknown)  '.'
e5ab	ff	(unknown)  '.'
e5ac	ff	(unknown)  '.'
e5ad	ff	(unknown)  '.'
e5ae	ff	(unknown)  '.'
e5af	ff	(unknown)  '.'
e5b0	ff	(unknown)  '.'
e5b1	ff	(unknown)  '.'
e5b2	ff	(unknown)  '.'
e5b3	ff	(unknown)  '.'
e5b4	ff	(unknown)  '.'
e5b5	ff	(unknown)  '.'
e5b6	ff	(unknown)  '.'
e5b7	ff	(unknown)  '.'
e5b8	ff	(unknown)  '.'
e5b9	ff	(unknown)  '.'
e5ba	ff	(unknown)  '.'
e5bb	ff	(unknown)  '.'
e5bc	ff	(unknown)  '.'
e5bd	ff	(unknown)  '.'
e5be	ff	(unknown)  '.'
e5bf	ff	(unknown)  '.'
e5c0	ff	(unknown)  '.'
e5c1	ff	(unknown)  '.'
e5c2	ff	(unknown)  '.'
e5c3	ff	(unknown)  '.'
e5c4	ff	(unknown)  '.'
e5c5	ff	(unknown)  '.'
e5c6	ff	(unknown)  '.'
e5c7	ff	(unknown)  '.'
e5c8	ff	(unknown)  '.'
e5c9	ff	(unknown)  '.'
e5ca	ff	(unknown)  '.'
e5cb	ff	(unknown)  '.'
e5cc	ff	(unknown)  '.'
e5cd	ff	(unknown)  '.'
e5ce	ff	(unknown)  '.'
e5cf	ff	(unknown)  '.'
e5d0	ff	(unknown)  '.'
e5d1	ff	(unknown)  '.'
e5d2	ff	(unknown)  '.'
e5d3	ff	(unknown)  '.'
e5d4	ff	(unknown)  '.'
e5d5	ff	(unknown)  '.'
e5d6	ff	(unknown)  '.'
e5d7	ff	(unknown)  '.'
e5d8	ff	(unknown)  '.'
e5d9	ff	(unknown)  '.'
e5da	ff	(unknown)  '.'
e5db	ff	(unknown)  '.'
e5dc	ff	(unknown)  '.'
e5dd	ff	(unknown)  '.'
e5de	ff	(unknown)  '.'
e5df	ff	(unknown)  '.'
e5e0	ff	(unknown)  '.'
e5e1	ff	(unknown)  '.'
e5e2	ff	(unknown)  '.'
e5e3	ff	(unknown)  '.'
e5e4	ff	(unknown)  '.'
e5e5	ff	(unknown)  '.'
e5e6	ff	(unknown)  '.'
e5e7	ff	(unknown)  '.'
e5e8	ff	(unknown)  '.'
e5e9	ff	(unknown)  '.'
e5ea	ff	(unknown)  '.'
e5eb	ff	(unknown)  '.'
e5ec	ff	(unknown)  '.'
e5ed	ff	(unknown)  '.'
e5ee	ff	(unknown)  '.'
e5ef	ff	(unknown)  '.'
e5f0	ff	(unknown)  '.'
e5f1	ff	(unknown)  '.'
e5f2	ff	(unknown)  '.'
e5f3	ff	(unknown)  '.'
e5f4	ff	(unknown)  '.'
e5f5	ff	(unknown)  '.'
e5f6	ff	(unknown)  '.'
e5f7	ff	(unknown)  '.'
e5f8	ff	(unknown)  '.'
e5f9	ff	(unknown)  '.'
e5fa	ff	(unknown)  '.'
e5fb	ff	(unknown)  '.'
e5fc	ff	(unknown)  '.'
e5fd	ff	(unknown)  '.'
e5fe	ff	(unknown)  '.'
e5ff	ff	(unknown)  '.'
e600	ff	(unknown)  '.'
e601	ff	(unknown)  '.'
e602	ff	(unknown)  '.'
e603	ff	(unknown)  '.'
e604	ff	(unknown)  '.'
e605	ff	(unknown)  '.'
e606	ff	(unknown)  '.'
e607	ff	(unknown)  '.'
e608	ff	(unknown)  '.'
e609	ff	(unknown)  '.'
e60a	ff	(unknown)  '.'
e60b	ff	(unknown)  '.'
e60c	ff	(unknown)  '.'
e60d	ff	(unknown)  '.'
e60e	ff	(unknown)  '.'
e60f	ff	(unknown)  '.'
e610	ff	(unknown)  '.'
e611	ff	(unknown)  '.'
e612	ff	(unknown)  '.'
e613	ff	(unknown)  '.'
e614	ff	(unknown)  '.'
e615	ff	(unknown)  '.'
e616	ff	(unknown)  '.'
e617	ff	(unknown)  '.'
e618	ff	(unknown)  '.'
e619	ff	(unknown)  '.'
e61a	ff	(unknown)  '.'
e61b	ff	(unknown)  '.'
e61c	ff	(unknown)  '.'
e61d	ff	(unknown)  '.'
e61e	ff	(unknown)  '.'
e61f	ff	(unknown)  '.'
e620	ff	(unknown)  '.'
e621	ff	(unknown)  '.'
e622	ff	(unknown)  '.'
e623	ff	(unknown)  '.'
e624	ff	(unknown)  '.'
e625	ff	(unknown)  '.'
e626	ff	(unknown)  '.'
e627	ff	(unknown)  '.'
e628	ff	(unknown)  '.'
e629	ff	(unknown)  '.'
e62a	ff	(unknown)  '.'
e62b	ff	(unknown)  '.'
e62c	ff	(unknown)  '.'
e62d	ff	(unknown)  '.'
e62e	ff	(unknown)  '.'
e62f	ff	(unknown)  '.'
e630	ff	(unknown)  '.'
e631	ff	(unknown)  '.'
e632	ff	(unknown)  '.'
e633	ff	(unknown)  '.'
e634	ff	(unknown)  '.'
e635	ff	(unknown)  '.'
e636	ff	(unknown)  '.'
e637	ff	(unknown)  '.'
e638	ff	(unknown)  '.'
e639	ff	(unknown)  '.'
e63a	ff	(unknown)  '.'
e63b	ff	(unknown)  '.'
e63c	ff	(unknown)  '.'
e63d	ff	(unknown)  '.'
e63e	ff	(unknown)  '.'
e63f	ff	(unknown)  '.'
e640	ff	(unknown)  '.'
e641	ff	(unknown)  '.'
e642	ff	(unknown)  '.'
e643	ff	(unknown)  '.'
e644	ff	(unknown)  '.'
e645	ff	(unknown)  '.'
e646	ff	(unknown)  '.'
e647	ff	(unknown)  '.'
e648	ff	(unknown)  '.'
e649	ff	(unknown)  '.'
e64a	ff	(unknown)  '.'
e64b	ff	(unknown)  '.'
e64c	ff	(unknown)  '.'
e64d	ff	(unknown)  '.'
e64e	ff	(unknown)  '.'
e64f	ff	(unknown)  '.'
e650	ff	(unknown)  '.'
e651	ff	(unknown)  '.'
e652	ff	(unknown)  '.'
e653	ff	(unknown)  '.'
e654	ff	(unknown)  '.'
e655	ff	(unknown)  '.'
e656	ff	(unknown)  '.'
e657	ff	(unknown)  '.'
e658	ff	(unknown)  '.'
e659	ff	(unknown)  '.'
e65a	ff	(unknown)  '.'
e65b	ff	(unknown)  '.'
e65c	ff	(unknown)  '.'
e65d	ff	(unknown)  '.'
e65e	ff	(unknown)  '.'
e65f	ff	(unknown)  '.'
e660	ff	(unknown)  '.'
e661	ff	(unknown)  '.'
e662	ff	(unknown)  '.'
e663	ff	(unknown)  '.'
e664	ff	(unknown)  '.'
e665	ff	(unknown)  '.'
e666	ff	(unknown)  '.'
e667	ff	(unknown)  '.'
e668	ff	(unknown)  '.'
e669	ff	(unknown)  '.'
e66a	ff	(unknown)  '.'
e66b	ff	(unknown)  '.'
e66c	ff	(unknown)  '.'
e66d	ff	(unknown)  '.'
e66e	ff	(unknown)  '.'
e66f	ff	(unknown)  '.'
e670	ff	(unknown)  '.'
e671	ff	(unknown)  '.'
e672	ff	(unknown)  '.'
e673	ff	(unknown)  '.'
e674	ff	(unknown)  '.'
e675	ff	(unknown)  '.'
e676	ff	(unknown)  '.'
e677	ff	(unknown)  '.'
e678	ff	(unknown)  '.'
e679	ff	(unknown)  '.'
e67a	ff	(unknown)  '.'
e67b	ff	(unknown)  '.'
e67c	ff	(unknown)  '.'
e67d	ff	(unknown)  '.'
e67e	ff	(unknown)  '.'
e67f	ff	(unknown)  '.'
e680	ff	(unknown)  '.'
e681	ff	(unknown)  '.'
e682	ff	(unknown)  '.'
e683	ff	(unknown)  '.'
e684	ff	(unknown)  '.'
e685	ff	(unknown)  '.'
e686	ff	(unknown)  '.'
e687	ff	(unknown)  '.'
e688	ff	(unknown)  '.'
e689	ff	(unknown)  '.'
e68a	ff	(unknown)  '.'
e68b	ff	(unknown)  '.'
e68c	ff	(unknown)  '.'
e68d	ff	(unknown)  '.'
e68e	ff	(unknown)  '.'
e68f	ff	(unknown)  '.'
e690	ff	(unknown)  '.'
e691	ff	(unknown)  '.'
e692	ff	(unknown)  '.'
e693	ff	(unknown)  '.'
e694	ff	(unknown)  '.'
e695	ff	(unknown)  '.'
e696	ff	(unknown)  '.'
e697	ff	(unknown)  '.'
e698	ff	(unknown)  '.'
e699	ff	(unknown)  '.'
e69a	ff	(unknown)  '.'
e69b	ff	(unknown)  '.'
e69c	ff	(unknown)  '.'
e69d	ff	(unknown)  '.'
e69e	ff	(unknown)  '.'
e69f	ff	(unknown)  '.'
e6a0	ff	(unknown)  '.'
e6a1	ff	(unknown)  '.'
e6a2	ff	(unknown)  '.'
e6a3	ff	(unknown)  '.'
e6a4	ff	(unknown)  '.'
e6a5	ff	(unknown)  '.'
e6a6	ff	(unknown)  '.'
e6a7	ff	(unknown)  '.'
e6a8	ff	(unknown)  '.'
e6a9	ff	(unknown)  '.'
e6aa	ff	(unknown)  '.'
e6ab	ff	(unknown)  '.'
e6ac	ff	(unknown)  '.'
e6ad	ff	(unknown)  '.'
e6ae	ff	(unknown)  '.'
e6af	ff	(unknown)  '.'
e6b0	ff	(unknown)  '.'
e6b1	ff	(unknown)  '.'
e6b2	ff	(unknown)  '.'
e6b3	ff	(unknown)  '.'
e6b4	ff	(unknown)  '.'
e6b5	ff	(unknown)  '.'
e6b6	ff	(unknown)  '.'
e6b7	ff	(unknown)  '.'
e6b8	ff	(unknown)  '.'
e6b9	ff	(unknown)  '.'
e6ba	ff	(unknown)  '.'
e6bb	ff	(unknown)  '.'
e6bc	ff	(unknown)  '.'
e6bd	ff	(unknown)  '.'
e6be	ff	(unknown)  '.'
e6bf	ff	(unknown)  '.'
e6c0	ff	(unknown)  '.'
e6c1	ff	(unknown)  '.'
e6c2	ff	(unknown)  '.'
e6c3	ff	(unknown)  '.'
e6c4	ff	(unknown)  '.'
e6c5	ff	(unknown)  '.'
e6c6	ff	(unknown)  '.'
e6c7	ff	(unknown)  '.'
e6c8	ff	(unknown)  '.'
e6c9	ff	(unknown)  '.'
e6ca	ff	(unknown)  '.'
e6cb	ff	(unknown)  '.'
e6cc	ff	(unknown)  '.'
e6cd	ff	(unknown)  '.'
e6ce	ff	(unknown)  '.'
e6cf	ff	(unknown)  '.'
e6d0	ff	(unknown)  '.'
e6d1	ff	(unknown)  '.'
e6d2	ff	(unknown)  '.'
e6d3	ff	(unknown)  '.'
e6d4	ff	(unknown)  '.'
e6d5	ff	(unknown)  '.'
e6d6	ff	(unknown)  '.'
e6d7	ff	(unknown)  '.'
e6d8	ff	(unknown)  '.'
e6d9	ff	(unknown)  '.'
e6da	ff	(unknown)  '.'
e6db	ff	(unknown)  '.'
e6dc	ff	(unknown)  '.'
e6dd	ff	(unknown)  '.'
e6de	ff	(unknown)  '.'
e6df	ff	(unknown)  '.'
e6e0	ff	(unknown)  '.'
e6e1	ff	(unknown)  '.'
e6e2	ff	(unknown)  '.'
e6e3	ff	(unknown)  '.'
e6e4	ff	(unknown)  '.'
e6e5	ff	(unknown)  '.'
e6e6	ff	(unknown)  '.'
e6e7	ff	(unknown)  '.'
e6e8	ff	(unknown)  '.'
e6e9	ff	(unknown)  '.'
e6ea	ff	(unknown)  '.'
e6eb	ff	(unknown)  '.'
e6ec	ff	(unknown)  '.'
e6ed	ff	(unknown)  '.'
e6ee	ff	(unknown)  '.'
e6ef	ff	(unknown)  '.'
e6f0	ff	(unknown)  '.'
e6f1	ff	(unknown)  '.'
e6f2	ff	(unknown)  '.'
e6f3	ff	(unknown)  '.'
e6f4	ff	(unknown)  '.'
e6f5	ff	(unknown)  '.'
e6f6	ff	(unknown)  '.'
e6f7	ff	(unknown)  '.'
e6f8	ff	(unknown)  '.'
e6f9	ff	(unknown)  '.'
e6fa	ff	(unknown)  '.'
e6fb	ff	(unknown)  '.'
e6fc	ff	(unknown)  '.'
e6fd	ff	(unknown)  '.'
e6fe	ff	(unknown)  '.'
e6ff	ff	(unknown)  '.'
e700	ff	(unknown)  '.'
e701	ff	(unknown)  '.'
e702	ff	(unknown)  '.'
e703	ff	(unknown)  '.'
e704	ff	(unknown)  '.'
e705	ff	(unknown)  '.'
e706	ff	(unknown)  '.'
e707	ff	(unknown)  '.'
e708	ff	(unknown)  '.'
e709	ff	(unknown)  '.'
e70a	ff	(unknown)  '.'
e70b	ff	(unknown)  '.'
e70c	ff	(unknown)  '.'
e70d	ff	(unknown)  '.'
e70e	ff	(unknown)  '.'
e70f	ff	(unknown)  '.'
e710	ff	(unknown)  '.'
e711	ff	(unknown)  '.'
e712	ff	(unknown)  '.'
e713	ff	(unknown)  '.'
e714	ff	(unknown)  '.'
e715	ff	(unknown)  '.'
e716	ff	(unknown)  '.'
e717	ff	(unknown)  '.'
e718	ff	(unknown)  '.'
e719	ff	(unknown)  '.'
e71a	ff	(unknown)  '.'
e71b	ff	(unknown)  '.'
e71c	ff	(unknown)  '.'
e71d	ff	(unknown)  '.'
e71e	ff	(unknown)  '.'
e71f	ff	(unknown)  '.'
e720	ff	(unknown)  '.'
e721	ff	(unknown)  '.'
e722	ff	(unknown)  '.'
e723	ff	(unknown)  '.'
e724	ff	(unknown)  '.'
e725	ff	(unknown)  '.'
e726	ff	(unknown)  '.'
e727	ff	(unknown)  '.'
e728	ff	(unknown)  '.'
e729	ff	(unknown)  '.'
e72a	ff	(unknown)  '.'
e72b	ff	(unknown)  '.'
e72c	ff	(unknown)  '.'
e72d	ff	(unknown)  '.'
e72e	ff	(unknown)  '.'
e72f	ff	(unknown)  '.'
e730	ff	(unknown)  '.'
e731	ff	(unknown)  '.'
e732	ff	(unknown)  '.'
e733	ff	(unknown)  '.'
e734	ff	(unknown)  '.'
e735	ff	(unknown)  '.'
e736	ff	(unknown)  '.'
e737	ff	(unknown)  '.'
e738	ff	(unknown)  '.'
e739	ff	(unknown)  '.'
e73a	ff	(unknown)  '.'
e73b	ff	(unknown)  '.'
e73c	ff	(unknown)  '.'
e73d	ff	(unknown)  '.'
e73e	ff	(unknown)  '.'
e73f	ff	(unknown)  '.'
e740	ff	(unknown)  '.'
e741	ff	(unknown)  '.'
e742	ff	(unknown)  '.'
e743	ff	(unknown)  '.'
e744	ff	(unknown)  '.'
e745	ff	(unknown)  '.'
e746	ff	(unknown)  '.'
e747	ff	(unknown)  '.'
e748	ff	(unknown)  '.'
e749	ff	(unknown)  '.'
e74a	ff	(unknown)  '.'
e74b	ff	(unknown)  '.'
e74c	ff	(unknown)  '.'
e74d	ff	(unknown)  '.'
e74e	ff	(unknown)  '.'
e74f	ff	(unknown)  '.'
e750	ff	(unknown)  '.'
e751	ff	(unknown)  '.'
e752	ff	(unknown)  '.'
e753	ff	(unknown)  '.'
e754	ff	(unknown)  '.'
e755	ff	(unknown)  '.'
e756	ff	(unknown)  '.'
e757	ff	(unknown)  '.'
e758	ff	(unknown)  '.'
e759	ff	(unknown)  '.'
e75a	ff	(unknown)  '.'
e75b	ff	(unknown)  '.'
e75c	ff	(unknown)  '.'
e75d	ff	(unknown)  '.'
e75e	ff	(unknown)  '.'
e75f	ff	(unknown)  '.'
e760	ff	(unknown)  '.'
e761	ff	(unknown)  '.'
e762	ff	(unknown)  '.'
e763	ff	(unknown)  '.'
e764	ff	(unknown)  '.'
e765	ff	(unknown)  '.'
e766	ff	(unknown)  '.'
e767	ff	(unknown)  '.'
e768	ff	(unknown)  '.'
e769	ff	(unknown)  '.'
e76a	ff	(unknown)  '.'
e76b	ff	(unknown)  '.'
e76c	ff	(unknown)  '.'
e76d	ff	(unknown)  '.'
e76e	ff	(unknown)  '.'
e76f	ff	(unknown)  '.'
e770	ff	(unknown)  '.'
e771	ff	(unknown)  '.'
e772	ff	(unknown)  '.'
e773	ff	(unknown)  '.'
e774	ff	(unknown)  '.'
e775	ff	(unknown)  '.'
e776	ff	(unknown)  '.'
e777	ff	(unknown)  '.'
e778	ff	(unknown)  '.'
e779	ff	(unknown)  '.'
e77a	ff	(unknown)  '.'
e77b	ff	(unknown)  '.'
e77c	ff	(unknown)  '.'
e77d	ff	(unknown)  '.'
e77e	ff	(unknown)  '.'
e77f	ff	(unknown)  '.'
e780	ff	(unknown)  '.'
e781	ff	(unknown)  '.'
e782	ff	(unknown)  '.'
e783	ff	(unknown)  '.'
e784	ff	(unknown)  '.'
e785	ff	(unknown)  '.'
e786	ff	(unknown)  '.'
e787	ff	(unknown)  '.'
e788	ff	(unknown)  '.'
e789	ff	(unknown)  '.'
e78a	ff	(unknown)  '.'
e78b	ff	(unknown)  '.'
e78c	ff	(unknown)  '.'
e78d	ff	(unknown)  '.'
e78e	ff	(unknown)  '.'
e78f	ff	(unknown)  '.'
e790	ff	(unknown)  '.'
e791	ff	(unknown)  '.'
e792	ff	(unknown)  '.'
e793	ff	(unknown)  '.'
e794	ff	(unknown)  '.'
e795	ff	(unknown)  '.'
e796	ff	(unknown)  '.'
e797	ff	(unknown)  '.'
e798	ff	(unknown)  '.'
e799	ff	(unknown)  '.'
e79a	ff	(unknown)  '.'
e79b	ff	(unknown)  '.'
e79c	ff	(unknown)  '.'
e79d	ff	(unknown)  '.'
e79e	ff	(unknown)  '.'
e79f	ff	(unknown)  '.'
e7a0	ff	(unknown)  '.'
e7a1	ff	(unknown)  '.'
e7a2	ff	(unknown)  '.'
e7a3	ff	(unknown)  '.'
e7a4	ff	(unknown)  '.'
e7a5	ff	(unknown)  '.'
e7a6	ff	(unknown)  '.'
e7a7	ff	(unknown)  '.'
e7a8	ff	(unknown)  '.'
e7a9	ff	(unknown)  '.'
e7aa	ff	(unknown)  '.'
e7ab	ff	(unknown)  '.'
e7ac	ff	(unknown)  '.'
e7ad	ff	(unknown)  '.'
e7ae	ff	(unknown)  '.'
e7af	ff	(unknown)  '.'
e7b0	ff	(unknown)  '.'
e7b1	ff	(unknown)  '.'
e7b2	ff	(unknown)  '.'
e7b3	ff	(unknown)  '.'
e7b4	ff	(unknown)  '.'
e7b5	ff	(unknown)  '.'
e7b6	ff	(unknown)  '.'
e7b7	ff	(unknown)  '.'
e7b8	ff	(unknown)  '.'
e7b9	ff	(unknown)  '.'
e7ba	ff	(unknown)  '.'
e7bb	ff	(unknown)  '.'
e7bc	ff	(unknown)  '.'
e7bd	ff	(unknown)  '.'
e7be	ff	(unknown)  '.'
e7bf	ff	(unknown)  '.'
e7c0	ff	(unknown)  '.'
e7c1	ff	(unknown)  '.'
e7c2	ff	(unknown)  '.'
e7c3	ff	(unknown)  '.'
e7c4	ff	(unknown)  '.'
e7c5	ff	(unknown)  '.'
e7c6	ff	(unknown)  '.'
e7c7	ff	(unknown)  '.'
e7c8	ff	(unknown)  '.'
e7c9	ff	(unknown)  '.'
e7ca	ff	(unknown)  '.'
e7cb	ff	(unknown)  '.'
e7cc	ff	(unknown)  '.'
e7cd	ff	(unknown)  '.'
e7ce	ff	(unknown)  '.'
e7cf	ff	(unknown)  '.'
e7d0	ff	(unknown)  '.'
e7d1	ff	(unknown)  '.'
e7d2	ff	(unknown)  '.'
e7d3	ff	(unknown)  '.'
e7d4	ff	(unknown)  '.'
e7d5	ff	(unknown)  '.'
e7d6	ff	(unknown)  '.'
e7d7	ff	(unknown)  '.'
e7d8	ff	(unknown)  '.'
e7d9	ff	(unknown)  '.'
e7da	ff	(unknown)  '.'
e7db	ff	(unknown)  '.'
e7dc	ff	(unknown)  '.'
e7dd	ff	(unknown)  '.'
e7de	ff	(unknown)  '.'
e7df	ff	(unknown)  '.'
e7e0	ff	(unknown)  '.'
e7e1	ff	(unknown)  '.'
e7e2	ff	(unknown)  '.'
e7e3	ff	(unknown)  '.'
e7e4	ff	(unknown)  '.'
e7e5	ff	(unknown)  '.'
e7e6	ff	(unknown)  '.'
e7e7	ff	(unknown)  '.'
e7e8	ff	(unknown)  '.'
e7e9	ff	(unknown)  '.'
e7ea	ff	(unknown)  '.'
e7eb	ff	(unknown)  '.'
e7ec	ff	(unknown)  '.'
e7ed	ff	(unknown)  '.'
e7ee	ff	(unknown)  '.'
e7ef	ff	(unknown)  '.'
e7f0	ff	(unknown)  '.'
e7f1	ff	(unknown)  '.'
e7f2	ff	(unknown)  '.'
e7f3	ff	(unknown)  '.'
e7f4	ff	(unknown)  '.'
e7f5	ff	(unknown)  '.'
e7f6	ff	(unknown)  '.'
e7f7	ff	(unknown)  '.'
e7f8	ff	(unknown)  '.'
e7f9	ff	(unknown)  '.'
e7fa	ff	(unknown)  '.'
e7fb	ff	(unknown)  '.'
e7fc	ff	(unknown)  '.'
e7fd	ff	(unknown)  '.'
e7fe	ff	(unknown)  '.'
e7ff	ff	(unknown)  '.'
e800	ff	(unknown)  '.'
e801	ff	(unknown)  '.'
e802	ff	(unknown)  '.'
e803	ff	(unknown)  '.'
e804	ff	(unknown)  '.'
e805	ff	(unknown)  '.'
e806	ff	(unknown)  '.'
e807	ff	(unknown)  '.'
e808	ff	(unknown)  '.'
e809	ff	(unknown)  '.'
e80a	ff	(unknown)  '.'
e80b	ff	(unknown)  '.'
e80c	ff	(unknown)  '.'
e80d	ff	(unknown)  '.'
e80e	ff	(unknown)  '.'
e80f	ff	(unknown)  '.'
e810	ff	(unknown)  '.'
e811	ff	(unknown)  '.'
e812	ff	(unknown)  '.'
e813	ff	(unknown)  '.'
e814	ff	(unknown)  '.'
e815	ff	(unknown)  '.'
e816	ff	(unknown)  '.'
e817	ff	(unknown)  '.'
e818	ff	(unknown)  '.'
e819	ff	(unknown)  '.'
e81a	ff	(unknown)  '.'
e81b	ff	(unknown)  '.'
e81c	ff	(unknown)  '.'
e81d	ff	(unknown)  '.'
e81e	ff	(unknown)  '.'
e81f	ff	(unknown)  '.'
e820	ff	(unknown)  '.'
e821	ff	(unknown)  '.'
e822	ff	(unknown)  '.'
e823	ff	(unknown)  '.'
e824	ff	(unknown)  '.'
e825	ff	(unknown)  '.'
e826	ff	(unknown)  '.'
e827	ff	(unknown)  '.'
e828	ff	(unknown)  '.'
e829	ff	(unknown)  '.'
e82a	ff	(unknown)  '.'
e82b	ff	(unknown)  '.'
e82c	ff	(unknown)  '.'
e82d	ff	(unknown)  '.'
e82e	ff	(unknown)  '.'
e82f	ff	(unknown)  '.'
e830	ff	(unknown)  '.'
e831	ff	(unknown)  '.'
e832	ff	(unknown)  '.'
e833	ff	(unknown)  '.'
e834	ff	(unknown)  '.'
e835	ff	(unknown)  '.'
e836	ff	(unknown)  '.'
e837	ff	(unknown)  '.'
e838	ff	(unknown)  '.'
e839	ff	(unknown)  '.'
e83a	ff	(unknown)  '.'
e83b	ff	(unknown)  '.'
e83c	ff	(unknown)  '.'
e83d	ff	(unknown)  '.'
e83e	ff	(unknown)  '.'
e83f	ff	(unknown)  '.'
e840	ff	(unknown)  '.'
e841	ff	(unknown)  '.'
e842	ff	(unknown)  '.'
e843	ff	(unknown)  '.'
e844	ff	(unknown)  '.'
e845	ff	(unknown)  '.'
e846	ff	(unknown)  '.'
e847	ff	(unknown)  '.'
e848	ff	(unknown)  '.'
e849	ff	(unknown)  '.'
e84a	ff	(unknown)  '.'
e84b	ff	(unknown)  '.'
e84c	ff	(unknown)  '.'
e84d	ff	(unknown)  '.'
e84e	ff	(unknown)  '.'
e84f	ff	(unknown)  '.'
e850	ff	(unknown)  '.'
e851	ff	(unknown)  '.'
e852	ff	(unknown)  '.'
e853	ff	(unknown)  '.'
e854	ff	(unknown)  '.'
e855	ff	(unknown)  '.'
e856	ff	(unknown)  '.'
e857	ff	(unknown)  '.'
e858	ff	(unknown)  '.'
e859	ff	(unknown)  '.'
e85a	ff	(unknown)  '.'
e85b	ff	(unknown)  '.'
e85c	ff	(unknown)  '.'
e85d	ff	(unknown)  '.'
e85e	ff	(unknown)  '.'
e85f	ff	(unknown)  '.'
e860	ff	(unknown)  '.'
e861	ff	(unknown)  '.'
e862	ff	(unknown)  '.'
e863	ff	(unknown)  '.'
e864	ff	(unknown)  '.'
e865	ff	(unknown)  '.'
e866	ff	(unknown)  '.'
e867	ff	(unknown)  '.'
e868	ff	(unknown)  '.'
e869	ff	(unknown)  '.'
e86a	ff	(unknown)  '.'
e86b	ff	(unknown)  '.'
e86c	ff	(unknown)  '.'
e86d	ff	(unknown)  '.'
e86e	ff	(unknown)  '.'
e86f	ff	(unknown)  '.'
e870	ff	(unknown)  '.'
e871	ff	(unknown)  '.'
e872	ff	(unknown)  '.'
e873	ff	(unknown)  '.'
e874	ff	(unknown)  '.'
e875	ff	(unknown)  '.'
e876	ff	(unknown)  '.'
e877	ff	(unknown)  '.'
e878	ff	(unknown)  '.'
e879	ff	(unknown)  '.'
e87a	ff	(unknown)  '.'
e87b	ff	(unknown)  '.'
e87c	ff	(unknown)  '.'
e87d	ff	(unknown)  '.'
e87e	ff	(unknown)  '.'
e87f	ff	(unknown)  '.'
e880	ff	(unknown)  '.'
e881	ff	(unknown)  '.'
e882	ff	(unknown)  '.'
e883	ff	(unknown)  '.'
e884	ff	(unknown)  '.'
e885	ff	(unknown)  '.'
e886	ff	(unknown)  '.'
e887	ff	(unknown)  '.'
e888	ff	(unknown)  '.'
e889	ff	(unknown)  '.'
e88a	ff	(unknown)  '.'
e88b	ff	(unknown)  '.'
e88c	ff	(unknown)  '.'
e88d	ff	(unknown)  '.'
e88e	ff	(unknown)  '.'
e88f	ff	(unknown)  '.'
e890	ff	(unknown)  '.'
e891	ff	(unknown)  '.'
e892	ff	(unknown)  '.'
e893	ff	(unknown)  '.'
e894	ff	(unknown)  '.'
e895	ff	(unknown)  '.'
e896	ff	(unknown)  '.'
e897	ff	(unknown)  '.'
e898	ff	(unknown)  '.'
e899	ff	(unknown)  '.'
e89a	ff	(unknown)  '.'
e89b	ff	(unknown)  '.'
e89c	ff	(unknown)  '.'
e89d	ff	(unknown)  '.'
e89e	ff	(unknown)  '.'
e89f	ff	(unknown)  '.'
e8a0	ff	(unknown)  '.'
e8a1	ff	(unknown)  '.'
e8a2	ff	(unknown)  '.'
e8a3	ff	(unknown)  '.'
e8a4	ff	(unknown)  '.'
e8a5	ff	(unknown)  '.'
e8a6	ff	(unknown)  '.'
e8a7	ff	(unknown)  '.'
e8a8	ff	(unknown)  '.'
e8a9	ff	(unknown)  '.'
e8aa	ff	(unknown)  '.'
e8ab	ff	(unknown)  '.'
e8ac	ff	(unknown)  '.'
e8ad	ff	(unknown)  '.'
e8ae	ff	(unknown)  '.'
e8af	ff	(unknown)  '.'
e8b0	ff	(unknown)  '.'
e8b1	ff	(unknown)  '.'
e8b2	ff	(unknown)  '.'
e8b3	ff	(unknown)  '.'
e8b4	ff	(unknown)  '.'
e8b5	ff	(unknown)  '.'
e8b6	ff	(unknown)  '.'
e8b7	ff	(unknown)  '.'
e8b8	ff	(unknown)  '.'
e8b9	ff	(unknown)  '.'
e8ba	ff	(unknown)  '.'
e8bb	ff	(unknown)  '.'
e8bc	ff	(unknown)  '.'
e8bd	ff	(unknown)  '.'
e8be	ff	(unknown)  '.'
e8bf	ff	(unknown)  '.'
e8c0	ff	(unknown)  '.'
e8c1	ff	(unknown)  '.'
e8c2	ff	(unknown)  '.'
e8c3	ff	(unknown)  '.'
e8c4	ff	(unknown)  '.'
e8c5	ff	(unknown)  '.'
e8c6	ff	(unknown)  '.'
e8c7	ff	(unknown)  '.'
e8c8	ff	(unknown)  '.'
e8c9	ff	(unknown)  '.'
e8ca	ff	(unknown)  '.'
e8cb	ff	(unknown)  '.'
e8cc	ff	(unknown)  '.'
e8cd	ff	(unknown)  '.'
e8ce	ff	(unknown)  '.'
e8cf	ff	(unknown)  '.'
e8d0	ff	(unknown)  '.'
e8d1	ff	(unknown)  '.'
e8d2	ff	(unknown)  '.'
e8d3	ff	(unknown)  '.'
e8d4	ff	(unknown)  '.'
e8d5	ff	(unknown)  '.'
e8d6	ff	(unknown)  '.'
e8d7	ff	(unknown)  '.'
e8d8	ff	(unknown)  '.'
e8d9	ff	(unknown)  '.'
e8da	ff	(unknown)  '.'
e8db	ff	(unknown)  '.'
e8dc	ff	(unknown)  '.'
e8dd	ff	(unknown)  '.'
e8de	ff	(unknown)  '.'
e8df	ff	(unknown)  '.'
e8e0	ff	(unknown)  '.'
e8e1	ff	(unknown)  '.'
e8e2	ff	(unknown)  '.'
e8e3	ff	(unknown)  '.'
e8e4	ff	(unknown)  '.'
e8e5	ff	(unknown)  '.'
e8e6	ff	(unknown)  '.'
e8e7	ff	(unknown)  '.'
e8e8	ff	(unknown)  '.'
e8e9	ff	(unknown)  '.'
e8ea	ff	(unknown)  '.'
e8eb	ff	(unknown)  '.'
e8ec	ff	(unknown)  '.'
e8ed	ff	(unknown)  '.'
e8ee	ff	(unknown)  '.'
e8ef	ff	(unknown)  '.'
e8f0	ff	(unknown)  '.'
e8f1	ff	(unknown)  '.'
e8f2	ff	(unknown)  '.'
e8f3	ff	(unknown)  '.'
e8f4	ff	(unknown)  '.'
e8f5	ff	(unknown)  '.'
e8f6	ff	(unknown)  '.'
e8f7	ff	(unknown)  '.'
e8f8	ff	(unknown)  '.'
e8f9	ff	(unknown)  '.'
e8fa	ff	(unknown)  '.'
e8fb	ff	(unknown)  '.'
e8fc	ff	(unknown)  '.'
e8fd	ff	(unknown)  '.'
e8fe	ff	(unknown)  '.'
e8ff	ff	(unknown)  '.'
e900	ff	(unknown)  '.'
e901	ff	(unknown)  '.'
e902	ff	(unknown)  '.'
e903	ff	(unknown)  '.'
e904	ff	(unknown)  '.'
e905	ff	(unknown)  '.'
e906	ff	(unknown)  '.'
e907	ff	(unknown)  '.'
e908	ff	(unknown)  '.'
e909	ff	(unknown)  '.'
e90a	ff	(unknown)  '.'
e90b	ff	(unknown)  '.'
e90c	ff	(unknown)  '.'
e90d	ff	(unknown)  '.'
e90e	ff	(unknown)  '.'
e90f	ff	(unknown)  '.'
e910	ff	(unknown)  '.'
e911	ff	(unknown)  '.'
e912	ff	(unknown)  '.'
e913	ff	(unknown)  '.'
e914	ff	(unknown)  '.'
e915	ff	(unknown)  '.'
e916	ff	(unknown)  '.'
e917	ff	(unknown)  '.'
e918	ff	(unknown)  '.'
e919	ff	(unknown)  '.'
e91a	ff	(unknown)  '.'
e91b	ff	(unknown)  '.'
e91c	ff	(unknown)  '.'
e91d	ff	(unknown)  '.'
e91e	ff	(unknown)  '.'
e91f	ff	(unknown)  '.'
e920	ff	(unknown)  '.'
e921	ff	(unknown)  '.'
e922	ff	(unknown)  '.'
e923	ff	(unknown)  '.'
e924	ff	(unknown)  '.'
e925	ff	(unknown)  '.'
e926	ff	(unknown)  '.'
e927	ff	(unknown)  '.'
e928	ff	(unknown)  '.'
e929	ff	(unknown)  '.'
e92a	ff	(unknown)  '.'
e92b	ff	(unknown)  '.'
e92c	ff	(unknown)  '.'
e92d	ff	(unknown)  '.'
e92e	ff	(unknown)  '.'
e92f	ff	(unknown)  '.'
e930	ff	(unknown)  '.'
e931	ff	(unknown)  '.'
e932	ff	(unknown)  '.'
e933	ff	(unknown)  '.'
e934	ff	(unknown)  '.'
e935	ff	(unknown)  '.'
e936	ff	(unknown)  '.'
e937	ff	(unknown)  '.'
e938	ff	(unknown)  '.'
e939	ff	(unknown)  '.'
e93a	ff	(unknown)  '.'
e93b	ff	(unknown)  '.'
e93c	ff	(unknown)  '.'
e93d	ff	(unknown)  '.'
e93e	ff	(unknown)  '.'
e93f	ff	(unknown)  '.'
e940	ff	(unknown)  '.'
e941	ff	(unknown)  '.'
e942	ff	(unknown)  '.'
e943	ff	(unknown)  '.'
e944	ff	(unknown)  '.'
e945	ff	(unknown)  '.'
e946	ff	(unknown)  '.'
e947	ff	(unknown)  '.'
e948	ff	(unknown)  '.'
e949	ff	(unknown)  '.'
e94a	ff	(unknown)  '.'
e94b	ff	(unknown)  '.'
e94c	ff	(unknown)  '.'
e94d	ff	(unknown)  '.'
e94e	ff	(unknown)  '.'
e94f	ff	(unknown)  '.'
e950	ff	(unknown)  '.'
e951	ff	(unknown)  '.'
e952	ff	(unknown)  '.'
e953	ff	(unknown)  '.'
e954	ff	(unknown)  '.'
e955	ff	(unknown)  '.'
e956	ff	(unknown)  '.'
e957	ff	(unknown)  '.'
e958	ff	(unknown)  '.'
e959	ff	(unknown)  '.'
e95a	ff	(unknown)  '.'
e95b	ff	(unknown)  '.'
e95c	ff	(unknown)  '.'
e95d	ff	(unknown)  '.'
e95e	ff	(unknown)  '.'
e95f	ff	(unknown)  '.'
e960	ff	(unknown)  '.'
e961	ff	(unknown)  '.'
e962	ff	(unknown)  '.'
e963	ff	(unknown)  '.'
e964	ff	(unknown)  '.'
e965	ff	(unknown)  '.'
e966	ff	(unknown)  '.'
e967	ff	(unknown)  '.'
e968	ff	(unknown)  '.'
e969	ff	(unknown)  '.'
e96a	ff	(unknown)  '.'
e96b	ff	(unknown)  '.'
e96c	ff	(unknown)  '.'
e96d	ff	(unknown)  '.'
e96e	ff	(unknown)  '.'
e96f	ff	(unknown)  '.'
e970	ff	(unknown)  '.'
e971	ff	(unknown)  '.'
e972	ff	(unknown)  '.'
e973	ff	(unknown)  '.'
e974	ff	(unknown)  '.'
e975	ff	(unknown)  '.'
e976	ff	(unknown)  '.'
e977	ff	(unknown)  '.'
e978	ff	(unknown)  '.'
e979	ff	(unknown)  '.'
e97a	ff	(unknown)  '.'
e97b	ff	(unknown)  '.'
e97c	ff	(unknown)  '.'
e97d	ff	(unknown)  '.'
e97e	ff	(unknown)  '.'
e97f	ff	(unknown)  '.'
e980	ff	(unknown)  '.'
e981	ff	(unknown)  '.'
e982	ff	(unknown)  '.'
e983	ff	(unknown)  '.'
e984	ff	(unknown)  '.'
e985	ff	(unknown)  '.'
e986	ff	(unknown)  '.'
e987	ff	(unknown)  '.'
e988	ff	(unknown)  '.'
e989	ff	(unknown)  '.'
e98a	ff	(unknown)  '.'
e98b	ff	(unknown)  '.'
e98c	ff	(unknown)  '.'
e98d	ff	(unknown)  '.'
e98e	ff	(unknown)  '.'
e98f	ff	(unknown)  '.'
e990	ff	(unknown)  '.'
e991	ff	(unknown)  '.'
e992	ff	(unknown)  '.'
e993	ff	(unknown)  '.'
e994	ff	(unknown)  '.'
e995	ff	(unknown)  '.'
e996	ff	(unknown)  '.'
e997	ff	(unknown)  '.'
e998	ff	(unknown)  '.'
e999	ff	(unknown)  '.'
e99a	ff	(unknown)  '.'
e99b	ff	(unknown)  '.'
e99c	ff	(unknown)  '.'
e99d	ff	(unknown)  '.'
e99e	ff	(unknown)  '.'
e99f	ff	(unknown)  '.'
e9a0	ff	(unknown)  '.'
e9a1	ff	(unknown)  '.'
e9a2	ff	(unknown)  '.'
e9a3	ff	(unknown)  '.'
e9a4	ff	(unknown)  '.'
e9a5	ff	(unknown)  '.'
e9a6	ff	(unknown)  '.'
e9a7	ff	(unknown)  '.'
e9a8	ff	(unknown)  '.'
e9a9	ff	(unknown)  '.'
e9aa	ff	(unknown)  '.'
e9ab	ff	(unknown)  '.'
e9ac	ff	(unknown)  '.'
e9ad	ff	(unknown)  '.'
e9ae	ff	(unknown)  '.'
e9af	ff	(unknown)  '.'
e9b0	ff	(unknown)  '.'
e9b1	ff	(unknown)  '.'
e9b2	ff	(unknown)  '.'
e9b3	ff	(unknown)  '.'
e9b4	ff	(unknown)  '.'
e9b5	ff	(unknown)  '.'
e9b6	ff	(unknown)  '.'
e9b7	ff	(unknown)  '.'
e9b8	ff	(unknown)  '.'
e9b9	ff	(unknown)  '.'
e9ba	ff	(unknown)  '.'
e9bb	ff	(unknown)  '.'
e9bc	ff	(unknown)  '.'
e9bd	ff	(unknown)  '.'
e9be	ff	(unknown)  '.'
e9bf	ff	(unknown)  '.'
e9c0	ff	(unknown)  '.'
e9c1	ff	(unknown)  '.'
e9c2	ff	(unknown)  '.'
e9c3	ff	(unknown)  '.'
e9c4	ff	(unknown)  '.'
e9c5	ff	(unknown)  '.'
e9c6	ff	(unknown)  '.'
e9c7	ff	(unknown)  '.'
e9c8	ff	(unknown)  '.'
e9c9	ff	(unknown)  '.'
e9ca	ff	(unknown)  '.'
e9cb	ff	(unknown)  '.'
e9cc	ff	(unknown)  '.'
e9cd	ff	(unknown)  '.'
e9ce	ff	(unknown)  '.'
e9cf	ff	(unknown)  '.'
e9d0	ff	(unknown)  '.'
e9d1	ff	(unknown)  '.'
e9d2	ff	(unknown)  '.'
e9d3	ff	(unknown)  '.'
e9d4	ff	(unknown)  '.'
e9d5	ff	(unknown)  '.'
e9d6	ff	(unknown)  '.'
e9d7	ff	(unknown)  '.'
e9d8	ff	(unknown)  '.'
e9d9	ff	(unknown)  '.'
e9da	ff	(unknown)  '.'
e9db	ff	(unknown)  '.'
e9dc	ff	(unknown)  '.'
e9dd	ff	(unknown)  '.'
e9de	ff	(unknown)  '.'
e9df	ff	(unknown)  '.'
e9e0	ff	(unknown)  '.'
e9e1	ff	(unknown)  '.'
e9e2	ff	(unknown)  '.'
e9e3	ff	(unknown)  '.'
e9e4	ff	(unknown)  '.'
e9e5	ff	(unknown)  '.'
e9e6	ff	(unknown)  '.'
e9e7	ff	(unknown)  '.'
e9e8	ff	(unknown)  '.'
e9e9	ff	(unknown)  '.'
e9ea	ff	(unknown)  '.'
e9eb	ff	(unknown)  '.'
e9ec	ff	(unknown)  '.'
e9ed	ff	(unknown)  '.'
e9ee	ff	(unknown)  '.'
e9ef	ff	(unknown)  '.'
e9f0	ff	(unknown)  '.'
e9f1	ff	(unknown)  '.'
e9f2	ff	(unknown)  '.'
e9f3	ff	(unknown)  '.'
e9f4	ff	(unknown)  '.'
e9f5	ff	(unknown)  '.'
e9f6	ff	(unknown)  '.'
e9f7	ff	(unknown)  '.'
e9f8	ff	(unknown)  '.'
e9f9	ff	(unknown)  '.'
e9fa	ff	(unknown)  '.'
e9fb	ff	(unknown)  '.'
e9fc	ff	(unknown)  '.'
e9fd	ff	(unknown)  '.'
e9fe	ff	(unknown)  '.'
e9ff	ff	(unknown)  '.'
ea00	ff	(unknown)  '.'
ea01	ff	(unknown)  '.'
ea02	ff	(unknown)  '.'
ea03	ff	(unknown)  '.'
ea04	ff	(unknown)  '.'
ea05	ff	(unknown)  '.'
ea06	ff	(unknown)  '.'
ea07	ff	(unknown)  '.'
ea08	ff	(unknown)  '.'
ea09	ff	(unknown)  '.'
ea0a	ff	(unknown)  '.'
ea0b	ff	(unknown)  '.'
ea0c	ff	(unknown)  '.'
ea0d	ff	(unknown)  '.'
ea0e	ff	(unknown)  '.'
ea0f	ff	(unknown)  '.'
ea10	ff	(unknown)  '.'
ea11	ff	(unknown)  '.'
ea12	ff	(unknown)  '.'
ea13	ff	(unknown)  '.'
ea14	ff	(unknown)  '.'
ea15	ff	(unknown)  '.'
ea16	ff	(unknown)  '.'
ea17	ff	(unknown)  '.'
ea18	ff	(unknown)  '.'
ea19	ff	(unknown)  '.'
ea1a	ff	(unknown)  '.'
ea1b	ff	(unknown)  '.'
ea1c	ff	(unknown)  '.'
ea1d	ff	(unknown)  '.'
ea1e	ff	(unknown)  '.'
ea1f	ff	(unknown)  '.'
ea20	ff	(unknown)  '.'
ea21	ff	(unknown)  '.'
ea22	ff	(unknown)  '.'
ea23	ff	(unknown)  '.'
ea24	ff	(unknown)  '.'
ea25	ff	(unknown)  '.'
ea26	ff	(unknown)  '.'
ea27	ff	(unknown)  '.'
ea28	ff	(unknown)  '.'
ea29	ff	(unknown)  '.'
ea2a	ff	(unknown)  '.'
ea2b	ff	(unknown)  '.'
ea2c	ff	(unknown)  '.'
ea2d	ff	(unknown)  '.'
ea2e	ff	(unknown)  '.'
ea2f	ff	(unknown)  '.'
ea30	ff	(unknown)  '.'
ea31	ff	(unknown)  '.'
ea32	ff	(unknown)  '.'
ea33	ff	(unknown)  '.'
ea34	ff	(unknown)  '.'
ea35	ff	(unknown)  '.'
ea36	ff	(unknown)  '.'
ea37	ff	(unknown)  '.'
ea38	ff	(unknown)  '.'
ea39	ff	(unknown)  '.'
ea3a	ff	(unknown)  '.'
ea3b	ff	(unknown)  '.'
ea3c	ff	(unknown)  '.'
ea3d	ff	(unknown)  '.'
ea3e	ff	(unknown)  '.'
ea3f	ff	(unknown)  '.'
ea40	ff	(unknown)  '.'
ea41	ff	(unknown)  '.'
ea42	ff	(unknown)  '.'
ea43	ff	(unknown)  '.'
ea44	ff	(unknown)  '.'
ea45	ff	(unknown)  '.'
ea46	ff	(unknown)  '.'
ea47	ff	(unknown)  '.'
ea48	ff	(unknown)  '.'
ea49	ff	(unknown)  '.'
ea4a	ff	(unknown)  '.'
ea4b	ff	(unknown)  '.'
ea4c	ff	(unknown)  '.'
ea4d	ff	(unknown)  '.'
ea4e	ff	(unknown)  '.'
ea4f	ff	(unknown)  '.'
ea50	ff	(unknown)  '.'
ea51	ff	(unknown)  '.'
ea52	ff	(unknown)  '.'
ea53	ff	(unknown)  '.'
ea54	ff	(unknown)  '.'
ea55	ff	(unknown)  '.'
ea56	ff	(unknown)  '.'
ea57	ff	(unknown)  '.'
ea58	ff	(unknown)  '.'
ea59	ff	(unknown)  '.'
ea5a	ff	(unknown)  '.'
ea5b	ff	(unknown)  '.'
ea5c	ff	(unknown)  '.'
ea5d	ff	(unknown)  '.'
ea5e	ff	(unknown)  '.'
ea5f	ff	(unknown)  '.'
ea60	ff	(unknown)  '.'
ea61	ff	(unknown)  '.'
ea62	ff	(unknown)  '.'
ea63	ff	(unknown)  '.'
ea64	ff	(unknown)  '.'
ea65	ff	(unknown)  '.'
ea66	ff	(unknown)  '.'
ea67	ff	(unknown)  '.'
ea68	ff	(unknown)  '.'
ea69	ff	(unknown)  '.'
ea6a	ff	(unknown)  '.'
ea6b	ff	(unknown)  '.'
ea6c	ff	(unknown)  '.'
ea6d	ff	(unknown)  '.'
ea6e	ff	(unknown)  '.'
ea6f	ff	(unknown)  '.'
ea70	ff	(unknown)  '.'
ea71	ff	(unknown)  '.'
ea72	ff	(unknown)  '.'
ea73	ff	(unknown)  '.'
ea74	ff	(unknown)  '.'
ea75	ff	(unknown)  '.'
ea76	ff	(unknown)  '.'
ea77	ff	(unknown)  '.'
ea78	ff	(unknown)  '.'
ea79	ff	(unknown)  '.'
ea7a	ff	(unknown)  '.'
ea7b	ff	(unknown)  '.'
ea7c	ff	(unknown)  '.'
ea7d	ff	(unknown)  '.'
ea7e	ff	(unknown)  '.'
ea7f	ff	(unknown)  '.'
ea80	ff	(unknown)  '.'
ea81	ff	(unknown)  '.'
ea82	ff	(unknown)  '.'
ea83	ff	(unknown)  '.'
ea84	ff	(unknown)  '.'
ea85	ff	(unknown)  '.'
ea86	ff	(unknown)  '.'
ea87	ff	(unknown)  '.'
ea88	ff	(unknown)  '.'
ea89	ff	(unknown)  '.'
ea8a	ff	(unknown)  '.'
ea8b	ff	(unknown)  '.'
ea8c	ff	(unknown)  '.'
ea8d	ff	(unknown)  '.'
ea8e	ff	(unknown)  '.'
ea8f	ff	(unknown)  '.'
ea90	ff	(unknown)  '.'
ea91	ff	(unknown)  '.'
ea92	ff	(unknown)  '.'
ea93	ff	(unknown)  '.'
ea94	ff	(unknown)  '.'
ea95	ff	(unknown)  '.'
ea96	ff	(unknown)  '.'
ea97	ff	(unknown)  '.'
ea98	ff	(unknown)  '.'
ea99	ff	(unknown)  '.'
ea9a	ff	(unknown)  '.'
ea9b	ff	(unknown)  '.'
ea9c	ff	(unknown)  '.'
ea9d	ff	(unknown)  '.'
ea9e	ff	(unknown)  '.'
ea9f	ff	(unknown)  '.'
eaa0	ff	(unknown)  '.'
eaa1	ff	(unknown)  '.'
eaa2	ff	(unknown)  '.'
eaa3	ff	(unknown)  '.'
eaa4	ff	(unknown)  '.'
eaa5	ff	(unknown)  '.'
eaa6	ff	(unknown)  '.'
eaa7	ff	(unknown)  '.'
eaa8	ff	(unknown)  '.'
eaa9	ff	(unknown)  '.'
eaaa	ff	(unknown)  '.'
eaab	ff	(unknown)  '.'
eaac	ff	(unknown)  '.'
eaad	ff	(unknown)  '.'
eaae	ff	(unknown)  '.'
eaaf	ff	(unknown)  '.'
eab0	ff	(unknown)  '.'
eab1	ff	(unknown)  '.'
eab2	ff	(unknown)  '.'
eab3	ff	(unknown)  '.'
eab4	ff	(unknown)  '.'
eab5	ff	(unknown)  '.'
eab6	ff	(unknown)  '.'
eab7	ff	(unknown)  '.'
eab8	ff	(unknown)  '.'
eab9	ff	(unknown)  '.'
eaba	ff	(unknown)  '.'
eabb	ff	(unknown)  '.'
eabc	ff	(unknown)  '.'
eabd	ff	(unknown)  '.'
eabe	ff	(unknown)  '.'
eabf	ff	(unknown)  '.'
eac0	ff	(unknown)  '.'
eac1	ff	(unknown)  '.'
eac2	ff	(unknown)  '.'
eac3	ff	(unknown)  '.'
eac4	ff	(unknown)  '.'
eac5	ff	(unknown)  '.'
eac6	ff	(unknown)  '.'
eac7	ff	(unknown)  '.'
eac8	ff	(unknown)  '.'
eac9	ff	(unknown)  '.'
eaca	ff	(unknown)  '.'
eacb	ff	(unknown)  '.'
eacc	ff	(unknown)  '.'
eacd	ff	(unknown)  '.'
eace	ff	(unknown)  '.'
eacf	ff	(unknown)  '.'
ead0	ff	(unknown)  '.'
ead1	ff	(unknown)  '.'
ead2	ff	(unknown)  '.'
ead3	ff	(unknown)  '.'
ead4	ff	(unknown)  '.'
ead5	ff	(unknown)  '.'
ead6	ff	(unknown)  '.'
ead7	ff	(unknown)  '.'
ead8	ff	(unknown)  '.'
ead9	ff	(unknown)  '.'
eada	ff	(unknown)  '.'
eadb	ff	(unknown)  '.'
eadc	ff	(unknown)  '.'
eadd	ff	(unknown)  '.'
eade	ff	(unknown)  '.'
eadf	ff	(unknown)  '.'
eae0	ff	(unknown)  '.'
eae1	ff	(unknown)  '.'
eae2	ff	(unknown)  '.'
eae3	ff	(unknown)  '.'
eae4	ff	(unknown)  '.'
eae5	ff	(unknown)  '.'
eae6	ff	(unknown)  '.'
eae7	ff	(unknown)  '.'
eae8	ff	(unknown)  '.'
eae9	ff	(unknown)  '.'
eaea	ff	(unknown)  '.'
eaeb	ff	(unknown)  '.'
eaec	ff	(unknown)  '.'
eaed	ff	(unknown)  '.'
eaee	ff	(unknown)  '.'
eaef	ff	(unknown)  '.'
eaf0	ff	(unknown)  '.'
eaf1	ff	(unknown)  '.'
eaf2	ff	(unknown)  '.'
eaf3	ff	(unknown)  '.'
eaf4	ff	(unknown)  '.'
eaf5	ff	(unknown)  '.'
eaf6	ff	(unknown)  '.'
eaf7	ff	(unknown)  '.'
eaf8	ff	(unknown)  '.'
eaf9	ff	(unknown)  '.'
eafa	ff	(unknown)  '.'
eafb	ff	(unknown)  '.'
eafc	ff	(unknown)  '.'
eafd	ff	(unknown)  '.'
eafe	ff	(unknown)  '.'
eaff	ff	(unknown)  '.'
eb00	ff	(unknown)  '.'
eb01	ff	(unknown)  '.'
eb02	ff	(unknown)  '.'
eb03	ff	(unknown)  '.'
eb04	ff	(unknown)  '.'
eb05	ff	(unknown)  '.'
eb06	ff	(unknown)  '.'
eb07	ff	(unknown)  '.'
eb08	ff	(unknown)  '.'
eb09	ff	(unknown)  '.'
eb0a	ff	(unknown)  '.'
eb0b	ff	(unknown)  '.'
eb0c	ff	(unknown)  '.'
eb0d	ff	(unknown)  '.'
eb0e	ff	(unknown)  '.'
eb0f	ff	(unknown)  '.'
eb10	ff	(unknown)  '.'
eb11	ff	(unknown)  '.'
eb12	ff	(unknown)  '.'
eb13	ff	(unknown)  '.'
eb14	ff	(unknown)  '.'
eb15	ff	(unknown)  '.'
eb16	ff	(unknown)  '.'
eb17	ff	(unknown)  '.'
eb18	ff	(unknown)  '.'
eb19	ff	(unknown)  '.'
eb1a	ff	(unknown)  '.'
eb1b	ff	(unknown)  '.'
eb1c	ff	(unknown)  '.'
eb1d	ff	(unknown)  '.'
eb1e	ff	(unknown)  '.'
eb1f	ff	(unknown)  '.'
eb20	ff	(unknown)  '.'
eb21	ff	(unknown)  '.'
eb22	ff	(unknown)  '.'
eb23	ff	(unknown)  '.'
eb24	ff	(unknown)  '.'
eb25	ff	(unknown)  '.'
eb26	ff	(unknown)  '.'
eb27	ff	(unknown)  '.'
eb28	ff	(unknown)  '.'
eb29	ff	(unknown)  '.'
eb2a	ff	(unknown)  '.'
eb2b	ff	(unknown)  '.'
eb2c	ff	(unknown)  '.'
eb2d	ff	(unknown)  '.'
eb2e	ff	(unknown)  '.'
eb2f	ff	(unknown)  '.'
eb30	ff	(unknown)  '.'
eb31	ff	(unknown)  '.'
eb32	ff	(unknown)  '.'
eb33	ff	(unknown)  '.'
eb34	ff	(unknown)  '.'
eb35	ff	(unknown)  '.'
eb36	ff	(unknown)  '.'
eb37	ff	(unknown)  '.'
eb38	ff	(unknown)  '.'
eb39	ff	(unknown)  '.'
eb3a	ff	(unknown)  '.'
eb3b	ff	(unknown)  '.'
eb3c	ff	(unknown)  '.'
eb3d	ff	(unknown)  '.'
eb3e	ff	(unknown)  '.'
eb3f	ff	(unknown)  '.'
eb40	ff	(unknown)  '.'
eb41	ff	(unknown)  '.'
eb42	ff	(unknown)  '.'
eb43	ff	(unknown)  '.'
eb44	ff	(unknown)  '.'
eb45	ff	(unknown)  '.'
eb46	ff	(unknown)  '.'
eb47	ff	(unknown)  '.'
eb48	ff	(unknown)  '.'
eb49	ff	(unknown)  '.'
eb4a	ff	(unknown)  '.'
eb4b	ff	(unknown)  '.'
eb4c	ff	(unknown)  '.'
eb4d	ff	(unknown)  '.'
eb4e	ff	(unknown)  '.'
eb4f	ff	(unknown)  '.'
eb50	ff	(unknown)  '.'
eb51	ff	(unknown)  '.'
eb52	ff	(unknown)  '.'
eb53	ff	(unknown)  '.'
eb54	ff	(unknown)  '.'
eb55	ff	(unknown)  '.'
eb56	ff	(unknown)  '.'
eb57	ff	(unknown)  '.'
eb58	ff	(unknown)  '.'
eb59	ff	(unknown)  '.'
eb5a	ff	(unknown)  '.'
eb5b	ff	(unknown)  '.'
eb5c	ff	(unknown)  '.'
eb5d	ff	(unknown)  '.'
eb5e	ff	(unknown)  '.'
eb5f	ff	(unknown)  '.'
eb60	ff	(unknown)  '.'
eb61	ff	(unknown)  '.'
eb62	ff	(unknown)  '.'
eb63	ff	(unknown)  '.'
eb64	ff	(unknown)  '.'
eb65	ff	(unknown)  '.'
eb66	ff	(unknown)  '.'
eb67	ff	(unknown)  '.'
eb68	ff	(unknown)  '.'
eb69	ff	(unknown)  '.'
eb6a	ff	(unknown)  '.'
eb6b	ff	(unknown)  '.'
eb6c	ff	(unknown)  '.'
eb6d	ff	(unknown)  '.'
eb6e	ff	(unknown)  '.'
eb6f	ff	(unknown)  '.'
eb70	ff	(unknown)  '.'
eb71	ff	(unknown)  '.'
eb72	ff	(unknown)  '.'
eb73	ff	(unknown)  '.'
eb74	ff	(unknown)  '.'
eb75	ff	(unknown)  '.'
eb76	ff	(unknown)  '.'
eb77	ff	(unknown)  '.'
eb78	ff	(unknown)  '.'
eb79	ff	(unknown)  '.'
eb7a	ff	(unknown)  '.'
eb7b	ff	(unknown)  '.'
eb7c	ff	(unknown)  '.'
eb7d	ff	(unknown)  '.'
eb7e	ff	(unknown)  '.'
eb7f	ff	(unknown)  '.'
eb80	ff	(unknown)  '.'
eb81	ff	(unknown)  '.'
eb82	ff	(unknown)  '.'
eb83	ff	(unknown)  '.'
eb84	ff	(unknown)  '.'
eb85	ff	(unknown)  '.'
eb86	ff	(unknown)  '.'
eb87	ff	(unknown)  '.'
eb88	ff	(unknown)  '.'
eb89	ff	(unknown)  '.'
eb8a	ff	(unknown)  '.'
eb8b	ff	(unknown)  '.'
eb8c	ff	(unknown)  '.'
eb8d	ff	(unknown)  '.'
eb8e	ff	(unknown)  '.'
eb8f	ff	(unknown)  '.'
eb90	ff	(unknown)  '.'
eb91	ff	(unknown)  '.'
eb92	ff	(unknown)  '.'
eb93	ff	(unknown)  '.'
eb94	ff	(unknown)  '.'
eb95	ff	(unknown)  '.'
eb96	ff	(unknown)  '.'
eb97	ff	(unknown)  '.'
eb98	ff	(unknown)  '.'
eb99	ff	(unknown)  '.'
eb9a	ff	(unknown)  '.'
eb9b	ff	(unknown)  '.'
eb9c	ff	(unknown)  '.'
eb9d	ff	(unknown)  '.'
eb9e	ff	(unknown)  '.'
eb9f	ff	(unknown)  '.'
eba0	ff	(unknown)  '.'
eba1	ff	(unknown)  '.'
eba2	ff	(unknown)  '.'
eba3	ff	(unknown)  '.'
eba4	ff	(unknown)  '.'
eba5	ff	(unknown)  '.'
eba6	ff	(unknown)  '.'
eba7	ff	(unknown)  '.'
eba8	ff	(unknown)  '.'
eba9	ff	(unknown)  '.'
ebaa	ff	(unknown)  '.'
ebab	ff	(unknown)  '.'
ebac	ff	(unknown)  '.'
ebad	ff	(unknown)  '.'
ebae	ff	(unknown)  '.'
ebaf	ff	(unknown)  '.'
ebb0	ff	(unknown)  '.'
ebb1	ff	(unknown)  '.'
ebb2	ff	(unknown)  '.'
ebb3	ff	(unknown)  '.'
ebb4	ff	(unknown)  '.'
ebb5	ff	(unknown)  '.'
ebb6	ff	(unknown)  '.'
ebb7	ff	(unknown)  '.'
ebb8	ff	(unknown)  '.'
ebb9	ff	(unknown)  '.'
ebba	ff	(unknown)  '.'
ebbb	ff	(unknown)  '.'
ebbc	ff	(unknown)  '.'
ebbd	ff	(unknown)  '.'
ebbe	ff	(unknown)  '.'
ebbf	ff	(unknown)  '.'
ebc0	ff	(unknown)  '.'
ebc1	ff	(unknown)  '.'
ebc2	ff	(unknown)  '.'
ebc3	ff	(unknown)  '.'
ebc4	ff	(unknown)  '.'
ebc5	ff	(unknown)  '.'
ebc6	ff	(unknown)  '.'
ebc7	ff	(unknown)  '.'
ebc8	ff	(unknown)  '.'
ebc9	ff	(unknown)  '.'
ebca	ff	(unknown)  '.'
ebcb	ff	(unknown)  '.'
ebcc	ff	(unknown)  '.'
ebcd	ff	(unknown)  '.'
ebce	ff	(unknown)  '.'
ebcf	ff	(unknown)  '.'
ebd0	ff	(unknown)  '.'
ebd1	ff	(unknown)  '.'
ebd2	ff	(unknown)  '.'
ebd3	ff	(unknown)  '.'
ebd4	ff	(unknown)  '.'
ebd5	ff	(unknown)  '.'
ebd6	ff	(unknown)  '.'
ebd7	ff	(unknown)  '.'
ebd8	ff	(unknown)  '.'
ebd9	ff	(unknown)  '.'
ebda	ff	(unknown)  '.'
ebdb	ff	(unknown)  '.'
ebdc	ff	(unknown)  '.'
ebdd	ff	(unknown)  '.'
ebde	ff	(unknown)  '.'
ebdf	ff	(unknown)  '.'
ebe0	ff	(unknown)  '.'
ebe1	ff	(unknown)  '.'
ebe2	ff	(unknown)  '.'
ebe3	ff	(unknown)  '.'
ebe4	ff	(unknown)  '.'
ebe5	ff	(unknown)  '.'
ebe6	ff	(unknown)  '.'
ebe7	ff	(unknown)  '.'
ebe8	ff	(unknown)  '.'
ebe9	ff	(unknown)  '.'
ebea	ff	(unknown)  '.'
ebeb	ff	(unknown)  '.'
ebec	ff	(unknown)  '.'
ebed	ff	(unknown)  '.'
ebee	ff	(unknown)  '.'
ebef	ff	(unknown)  '.'
ebf0	ff	(unknown)  '.'
ebf1	ff	(unknown)  '.'
ebf2	ff	(unknown)  '.'
ebf3	ff	(unknown)  '.'
ebf4	ff	(unknown)  '.'
ebf5	ff	(unknown)  '.'
ebf6	ff	(unknown)  '.'
ebf7	ff	(unknown)  '.'
ebf8	ff	(unknown)  '.'
ebf9	ff	(unknown)  '.'
ebfa	ff	(unknown)  '.'
ebfb	ff	(unknown)  '.'
ebfc	ff	(unknown)  '.'
ebfd	ff	(unknown)  '.'
ebfe	ff	(unknown)  '.'
ebff	ff	(unknown)  '.'
ec00	ff	(unknown)  '.'
ec01	ff	(unknown)  '.'
ec02	ff	(unknown)  '.'
ec03	ff	(unknown)  '.'
ec04	ff	(unknown)  '.'
ec05	ff	(unknown)  '.'
ec06	ff	(unknown)  '.'
ec07	ff	(unknown)  '.'
ec08	ff	(unknown)  '.'
ec09	ff	(unknown)  '.'
ec0a	ff	(unknown)  '.'
ec0b	ff	(unknown)  '.'
ec0c	ff	(unknown)  '.'
ec0d	ff	(unknown)  '.'
ec0e	ff	(unknown)  '.'
ec0f	ff	(unknown)  '.'
ec10	ff	(unknown)  '.'
ec11	ff	(unknown)  '.'
ec12	ff	(unknown)  '.'
ec13	ff	(unknown)  '.'
ec14	ff	(unknown)  '.'
ec15	ff	(unknown)  '.'
ec16	ff	(unknown)  '.'
ec17	ff	(unknown)  '.'
ec18	ff	(unknown)  '.'
ec19	ff	(unknown)  '.'
ec1a	ff	(unknown)  '.'
ec1b	ff	(unknown)  '.'
ec1c	ff	(unknown)  '.'
ec1d	ff	(unknown)  '.'
ec1e	ff	(unknown)  '.'
ec1f	ff	(unknown)  '.'
ec20	ff	(unknown)  '.'
ec21	ff	(unknown)  '.'
ec22	ff	(unknown)  '.'
ec23	ff	(unknown)  '.'
ec24	ff	(unknown)  '.'
ec25	ff	(unknown)  '.'
ec26	ff	(unknown)  '.'
ec27	ff	(unknown)  '.'
ec28	ff	(unknown)  '.'
ec29	ff	(unknown)  '.'
ec2a	ff	(unknown)  '.'
ec2b	ff	(unknown)  '.'
ec2c	ff	(unknown)  '.'
ec2d	ff	(unknown)  '.'
ec2e	ff	(unknown)  '.'
ec2f	ff	(unknown)  '.'
ec30	ff	(unknown)  '.'
ec31	ff	(unknown)  '.'
ec32	ff	(unknown)  '.'
ec33	ff	(unknown)  '.'
ec34	ff	(unknown)  '.'
ec35	ff	(unknown)  '.'
ec36	ff	(unknown)  '.'
ec37	ff	(unknown)  '.'
ec38	ff	(unknown)  '.'
ec39	ff	(unknown)  '.'
ec3a	ff	(unknown)  '.'
ec3b	ff	(unknown)  '.'
ec3c	ff	(unknown)  '.'
ec3d	ff	(unknown)  '.'
ec3e	ff	(unknown)  '.'
ec3f	ff	(unknown)  '.'
ec40	ff	(unknown)  '.'
ec41	ff	(unknown)  '.'
ec42	ff	(unknown)  '.'
ec43	ff	(unknown)  '.'
ec44	ff	(unknown)  '.'
ec45	ff	(unknown)  '.'
ec46	ff	(unknown)  '.'
ec47	ff	(unknown)  '.'
ec48	ff	(unknown)  '.'
ec49	ff	(unknown)  '.'
ec4a	ff	(unknown)  '.'
ec4b	ff	(unknown)  '.'
ec4c	ff	(unknown)  '.'
ec4d	ff	(unknown)  '.'
ec4e	ff	(unknown)  '.'
ec4f	ff	(unknown)  '.'
ec50	ff	(unknown)  '.'
ec51	ff	(unknown)  '.'
ec52	ff	(unknown)  '.'
ec53	ff	(unknown)  '.'
ec54	ff	(unknown)  '.'
ec55	ff	(unknown)  '.'
ec56	ff	(unknown)  '.'
ec57	ff	(unknown)  '.'
ec58	ff	(unknown)  '.'
ec59	ff	(unknown)  '.'
ec5a	ff	(unknown)  '.'
ec5b	ff	(unknown)  '.'
ec5c	ff	(unknown)  '.'
ec5d	ff	(unknown)  '.'
ec5e	ff	(unknown)  '.'
ec5f	ff	(unknown)  '.'
ec60	ff	(unknown)  '.'
ec61	ff	(unknown)  '.'
ec62	ff	(unknown)  '.'
ec63	ff	(unknown)  '.'
ec64	ff	(unknown)  '.'
ec65	ff	(unknown)  '.'
ec66	ff	(unknown)  '.'
ec67	ff	(unknown)  '.'
ec68	ff	(unknown)  '.'
ec69	ff	(unknown)  '.'
ec6a	ff	(unknown)  '.'
ec6b	ff	(unknown)  '.'
ec6c	ff	(unknown)  '.'
ec6d	ff	(unknown)  '.'
ec6e	ff	(unknown)  '.'
ec6f	ff	(unknown)  '.'
ec70	ff	(unknown)  '.'
ec71	ff	(unknown)  '.'
ec72	ff	(unknown)  '.'
ec73	ff	(unknown)  '.'
ec74	ff	(unknown)  '.'
ec75	ff	(unknown)  '.'
ec76	ff	(unknown)  '.'
ec77	ff	(unknown)  '.'
ec78	ff	(unknown)  '.'
ec79	ff	(unknown)  '.'
ec7a	ff	(unknown)  '.'
ec7b	ff	(unknown)  '.'
ec7c	ff	(unknown)  '.'
ec7d	ff	(unknown)  '.'
ec7e	ff	(unknown)  '.'
ec7f	ff	(unknown)  '.'
ec80	ff	(unknown)  '.'
ec81	ff	(unknown)  '.'
ec82	ff	(unknown)  '.'
ec83	ff	(unknown)  '.'
ec84	ff	(unknown)  '.'
ec85	ff	(unknown)  '.'
ec86	ff	(unknown)  '.'
ec87	ff	(unknown)  '.'
ec88	ff	(unknown)  '.'
ec89	ff	(unknown)  '.'
ec8a	ff	(unknown)  '.'
ec8b	ff	(unknown)  '.'
ec8c	ff	(unknown)  '.'
ec8d	ff	(unknown)  '.'
ec8e	ff	(unknown)  '.'
ec8f	ff	(unknown)  '.'
ec90	ff	(unknown)  '.'
ec91	ff	(unknown)  '.'
ec92	ff	(unknown)  '.'
ec93	ff	(unknown)  '.'
ec94	ff	(unknown)  '.'
ec95	ff	(unknown)  '.'
ec96	ff	(unknown)  '.'
ec97	ff	(unknown)  '.'
ec98	ff	(unknown)  '.'
ec99	ff	(unknown)  '.'
ec9a	ff	(unknown)  '.'
ec9b	ff	(unknown)  '.'
ec9c	ff	(unknown)  '.'
ec9d	ff	(unknown)  '.'
ec9e	ff	(unknown)  '.'
ec9f	ff	(unknown)  '.'
eca0	ff	(unknown)  '.'
eca1	ff	(unknown)  '.'
eca2	ff	(unknown)  '.'
eca3	ff	(unknown)  '.'
eca4	ff	(unknown)  '.'
eca5	ff	(unknown)  '.'
eca6	ff	(unknown)  '.'
eca7	ff	(unknown)  '.'
eca8	ff	(unknown)  '.'
eca9	ff	(unknown)  '.'
ecaa	ff	(unknown)  '.'
ecab	ff	(unknown)  '.'
ecac	ff	(unknown)  '.'
ecad	ff	(unknown)  '.'
ecae	ff	(unknown)  '.'
ecaf	ff	(unknown)  '.'
ecb0	ff	(unknown)  '.'
ecb1	ff	(unknown)  '.'
ecb2	ff	(unknown)  '.'
ecb3	ff	(unknown)  '.'
ecb4	ff	(unknown)  '.'
ecb5	ff	(unknown)  '.'
ecb6	ff	(unknown)  '.'
ecb7	ff	(unknown)  '.'
ecb8	ff	(unknown)  '.'
ecb9	ff	(unknown)  '.'
ecba	ff	(unknown)  '.'
ecbb	ff	(unknown)  '.'
ecbc	ff	(unknown)  '.'
ecbd	ff	(unknown)  '.'
ecbe	ff	(unknown)  '.'
ecbf	ff	(unknown)  '.'
ecc0	ff	(unknown)  '.'
ecc1	ff	(unknown)  '.'
ecc2	ff	(unknown)  '.'
ecc3	ff	(unknown)  '.'
ecc4	ff	(unknown)  '.'
ecc5	ff	(unknown)  '.'
ecc6	ff	(unknown)  '.'
ecc7	ff	(unknown)  '.'
ecc8	ff	(unknown)  '.'
ecc9	ff	(unknown)  '.'
ecca	ff	(unknown)  '.'
eccb	ff	(unknown)  '.'
eccc	ff	(unknown)  '.'
eccd	ff	(unknown)  '.'
ecce	ff	(unknown)  '.'
eccf	ff	(unknown)  '.'
ecd0	ff	(unknown)  '.'
ecd1	ff	(unknown)  '.'
ecd2	ff	(unknown)  '.'
ecd3	ff	(unknown)  '.'
ecd4	ff	(unknown)  '.'
ecd5	ff	(unknown)  '.'
ecd6	ff	(unknown)  '.'
ecd7	ff	(unknown)  '.'
ecd8	ff	(unknown)  '.'
ecd9	ff	(unknown)  '.'
ecda	ff	(unknown)  '.'
ecdb	ff	(unknown)  '.'
ecdc	ff	(unknown)  '.'
ecdd	ff	(unknown)  '.'
ecde	ff	(unknown)  '.'
ecdf	ff	(unknown)  '.'
ece0	ff	(unknown)  '.'
ece1	ff	(unknown)  '.'
ece2	ff	(unknown)  '.'
ece3	ff	(unknown)  '.'
ece4	ff	(unknown)  '.'
ece5	ff	(unknown)  '.'
ece6	ff	(unknown)  '.'
ece7	ff	(unknown)  '.'
ece8	ff	(unknown)  '.'
ece9	ff	(unknown)  '.'
ecea	ff	(unknown)  '.'
eceb	ff	(unknown)  '.'
ecec	ff	(unknown)  '.'
eced	ff	(unknown)  '.'
ecee	ff	(unknown)  '.'
ecef	ff	(unknown)  '.'
ecf0	ff	(unknown)  '.'
ecf1	ff	(unknown)  '.'
ecf2	ff	(unknown)  '.'
ecf3	ff	(unknown)  '.'
ecf4	ff	(unknown)  '.'
ecf5	ff	(unknown)  '.'
ecf6	ff	(unknown)  '.'
ecf7	ff	(unknown)  '.'
ecf8	ff	(unknown)  '.'
ecf9	ff	(unknown)  '.'
ecfa	ff	(unknown)  '.'
ecfb	ff	(unknown)  '.'
ecfc	ff	(unknown)  '.'
ecfd	ff	(unknown)  '.'
ecfe	ff	(unknown)  '.'
ecff	ff	(unknown)  '.'
ed00	ff	(unknown)  '.'
ed01	ff	(unknown)  '.'
ed02	ff	(unknown)  '.'
ed03	ff	(unknown)  '.'
ed04	ff	(unknown)  '.'
ed05	ff	(unknown)  '.'
ed06	ff	(unknown)  '.'
ed07	ff	(unknown)  '.'
ed08	ff	(unknown)  '.'
ed09	ff	(unknown)  '.'
ed0a	ff	(unknown)  '.'
ed0b	ff	(unknown)  '.'
ed0c	ff	(unknown)  '.'
ed0d	ff	(unknown)  '.'
ed0e	ff	(unknown)  '.'
ed0f	ff	(unknown)  '.'
ed10	ff	(unknown)  '.'
ed11	ff	(unknown)  '.'
ed12	ff	(unknown)  '.'
ed13	ff	(unknown)  '.'
ed14	ff	(unknown)  '.'
ed15	ff	(unknown)  '.'
ed16	ff	(unknown)  '.'
ed17	ff	(unknown)  '.'
ed18	ff	(unknown)  '.'
ed19	ff	(unknown)  '.'
ed1a	ff	(unknown)  '.'
ed1b	ff	(unknown)  '.'
ed1c	ff	(unknown)  '.'
ed1d	ff	(unknown)  '.'
ed1e	ff	(unknown)  '.'
ed1f	ff	(unknown)  '.'
ed20	ff	(unknown)  '.'
ed21	ff	(unknown)  '.'
ed22	ff	(unknown)  '.'
ed23	ff	(unknown)  '.'
ed24	ff	(unknown)  '.'
ed25	ff	(unknown)  '.'
ed26	ff	(unknown)  '.'
ed27	ff	(unknown)  '.'
ed28	ff	(unknown)  '.'
ed29	ff	(unknown)  '.'
ed2a	ff	(unknown)  '.'
ed2b	ff	(unknown)  '.'
ed2c	ff	(unknown)  '.'
ed2d	ff	(unknown)  '.'
ed2e	ff	(unknown)  '.'
ed2f	ff	(unknown)  '.'
ed30	ff	(unknown)  '.'
ed31	ff	(unknown)  '.'
ed32	ff	(unknown)  '.'
ed33	ff	(unknown)  '.'
ed34	ff	(unknown)  '.'
ed35	ff	(unknown)  '.'
ed36	ff	(unknown)  '.'
ed37	ff	(unknown)  '.'
ed38	ff	(unknown)  '.'
ed39	ff	(unknown)  '.'
ed3a	ff	(unknown)  '.'
ed3b	ff	(unknown)  '.'
ed3c	ff	(unknown)  '.'
ed3d	ff	(unknown)  '.'
ed3e	ff	(unknown)  '.'
ed3f	ff	(unknown)  '.'
ed40	ff	(unknown)  '.'
ed41	ff	(unknown)  '.'
ed42	ff	(unknown)  '.'
ed43	ff	(unknown)  '.'
ed44	ff	(unknown)  '.'
ed45	ff	(unknown)  '.'
ed46	ff	(unknown)  '.'
ed47	ff	(unknown)  '.'
ed48	ff	(unknown)  '.'
ed49	ff	(unknown)  '.'
ed4a	ff	(unknown)  '.'
ed4b	ff	(unknown)  '.'
ed4c	ff	(unknown)  '.'
ed4d	ff	(unknown)  '.'
ed4e	ff	(unknown)  '.'
ed4f	ff	(unknown)  '.'
ed50	ff	(unknown)  '.'
ed51	ff	(unknown)  '.'
ed52	ff	(unknown)  '.'
ed53	ff	(unknown)  '.'
ed54	ff	(unknown)  '.'
ed55	ff	(unknown)  '.'
ed56	ff	(unknown)  '.'
ed57	ff	(unknown)  '.'
ed58	ff	(unknown)  '.'
ed59	ff	(unknown)  '.'
ed5a	ff	(unknown)  '.'
ed5b	ff	(unknown)  '.'
ed5c	ff	(unknown)  '.'
ed5d	ff	(unknown)  '.'
ed5e	ff	(unknown)  '.'
ed5f	ff	(unknown)  '.'
ed60	ff	(unknown)  '.'
ed61	ff	(unknown)  '.'
ed62	ff	(unknown)  '.'
ed63	ff	(unknown)  '.'
ed64	ff	(unknown)  '.'
ed65	ff	(unknown)  '.'
ed66	ff	(unknown)  '.'
ed67	ff	(unknown)  '.'
ed68	ff	(unknown)  '.'
ed69	ff	(unknown)  '.'
ed6a	ff	(unknown)  '.'
ed6b	ff	(unknown)  '.'
ed6c	ff	(unknown)  '.'
ed6d	ff	(unknown)  '.'
ed6e	ff	(unknown)  '.'
ed6f	ff	(unknown)  '.'
ed70	ff	(unknown)  '.'
ed71	ff	(unknown)  '.'
ed72	ff	(unknown)  '.'
ed73	ff	(unknown)  '.'
ed74	ff	(unknown)  '.'
ed75	ff	(unknown)  '.'
ed76	ff	(unknown)  '.'
ed77	ff	(unknown)  '.'
ed78	ff	(unknown)  '.'
ed79	ff	(unknown)  '.'
ed7a	ff	(unknown)  '.'
ed7b	ff	(unknown)  '.'
ed7c	ff	(unknown)  '.'
ed7d	ff	(unknown)  '.'
ed7e	ff	(unknown)  '.'
ed7f	ff	(unknown)  '.'
ed80	ff	(unknown)  '.'
ed81	ff	(unknown)  '.'
ed82	ff	(unknown)  '.'
ed83	ff	(unknown)  '.'
ed84	ff	(unknown)  '.'
ed85	ff	(unknown)  '.'
ed86	ff	(unknown)  '.'
ed87	ff	(unknown)  '.'
ed88	ff	(unknown)  '.'
ed89	ff	(unknown)  '.'
ed8a	ff	(unknown)  '.'
ed8b	ff	(unknown)  '.'
ed8c	ff	(unknown)  '.'
ed8d	ff	(unknown)  '.'
ed8e	ff	(unknown)  '.'
ed8f	ff	(unknown)  '.'
ed90	ff	(unknown)  '.'
ed91	ff	(unknown)  '.'
ed92	ff	(unknown)  '.'
ed93	ff	(unknown)  '.'
ed94	ff	(unknown)  '.'
ed95	ff	(unknown)  '.'
ed96	ff	(unknown)  '.'
ed97	ff	(unknown)  '.'
ed98	ff	(unknown)  '.'
ed99	ff	(unknown)  '.'
ed9a	ff	(unknown)  '.'
ed9b	ff	(unknown)  '.'
ed9c	ff	(unknown)  '.'
ed9d	ff	(unknown)  '.'
ed9e	ff	(unknown)  '.'
ed9f	ff	(unknown)  '.'
eda0	ff	(unknown)  '.'
eda1	ff	(unknown)  '.'
eda2	ff	(unknown)  '.'
eda3	ff	(unknown)  '.'
eda4	ff	(unknown)  '.'
eda5	ff	(unknown)  '.'
eda6	ff	(unknown)  '.'
eda7	ff	(unknown)  '.'
eda8	ff	(unknown)  '.'
eda9	ff	(unknown)  '.'
edaa	ff	(unknown)  '.'
edab	ff	(unknown)  '.'
edac	ff	(unknown)  '.'
edad	ff	(unknown)  '.'
edae	ff	(unknown)  '.'
edaf	ff	(unknown)  '.'
edb0	ff	(unknown)  '.'
edb1	ff	(unknown)  '.'
edb2	ff	(unknown)  '.'
edb3	ff	(unknown)  '.'
edb4	ff	(unknown)  '.'
edb5	ff	(unknown)  '.'
edb6	ff	(unknown)  '.'
edb7	ff	(unknown)  '.'
edb8	ff	(unknown)  '.'
edb9	ff	(unknown)  '.'
edba	ff	(unknown)  '.'
edbb	ff	(unknown)  '.'
edbc	ff	(unknown)  '.'
edbd	ff	(unknown)  '.'
edbe	ff	(unknown)  '.'
edbf	ff	(unknown)  '.'
edc0	ff	(unknown)  '.'
edc1	ff	(unknown)  '.'
edc2	ff	(unknown)  '.'
edc3	ff	(unknown)  '.'
edc4	ff	(unknown)  '.'
edc5	ff	(unknown)  '.'
edc6	ff	(unknown)  '.'
edc7	ff	(unknown)  '.'
edc8	ff	(unknown)  '.'
edc9	ff	(unknown)  '.'
edca	ff	(unknown)  '.'
edcb	ff	(unknown)  '.'
edcc	ff	(unknown)  '.'
edcd	ff	(unknown)  '.'
edce	ff	(unknown)  '.'
edcf	ff	(unknown)  '.'
edd0	ff	(unknown)  '.'
edd1	ff	(unknown)  '.'
edd2	ff	(unknown)  '.'
edd3	ff	(unknown)  '.'
edd4	ff	(unknown)  '.'
edd5	ff	(unknown)  '.'
edd6	ff	(unknown)  '.'
edd7	ff	(unknown)  '.'
edd8	ff	(unknown)  '.'
edd9	ff	(unknown)  '.'
edda	ff	(unknown)  '.'
eddb	ff	(unknown)  '.'
eddc	ff	(unknown)  '.'
eddd	ff	(unknown)  '.'
edde	ff	(unknown)  '.'
eddf	ff	(unknown)  '.'
ede0	ff	(unknown)  '.'
ede1	ff	(unknown)  '.'
ede2	ff	(unknown)  '.'
ede3	ff	(unknown)  '.'
ede4	ff	(unknown)  '.'
ede5	ff	(unknown)  '.'
ede6	ff	(unknown)  '.'
ede7	ff	(unknown)  '.'
ede8	ff	(unknown)  '.'
ede9	ff	(unknown)  '.'
edea	ff	(unknown)  '.'
edeb	ff	(unknown)  '.'
edec	ff	(unknown)  '.'
eded	ff	(unknown)  '.'
edee	ff	(unknown)  '.'
edef	ff	(unknown)  '.'
edf0	ff	(unknown)  '.'
edf1	ff	(unknown)  '.'
edf2	ff	(unknown)  '.'
edf3	ff	(unknown)  '.'
edf4	ff	(unknown)  '.'
edf5	ff	(unknown)  '.'
edf6	ff	(unknown)  '.'
edf7	ff	(unknown)  '.'
edf8	ff	(unknown)  '.'
edf9	ff	(unknown)  '.'
edfa	ff	(unknown)  '.'
edfb	ff	(unknown)  '.'
edfc	ff	(unknown)  '.'
edfd	ff	(unknown)  '.'
edfe	ff	(unknown)  '.'
edff	ff	(unknown)  '.'
ee00	ff	(unknown)  '.'
ee01	ff	(unknown)  '.'
ee02	ff	(unknown)  '.'
ee03	ff	(unknown)  '.'
ee04	ff	(unknown)  '.'
ee05	ff	(unknown)  '.'
ee06	ff	(unknown)  '.'
ee07	ff	(unknown)  '.'
ee08	ff	(unknown)  '.'
ee09	ff	(unknown)  '.'
ee0a	ff	(unknown)  '.'
ee0b	ff	(unknown)  '.'
ee0c	ff	(unknown)  '.'
ee0d	ff	(unknown)  '.'
ee0e	ff	(unknown)  '.'
ee0f	ff	(unknown)  '.'
ee10	ff	(unknown)  '.'
ee11	ff	(unknown)  '.'
ee12	ff	(unknown)  '.'
ee13	ff	(unknown)  '.'
ee14	ff	(unknown)  '.'
ee15	ff	(unknown)  '.'
ee16	ff	(unknown)  '.'
ee17	ff	(unknown)  '.'
ee18	ff	(unknown)  '.'
ee19	ff	(unknown)  '.'
ee1a	ff	(unknown)  '.'
ee1b	ff	(unknown)  '.'
ee1c	ff	(unknown)  '.'
ee1d	ff	(unknown)  '.'
ee1e	ff	(unknown)  '.'
ee1f	ff	(unknown)  '.'
ee20	ff	(unknown)  '.'
ee21	ff	(unknown)  '.'
ee22	ff	(unknown)  '.'
ee23	ff	(unknown)  '.'
ee24	ff	(unknown)  '.'
ee25	ff	(unknown)  '.'
ee26	ff	(unknown)  '.'
ee27	ff	(unknown)  '.'
ee28	ff	(unknown)  '.'
ee29	ff	(unknown)  '.'
ee2a	ff	(unknown)  '.'
ee2b	ff	(unknown)  '.'
ee2c	ff	(unknown)  '.'
ee2d	ff	(unknown)  '.'
ee2e	ff	(unknown)  '.'
ee2f	ff	(unknown)  '.'
ee30	ff	(unknown)  '.'
ee31	ff	(unknown)  '.'
ee32	ff	(unknown)  '.'
ee33	ff	(unknown)  '.'
ee34	ff	(unknown)  '.'
ee35	ff	(unknown)  '.'
ee36	ff	(unknown)  '.'
ee37	ff	(unknown)  '.'
ee38	ff	(unknown)  '.'
ee39	ff	(unknown)  '.'
ee3a	ff	(unknown)  '.'
ee3b	ff	(unknown)  '.'
ee3c	ff	(unknown)  '.'
ee3d	ff	(unknown)  '.'
ee3e	ff	(unknown)  '.'
ee3f	ff	(unknown)  '.'
ee40	ff	(unknown)  '.'
ee41	ff	(unknown)  '.'
ee42	ff	(unknown)  '.'
ee43	ff	(unknown)  '.'
ee44	ff	(unknown)  '.'
ee45	ff	(unknown)  '.'
ee46	ff	(unknown)  '.'
ee47	ff	(unknown)  '.'
ee48	ff	(unknown)  '.'
ee49	ff	(unknown)  '.'
ee4a	ff	(unknown)  '.'
ee4b	ff	(unknown)  '.'
ee4c	ff	(unknown)  '.'
ee4d	ff	(unknown)  '.'
ee4e	ff	(unknown)  '.'
ee4f	ff	(unknown)  '.'
ee50	ff	(unknown)  '.'
ee51	ff	(unknown)  '.'
ee52	ff	(unknown)  '.'
ee53	ff	(unknown)  '.'
ee54	ff	(unknown)  '.'
ee55	ff	(unknown)  '.'
ee56	ff	(unknown)  '.'
ee57	ff	(unknown)  '.'
ee58	ff	(unknown)  '.'
ee59	ff	(unknown)  '.'
ee5a	ff	(unknown)  '.'
ee5b	ff	(unknown)  '.'
ee5c	ff	(unknown)  '.'
ee5d	ff	(unknown)  '.'
ee5e	ff	(unknown)  '.'
ee5f	ff	(unknown)  '.'
ee60	ff	(unknown)  '.'
ee61	ff	(unknown)  '.'
ee62	ff	(unknown)  '.'
ee63	ff	(unknown)  '.'
ee64	ff	(unknown)  '.'
ee65	ff	(unknown)  '.'
ee66	ff	(unknown)  '.'
ee67	ff	(unknown)  '.'
ee68	ff	(unknown)  '.'
ee69	ff	(unknown)  '.'
ee6a	ff	(unknown)  '.'
ee6b	ff	(unknown)  '.'
ee6c	ff	(unknown)  '.'
ee6d	ff	(unknown)  '.'
ee6e	ff	(unknown)  '.'
ee6f	ff	(unknown)  '.'
ee70	ff	(unknown)  '.'
ee71	ff	(unknown)  '.'
ee72	ff	(unknown)  '.'
ee73	ff	(unknown)  '.'
ee74	ff	(unknown)  '.'
ee75	ff	(unknown)  '.'
ee76	ff	(unknown)  '.'
ee77	ff	(unknown)  '.'
ee78	ff	(unknown)  '.'
ee79	ff	(unknown)  '.'
ee7a	ff	(unknown)  '.'
ee7b	ff	(unknown)  '.'
ee7c	ff	(unknown)  '.'
ee7d	ff	(unknown)  '.'
ee7e	ff	(unknown)  '.'
ee7f	ff	(unknown)  '.'
ee80	ff	(unknown)  '.'
ee81	ff	(unknown)  '.'
ee82	ff	(unknown)  '.'
ee83	ff	(unknown)  '.'
ee84	ff	(unknown)  '.'
ee85	ff	(unknown)  '.'
ee86	ff	(unknown)  '.'
ee87	ff	(unknown)  '.'
ee88	ff	(unknown)  '.'
ee89	ff	(unknown)  '.'
ee8a	ff	(unknown)  '.'
ee8b	ff	(unknown)  '.'
ee8c	ff	(unknown)  '.'
ee8d	ff	(unknown)  '.'
ee8e	ff	(unknown)  '.'
ee8f	ff	(unknown)  '.'
ee90	ff	(unknown)  '.'
ee91	ff	(unknown)  '.'
ee92	ff	(unknown)  '.'
ee93	ff	(unknown)  '.'
ee94	ff	(unknown)  '.'
ee95	ff	(unknown)  '.'
ee96	ff	(unknown)  '.'
ee97	ff	(unknown)  '.'
ee98	ff	(unknown)  '.'
ee99	ff	(unknown)  '.'
ee9a	ff	(unknown)  '.'
ee9b	ff	(unknown)  '.'
ee9c	ff	(unknown)  '.'
ee9d	ff	(unknown)  '.'
ee9e	ff	(unknown)  '.'
ee9f	ff	(unknown)  '.'
eea0	ff	(unknown)  '.'
eea1	ff	(unknown)  '.'
eea2	ff	(unknown)  '.'
eea3	ff	(unknown)  '.'
eea4	ff	(unknown)  '.'
eea5	ff	(unknown)  '.'
eea6	ff	(unknown)  '.'
eea7	ff	(unknown)  '.'
eea8	ff	(unknown)  '.'
eea9	ff	(unknown)  '.'
eeaa	ff	(unknown)  '.'
eeab	ff	(unknown)  '.'
eeac	ff	(unknown)  '.'
eead	ff	(unknown)  '.'
eeae	ff	(unknown)  '.'
eeaf	ff	(unknown)  '.'
eeb0	ff	(unknown)  '.'
eeb1	ff	(unknown)  '.'
eeb2	ff	(unknown)  '.'
eeb3	ff	(unknown)  '.'
eeb4	ff	(unknown)  '.'
eeb5	ff	(unknown)  '.'
eeb6	ff	(unknown)  '.'
eeb7	ff	(unknown)  '.'
eeb8	ff	(unknown)  '.'
eeb9	ff	(unknown)  '.'
eeba	ff	(unknown)  '.'
eebb	ff	(unknown)  '.'
eebc	ff	(unknown)  '.'
eebd	ff	(unknown)  '.'
eebe	ff	(unknown)  '.'
eebf	ff	(unknown)  '.'
eec0	ff	(unknown)  '.'
eec1	ff	(unknown)  '.'
eec2	ff	(unknown)  '.'
eec3	ff	(unknown)  '.'
eec4	ff	(unknown)  '.'
eec5	ff	(unknown)  '.'
eec6	ff	(unknown)  '.'
eec7	ff	(unknown)  '.'
eec8	ff	(unknown)  '.'
eec9	ff	(unknown)  '.'
eeca	ff	(unknown)  '.'
eecb	ff	(unknown)  '.'
eecc	ff	(unknown)  '.'
eecd	ff	(unknown)  '.'
eece	ff	(unknown)  '.'
eecf	ff	(unknown)  '.'
eed0	ff	(unknown)  '.'
eed1	ff	(unknown)  '.'
eed2	ff	(unknown)  '.'
eed3	ff	(unknown)  '.'
eed4	ff	(unknown)  '.'
eed5	ff	(unknown)  '.'
eed6	ff	(unknown)  '.'
eed7	ff	(unknown)  '.'
eed8	ff	(unknown)  '.'
eed9	ff	(unknown)  '.'
eeda	ff	(unknown)  '.'
eedb	ff	(unknown)  '.'
eedc	ff	(unknown)  '.'
eedd	ff	(unknown)  '.'
eede	ff	(unknown)  '.'
eedf	ff	(unknown)  '.'
eee0	ff	(unknown)  '.'
eee1	ff	(unknown)  '.'
eee2	ff	(unknown)  '.'
eee3	ff	(unknown)  '.'
eee4	ff	(unknown)  '.'
eee5	ff	(unknown)  '.'
eee6	ff	(unknown)  '.'
eee7	ff	(unknown)  '.'
eee8	ff	(unknown)  '.'
eee9	ff	(unknown)  '.'
eeea	ff	(unknown)  '.'
eeeb	ff	(unknown)  '.'
eeec	ff	(unknown)  '.'
eeed	ff	(unknown)  '.'
eeee	ff	(unknown)  '.'
eeef	ff	(unknown)  '.'
eef0	ff	(unknown)  '.'
eef1	ff	(unknown)  '.'
eef2	ff	(unknown)  '.'
eef3	ff	(unknown)  '.'
eef4	ff	(unknown)  '.'
eef5	ff	(unknown)  '.'
eef6	ff	(unknown)  '.'
eef7	ff	(unknown)  '.'
eef8	ff	(unknown)  '.'
eef9	ff	(unknown)  '.'
eefa	ff	(unknown)  '.'
eefb	ff	(unknown)  '.'
eefc	ff	(unknown)  '.'
eefd	ff	(unknown)  '.'
eefe	ff	(unknown)  '.'
eeff	ff	(unknown)  '.'
ef00	ff	(unknown)  '.'
ef01	ff	(unknown)  '.'
ef02	ff	(unknown)  '.'
ef03	ff	(unknown)  '.'
ef04	ff	(unknown)  '.'
ef05	ff	(unknown)  '.'
ef06	ff	(unknown)  '.'
ef07	ff	(unknown)  '.'
ef08	ff	(unknown)  '.'
ef09	ff	(unknown)  '.'
ef0a	ff	(unknown)  '.'
ef0b	ff	(unknown)  '.'
ef0c	ff	(unknown)  '.'
ef0d	ff	(unknown)  '.'
ef0e	ff	(unknown)  '.'
ef0f	ff	(unknown)  '.'
ef10	ff	(unknown)  '.'
ef11	ff	(unknown)  '.'
ef12	ff	(unknown)  '.'
ef13	ff	(unknown)  '.'
ef14	ff	(unknown)  '.'
ef15	ff	(unknown)  '.'
ef16	ff	(unknown)  '.'
ef17	ff	(unknown)  '.'
ef18	ff	(unknown)  '.'
ef19	ff	(unknown)  '.'
ef1a	ff	(unknown)  '.'
ef1b	ff	(unknown)  '.'
ef1c	ff	(unknown)  '.'
ef1d	ff	(unknown)  '.'
ef1e	ff	(unknown)  '.'
ef1f	ff	(unknown)  '.'
ef20	ff	(unknown)  '.'
ef21	ff	(unknown)  '.'
ef22	ff	(unknown)  '.'
ef23	ff	(unknown)  '.'
ef24	ff	(unknown)  '.'
ef25	ff	(unknown)  '.'
ef26	ff	(unknown)  '.'
ef27	ff	(unknown)  '.'
ef28	ff	(unknown)  '.'
ef29	ff	(unknown)  '.'
ef2a	ff	(unknown)  '.'
ef2b	ff	(unknown)  '.'
ef2c	ff	(unknown)  '.'
ef2d	ff	(unknown)  '.'
ef2e	ff	(unknown)  '.'
ef2f	ff	(unknown)  '.'
ef30	ff	(unknown)  '.'
ef31	ff	(unknown)  '.'
ef32	ff	(unknown)  '.'
ef33	ff	(unknown)  '.'
ef34	ff	(unknown)  '.'
ef35	ff	(unknown)  '.'
ef36	ff	(unknown)  '.'
ef37	ff	(unknown)  '.'
ef38	ff	(unknown)  '.'
ef39	ff	(unknown)  '.'
ef3a	ff	(unknown)  '.'
ef3b	ff	(unknown)  '.'
ef3c	ff	(unknown)  '.'
ef3d	ff	(unknown)  '.'
ef3e	ff	(unknown)  '.'
ef3f	ff	(unknown)  '.'
ef40	ff	(unknown)  '.'
ef41	ff	(unknown)  '.'
ef42	ff	(unknown)  '.'
ef43	ff	(unknown)  '.'
ef44	ff	(unknown)  '.'
ef45	ff	(unknown)  '.'
ef46	ff	(unknown)  '.'
ef47	ff	(unknown)  '.'
ef48	ff	(unknown)  '.'
ef49	ff	(unknown)  '.'
ef4a	ff	(unknown)  '.'
ef4b	ff	(unknown)  '.'
ef4c	ff	(unknown)  '.'
ef4d	ff	(unknown)  '.'
ef4e	ff	(unknown)  '.'
ef4f	ff	(unknown)  '.'
ef50	ff	(unknown)  '.'
ef51	ff	(unknown)  '.'
ef52	ff	(unknown)  '.'
ef53	ff	(unknown)  '.'
ef54	ff	(unknown)  '.'
ef55	ff	(unknown)  '.'
ef56	ff	(unknown)  '.'
ef57	ff	(unknown)  '.'
ef58	ff	(unknown)  '.'
ef59	ff	(unknown)  '.'
ef5a	ff	(unknown)  '.'
ef5b	ff	(unknown)  '.'
ef5c	ff	(unknown)  '.'
ef5d	ff	(unknown)  '.'
ef5e	ff	(unknown)  '.'
ef5f	ff	(unknown)  '.'
ef60	ff	(unknown)  '.'
ef61	ff	(unknown)  '.'
ef62	ff	(unknown)  '.'
ef63	ff	(unknown)  '.'
ef64	ff	(unknown)  '.'
ef65	ff	(unknown)  '.'
ef66	ff	(unknown)  '.'
ef67	ff	(unknown)  '.'
ef68	ff	(unknown)  '.'
ef69	ff	(unknown)  '.'
ef6a	ff	(unknown)  '.'
ef6b	ff	(unknown)  '.'
ef6c	ff	(unknown)  '.'
ef6d	ff	(unknown)  '.'
ef6e	ff	(unknown)  '.'
ef6f	ff	(unknown)  '.'
ef70	ff	(unknown)  '.'
ef71	ff	(unknown)  '.'
ef72	ff	(unknown)  '.'
ef73	ff	(unknown)  '.'
ef74	ff	(unknown)  '.'
ef75	ff	(unknown)  '.'
ef76	ff	(unknown)  '.'
ef77	ff	(unknown)  '.'
ef78	ff	(unknown)  '.'
ef79	ff	(unknown)  '.'
ef7a	ff	(unknown)  '.'
ef7b	ff	(unknown)  '.'
ef7c	ff	(unknown)  '.'
ef7d	ff	(unknown)  '.'
ef7e	ff	(unknown)  '.'
ef7f	ff	(unknown)  '.'
ef80	ff	(unknown)  '.'
ef81	ff	(unknown)  '.'
ef82	ff	(unknown)  '.'
ef83	ff	(unknown)  '.'
ef84	ff	(unknown)  '.'
ef85	ff	(unknown)  '.'
ef86	ff	(unknown)  '.'
ef87	ff	(unknown)  '.'
ef88	ff	(unknown)  '.'
ef89	ff	(unknown)  '.'
ef8a	ff	(unknown)  '.'
ef8b	ff	(unknown)  '.'
ef8c	ff	(unknown)  '.'
ef8d	ff	(unknown)  '.'
ef8e	ff	(unknown)  '.'
ef8f	ff	(unknown)  '.'
ef90	ff	(unknown)  '.'
ef91	ff	(unknown)  '.'
ef92	ff	(unknown)  '.'
ef93	ff	(unknown)  '.'
ef94	ff	(unknown)  '.'
ef95	ff	(unknown)  '.'
ef96	ff	(unknown)  '.'
ef97	ff	(unknown)  '.'
ef98	ff	(unknown)  '.'
ef99	ff	(unknown)  '.'
ef9a	ff	(unknown)  '.'
ef9b	ff	(unknown)  '.'
ef9c	ff	(unknown)  '.'
ef9d	ff	(unknown)  '.'
ef9e	ff	(unknown)  '.'
ef9f	ff	(unknown)  '.'
efa0	ff	(unknown)  '.'
efa1	ff	(unknown)  '.'
efa2	ff	(unknown)  '.'
efa3	ff	(unknown)  '.'
efa4	ff	(unknown)  '.'
efa5	ff	(unknown)  '.'
efa6	ff	(unknown)  '.'
efa7	ff	(unknown)  '.'
efa8	ff	(unknown)  '.'
efa9	ff	(unknown)  '.'
efaa	ff	(unknown)  '.'
efab	ff	(unknown)  '.'
efac	ff	(unknown)  '.'
efad	ff	(unknown)  '.'
efae	ff	(unknown)  '.'
efaf	ff	(unknown)  '.'
efb0	ff	(unknown)  '.'
efb1	ff	(unknown)  '.'
efb2	ff	(unknown)  '.'
efb3	ff	(unknown)  '.'
efb4	ff	(unknown)  '.'
efb5	ff	(unknown)  '.'
efb6	ff	(unknown)  '.'
efb7	ff	(unknown)  '.'
efb8	ff	(unknown)  '.'
efb9	ff	(unknown)  '.'
efba	ff	(unknown)  '.'
efbb	ff	(unknown)  '.'
efbc	ff	(unknown)  '.'
efbd	ff	(unknown)  '.'
efbe	ff	(unknown)  '.'
efbf	ff	(unknown)  '.'
efc0	ff	(unknown)  '.'
efc1	ff	(unknown)  '.'
efc2	ff	(unknown)  '.'
efc3	ff	(unknown)  '.'
efc4	ff	(unknown)  '.'
efc5	ff	(unknown)  '.'
efc6	ff	(unknown)  '.'
efc7	ff	(unknown)  '.'
efc8	ff	(unknown)  '.'
efc9	ff	(unknown)  '.'
efca	ff	(unknown)  '.'
efcb	ff	(unknown)  '.'
efcc	ff	(unknown)  '.'
efcd	ff	(unknown)  '.'
efce	ff	(unknown)  '.'
efcf	ff	(unknown)  '.'
efd0	ff	(unknown)  '.'
efd1	ff	(unknown)  '.'
efd2	ff	(unknown)  '.'
efd3	ff	(unknown)  '.'
efd4	ff	(unknown)  '.'
efd5	ff	(unknown)  '.'
efd6	ff	(unknown)  '.'
efd7	ff	(unknown)  '.'
efd8	ff	(unknown)  '.'
efd9	ff	(unknown)  '.'
efda	ff	(unknown)  '.'
efdb	ff	(unknown)  '.'
efdc	ff	(unknown)  '.'
efdd	ff	(unknown)  '.'
efde	ff	(unknown)  '.'
efdf	ff	(unknown)  '.'
efe0	ff	(unknown)  '.'
efe1	ff	(unknown)  '.'
efe2	ff	(unknown)  '.'
efe3	ff	(unknown)  '.'
efe4	ff	(unknown)  '.'
efe5	ff	(unknown)  '.'
efe6	ff	(unknown)  '.'
efe7	ff	(unknown)  '.'
efe8	ff	(unknown)  '.'
efe9	ff	(unknown)  '.'
efea	ff	(unknown)  '.'
efeb	ff	(unknown)  '.'
efec	ff	(unknown)  '.'
efed	ff	(unknown)  '.'
efee	ff	(unknown)  '.'
efef	ff	(unknown)  '.'
eff0	ff	(unknown)  '.'
eff1	ff	(unknown)  '.'
eff2	ff	(unknown)  '.'
eff3	ff	(unknown)  '.'
eff4	ff	(unknown)  '.'
eff5	ff	(unknown)  '.'
eff6	ff	(unknown)  '.'
eff7	ff	(unknown)  '.'
eff8	ff	(unknown)  '.'
eff9	ff	(unknown)  '.'
effa	ff	(unknown)  '.'
effb	ff	(unknown)  '.'
effc	ff	(unknown)  '.'
effd	ff	(unknown)  '.'
effe	ff	(unknown)  '.'
efff	ff	(unknown)  '.'
f000	ff	(unknown)  '.'
